
main.elf:     file format elf32-avr

Sections:
Idx Name          Size      VMA       LMA       File off  Algn
  0 .data         00000004  00803800  000025ba  0000268e  2**0
                  CONTENTS, ALLOC, LOAD, DATA
  1 .text         00002460  00000000  00000000  000000d4  2**1
                  CONTENTS, ALLOC, LOAD, READONLY, CODE
  2 .rodata       0000015a  0000a460  00002460  00002534  2**0
                  CONTENTS, ALLOC, LOAD, READONLY, DATA
  3 .bss          0000015d  00803804  00803804  00002692  2**0
                  ALLOC
  4 .eeprom       00000007  00810000  00810000  00002692  2**0
                  CONTENTS, ALLOC, LOAD, DATA
  5 .comment      00000012  00000000  00000000  00002699  2**0
                  CONTENTS, READONLY
  6 .note.gnu.avr.deviceinfo 00000040  00000000  00000000  000026ac  2**2
                  CONTENTS, READONLY, OCTETS
  7 .debug_aranges 000002e0  00000000  00000000  000026f0  2**3
                  CONTENTS, READONLY, DEBUGGING, OCTETS
  8 .debug_info   00002036  00000000  00000000  000029d0  2**0
                  CONTENTS, READONLY, DEBUGGING, OCTETS
  9 .debug_abbrev 00001d36  00000000  00000000  00004a06  2**0
                  CONTENTS, READONLY, DEBUGGING, OCTETS
 10 .debug_line   00000fb6  00000000  00000000  0000673c  2**0
                  CONTENTS, READONLY, DEBUGGING, OCTETS
 11 .debug_str    00000c4e  00000000  00000000  000076f2  2**0
                  CONTENTS, READONLY, DEBUGGING, OCTETS
 12 .debug_line_str 00000061  00000000  00000000  00008340  2**0
                  CONTENTS, READONLY, DEBUGGING, OCTETS

Disassembly of section .text:

00000000 <__vectors>:
       0:	0c 94 3e 00 	jmp	0x7c	; 0x7c <__ctors_end>
       4:	0c 94 5b 00 	jmp	0xb6	; 0xb6 <__bad_interrupt>
       8:	0c 94 5b 00 	jmp	0xb6	; 0xb6 <__bad_interrupt>
       c:	0c 94 5b 00 	jmp	0xb6	; 0xb6 <__bad_interrupt>
      10:	0c 94 5b 00 	jmp	0xb6	; 0xb6 <__bad_interrupt>
      14:	0c 94 5b 00 	jmp	0xb6	; 0xb6 <__bad_interrupt>
      18:	0c 94 5b 00 	jmp	0xb6	; 0xb6 <__bad_interrupt>
      1c:	0c 94 74 06 	jmp	0xce8	; 0xce8 <__vector_7>
      20:	0c 94 5b 00 	jmp	0xb6	; 0xb6 <__bad_interrupt>
      24:	0c 94 5b 00 	jmp	0xb6	; 0xb6 <__bad_interrupt>
      28:	0c 94 5b 00 	jmp	0xb6	; 0xb6 <__bad_interrupt>
      2c:	0c 94 5b 00 	jmp	0xb6	; 0xb6 <__bad_interrupt>
      30:	0c 94 5b 00 	jmp	0xb6	; 0xb6 <__bad_interrupt>
      34:	0c 94 5b 00 	jmp	0xb6	; 0xb6 <__bad_interrupt>
      38:	0c 94 5b 00 	jmp	0xb6	; 0xb6 <__bad_interrupt>
      3c:	0c 94 5b 00 	jmp	0xb6	; 0xb6 <__bad_interrupt>
      40:	0c 94 5b 00 	jmp	0xb6	; 0xb6 <__bad_interrupt>
      44:	0c 94 5b 00 	jmp	0xb6	; 0xb6 <__bad_interrupt>
      48:	0c 94 5b 00 	jmp	0xb6	; 0xb6 <__bad_interrupt>
      4c:	0c 94 5b 00 	jmp	0xb6	; 0xb6 <__bad_interrupt>
      50:	0c 94 5b 00 	jmp	0xb6	; 0xb6 <__bad_interrupt>
      54:	0c 94 5b 00 	jmp	0xb6	; 0xb6 <__bad_interrupt>
      58:	0c 94 5b 00 	jmp	0xb6	; 0xb6 <__bad_interrupt>
      5c:	0c 94 5b 00 	jmp	0xb6	; 0xb6 <__bad_interrupt>
      60:	0c 94 5b 00 	jmp	0xb6	; 0xb6 <__bad_interrupt>
      64:	0c 94 5b 00 	jmp	0xb6	; 0xb6 <__bad_interrupt>
      68:	0c 94 5b 00 	jmp	0xb6	; 0xb6 <__bad_interrupt>
      6c:	0c 94 5b 00 	jmp	0xb6	; 0xb6 <__bad_interrupt>
      70:	0c 94 5b 00 	jmp	0xb6	; 0xb6 <__bad_interrupt>
      74:	0c 94 5b 00 	jmp	0xb6	; 0xb6 <__bad_interrupt>
      78:	0c 94 5b 00 	jmp	0xb6	; 0xb6 <__bad_interrupt>

0000007c <__ctors_end>:
      7c:	11 24       	eor	r1, r1
      7e:	1f be       	out	0x3f, r1	; 63
      80:	cf ef       	ldi	r28, 0xFF	; 255
      82:	cd bf       	out	0x3d, r28	; 61
      84:	df e3       	ldi	r29, 0x3F	; 63
      86:	de bf       	out	0x3e, r29	; 62

00000088 <__do_copy_data>:
      88:	18 e3       	ldi	r17, 0x38	; 56

0000008a <.Loc.1>:
      8a:	a0 e0       	ldi	r26, 0x00	; 0

0000008c <.Loc.2>:
      8c:	b8 e3       	ldi	r27, 0x38	; 56

0000008e <.Loc.3>:
      8e:	ea eb       	ldi	r30, 0xBA	; 186

00000090 <.Loc.4>:
      90:	f5 e2       	ldi	r31, 0x25	; 37

00000092 <.Loc.5>:
      92:	02 c0       	rjmp	.+4      	; 0x98 <.L__do_copy_data_start>

00000094 <.L__do_copy_data_loop>:
      94:	05 90       	lpm	r0, Z+

00000096 <.Loc.7>:
      96:	0d 92       	st	X+, r0

00000098 <.L__do_copy_data_start>:
      98:	a4 30       	cpi	r26, 0x04	; 4

0000009a <.Loc.9>:
      9a:	b1 07       	cpc	r27, r17

0000009c <.Loc.10>:
      9c:	d9 f7       	brne	.-10     	; 0x94 <.L__do_copy_data_loop>

0000009e <__do_clear_bss>:
      9e:	29 e3       	ldi	r18, 0x39	; 57

000000a0 <.Loc.1>:
      a0:	a4 e0       	ldi	r26, 0x04	; 4

000000a2 <.Loc.2>:
      a2:	b8 e3       	ldi	r27, 0x38	; 56

000000a4 <.Loc.3>:
      a4:	01 c0       	rjmp	.+2      	; 0xa8 <.Loc.5>

000000a6 <.Loc.4>:
      a6:	1d 92       	st	X+, r1

000000a8 <.Loc.5>:
      a8:	a1 36       	cpi	r26, 0x61	; 97

000000aa <.Loc.6>:
      aa:	b2 07       	cpc	r27, r18

000000ac <.Loc.7>:
      ac:	e1 f7       	brne	.-8      	; 0xa6 <.Loc.4>

000000ae <L0^A>:
      ae:	0e 94 7a 06 	call	0xcf4	; 0xcf4 <main>
      b2:	0c 94 db 11 	jmp	0x23b6	; 0x23b6 <_exit>

000000b6 <__bad_interrupt>:
      b6:	0c 94 00 00 	jmp	0	; 0x0 <__vectors>

000000ba <usart_putc>:
      ba:	90 91 04 08 	lds	r25, 0x0804	; 0x800804 <__RODATA_PM_OFFSET__+0x7f8804>
      be:	95 ff       	sbrs	r25, 5
      c0:	fc cf       	rjmp	.-8      	; 0xba <usart_putc>
      c2:	80 93 02 08 	sts	0x0802, r24	; 0x800802 <__RODATA_PM_OFFSET__+0x7f8802>
      c6:	08 95       	ret

000000c8 <usart_print>:
      c8:	cf 93       	push	r28
      ca:	df 93       	push	r29
      cc:	ec 01       	movw	r28, r24

000000ce <.L6>:
      ce:	88 81       	ld	r24, Y
      d0:	81 11       	cpse	r24, r1
      d2:	03 c0       	rjmp	.+6      	; 0xda <.L7>
      d4:	df 91       	pop	r29
      d6:	cf 91       	pop	r28
      d8:	08 95       	ret

000000da <.L7>:
      da:	21 96       	adiw	r28, 0x01	; 1
      dc:	0e 94 5d 00 	call	0xba	; 0xba <usart_putc>
      e0:	f6 cf       	rjmp	.-20     	; 0xce <.L6>

000000e2 <usart_print_u16>:
      e2:	ff 92       	push	r15
      e4:	0f 93       	push	r16
      e6:	1f 93       	push	r17
      e8:	cf 93       	push	r28
      ea:	df 93       	push	r29
      ec:	00 d0       	rcall	.+0      	; 0xee <L0^A>

000000ee <L0^A>:
      ee:	00 d0       	rcall	.+0      	; 0xf0 <L0^A>

000000f0 <L0^A>:
      f0:	00 d0       	rcall	.+0      	; 0xf2 <L0^A>

000000f2 <L0^A>:
      f2:	cd b7       	in	r28, 0x3d	; 61
      f4:	de b7       	in	r29, 0x3e	; 62
      f6:	9c 01       	movw	r18, r24
      f8:	89 2b       	or	r24, r25
      fa:	59 f4       	brne	.+22     	; 0x112 <.L9>
      fc:	80 e3       	ldi	r24, 0x30	; 48
      fe:	26 96       	adiw	r28, 0x06	; 6
     100:	cd bf       	out	0x3d, r28	; 61
     102:	de bf       	out	0x3e, r29	; 62
     104:	df 91       	pop	r29
     106:	cf 91       	pop	r28
     108:	1f 91       	pop	r17
     10a:	0f 91       	pop	r16
     10c:	ff 90       	pop	r15
     10e:	0c 94 5d 00 	jmp	0xba	; 0xba <usart_putc>

00000112 <.L9>:
     112:	fe 01       	movw	r30, r28
     114:	31 96       	adiw	r30, 0x01	; 1
     116:	40 e0       	ldi	r20, 0x00	; 0
     118:	8f 01       	movw	r16, r30

0000011a <.L11>:
     11a:	c9 01       	movw	r24, r18
     11c:	6a e0       	ldi	r22, 0x0A	; 10
     11e:	70 e0       	ldi	r23, 0x00	; 0
     120:	0e 94 b9 0f 	call	0x1f72	; 0x1f72 <__udivmodhi4>
     124:	f4 2e       	mov	r15, r20
     126:	80 5d       	subi	r24, 0xD0	; 208
     128:	80 83       	st	Z, r24
     12a:	2a 30       	cpi	r18, 0x0A	; 10
     12c:	31 05       	cpc	r19, r1
     12e:	38 f0       	brcs	.+14     	; 0x13e <.L12>
     130:	41 e0       	ldi	r20, 0x01	; 1
     132:	4f 0d       	add	r20, r15
     134:	31 96       	adiw	r30, 0x01	; 1
     136:	9b 01       	movw	r18, r22
     138:	84 e0       	ldi	r24, 0x04	; 4
     13a:	f8 12       	cpse	r15, r24
     13c:	ee cf       	rjmp	.-36     	; 0x11a <.L11>

0000013e <.L12>:
     13e:	f8 01       	movw	r30, r16
     140:	ef 0d       	add	r30, r15
     142:	f1 1d       	adc	r31, r1
     144:	80 81       	ld	r24, Z
     146:	0e 94 5d 00 	call	0xba	; 0xba <usart_putc>
     14a:	fa 94       	dec	r15
     14c:	8f ef       	ldi	r24, 0xFF	; 255
     14e:	f8 12       	cpse	r15, r24
     150:	f6 cf       	rjmp	.-20     	; 0x13e <.L12>
     152:	26 96       	adiw	r28, 0x06	; 6
     154:	cd bf       	out	0x3d, r28	; 61
     156:	de bf       	out	0x3e, r29	; 62
     158:	df 91       	pop	r29
     15a:	cf 91       	pop	r28
     15c:	1f 91       	pop	r17
     15e:	0f 91       	pop	r16
     160:	ff 90       	pop	r15
     162:	08 95       	ret

00000164 <usart_print_temp_dC>:
     164:	cf 93       	push	r28
     166:	df 93       	push	r29
     168:	ec 01       	movw	r28, r24
     16a:	97 ff       	sbrs	r25, 7
     16c:	06 c0       	rjmp	.+12     	; 0x17a <.L16>
     16e:	8d e2       	ldi	r24, 0x2D	; 45
     170:	0e 94 5d 00 	call	0xba	; 0xba <usart_putc>
     174:	d1 95       	neg	r29
     176:	c1 95       	neg	r28
     178:	d1 09       	sbc	r29, r1

0000017a <.L16>:
     17a:	ce 01       	movw	r24, r28
     17c:	6a e0       	ldi	r22, 0x0A	; 10
     17e:	70 e0       	ldi	r23, 0x00	; 0
     180:	0e 94 cd 0f 	call	0x1f9a	; 0x1f9a <__divmodhi4>
     184:	c8 2f       	mov	r28, r24
     186:	cb 01       	movw	r24, r22
     188:	0e 94 71 00 	call	0xe2	; 0xe2 <usart_print_u16>
     18c:	8e e2       	ldi	r24, 0x2E	; 46
     18e:	0e 94 5d 00 	call	0xba	; 0xba <usart_putc>
     192:	80 e3       	ldi	r24, 0x30	; 48
     194:	8c 0f       	add	r24, r28
     196:	df 91       	pop	r29
     198:	cf 91       	pop	r28
     19a:	0c 94 5d 00 	jmp	0xba	; 0xba <usart_putc>

0000019e <adc_read>:
     19e:	80 93 06 06 	sts	0x0606, r24	; 0x800606 <__RODATA_PM_OFFSET__+0x7f8606>
     1a2:	81 e0       	ldi	r24, 0x01	; 1
     1a4:	80 93 0b 06 	sts	0x060B, r24	; 0x80060b <__RODATA_PM_OFFSET__+0x7f860b>
     1a8:	80 93 08 06 	sts	0x0608, r24	; 0x800608 <__RODATA_PM_OFFSET__+0x7f8608>

000001ac <.L18>:
     1ac:	80 91 0b 06 	lds	r24, 0x060B	; 0x80060b <__RODATA_PM_OFFSET__+0x7f860b>
     1b0:	80 ff       	sbrs	r24, 0
     1b2:	fc cf       	rjmp	.-8      	; 0x1ac <.L18>
     1b4:	80 91 10 06 	lds	r24, 0x0610	; 0x800610 <__RODATA_PM_OFFSET__+0x7f8610>
     1b8:	90 91 11 06 	lds	r25, 0x0611	; 0x800611 <__RODATA_PM_OFFSET__+0x7f8611>
     1bc:	08 95       	ret

000001be <cal_crc8>:
     1be:	fc 01       	movw	r30, r24
     1c0:	ac 01       	movw	r20, r24
     1c2:	4a 5f       	subi	r20, 0xFA	; 250
     1c4:	5f 4f       	sbci	r21, 0xFF	; 255
     1c6:	80 e0       	ldi	r24, 0x00	; 0
     1c8:	37 e0       	ldi	r19, 0x07	; 7

000001ca <.L25>:
     1ca:	91 91       	ld	r25, Z+
     1cc:	89 27       	eor	r24, r25
     1ce:	98 e0       	ldi	r25, 0x08	; 8

000001d0 <.L24>:
     1d0:	28 2f       	mov	r18, r24
     1d2:	22 0f       	add	r18, r18
     1d4:	87 ff       	sbrs	r24, 7
     1d6:	08 c0       	rjmp	.+16     	; 0x1e8 <.L22>
     1d8:	82 2f       	mov	r24, r18
     1da:	83 27       	eor	r24, r19

000001dc <.L23>:
     1dc:	91 50       	subi	r25, 0x01	; 1
     1de:	c1 f7       	brne	.-16     	; 0x1d0 <.L24>
     1e0:	e4 17       	cp	r30, r20
     1e2:	f5 07       	cpc	r31, r21
     1e4:	91 f7       	brne	.-28     	; 0x1ca <.L25>
     1e6:	08 95       	ret

000001e8 <.L22>:
     1e8:	82 2f       	mov	r24, r18
     1ea:	f8 cf       	rjmp	.-16     	; 0x1dc <.L23>

000001ec <button_pressed>:
     1ec:	80 91 08 04 	lds	r24, 0x0408	; 0x800408 <__RODATA_PM_OFFSET__+0x7f8408>
     1f0:	00 24       	eor	r0, r0
     1f2:	83 ff       	sbrs	r24, 3
     1f4:	03 94       	inc	r0
     1f6:	80 2d       	mov	r24, r0
     1f8:	08 95       	ret

000001fa <usart_flush>:
     1fa:	80 91 04 08 	lds	r24, 0x0804	; 0x800804 <__RODATA_PM_OFFSET__+0x7f8804>
     1fe:	85 ff       	sbrs	r24, 5
     200:	fc cf       	rjmp	.-8      	; 0x1fa <usart_flush>
     202:	86 e7       	ldi	r24, 0x76	; 118
     204:	91 e0       	ldi	r25, 0x01	; 1

00000206 <.L1^B1>:
     206:	01 97       	sbiw	r24, 0x01	; 1
     208:	f1 f7       	brne	.-4      	; 0x206 <.L1^B1>
     20a:	00 c0       	rjmp	.+0      	; 0x20c <L0^A>

0000020c <L0^A>:
     20c:	00 00       	nop
     20e:	08 95       	ret

00000210 <wait_press_release>:
     210:	0e 94 f6 00 	call	0x1ec	; 0x1ec <button_pressed>
     214:	81 11       	cpse	r24, r1
     216:	1b c0       	rjmp	.+54     	; 0x24e <.L35>
     218:	8f e4       	ldi	r24, 0x4F	; 79
     21a:	93 ec       	ldi	r25, 0xC3	; 195

0000021c <.L1^B2>:
     21c:	01 97       	sbiw	r24, 0x01	; 1
     21e:	f1 f7       	brne	.-4      	; 0x21c <.L1^B2>

00000220 <.L40>:
     220:	00 c0       	rjmp	.+0      	; 0x222 <L0^A>

00000222 <L0^A>:
     222:	00 00       	nop
     224:	0e 94 f6 00 	call	0x1ec	; 0x1ec <button_pressed>
     228:	81 15       	cp	r24, r1
     22a:	c1 f0       	breq	.+48     	; 0x25c <.L37>
     22c:	8f e4       	ldi	r24, 0x4F	; 79
     22e:	93 ec       	ldi	r25, 0xC3	; 195

00000230 <.L1^B3>:
     230:	01 97       	sbiw	r24, 0x01	; 1
     232:	f1 f7       	brne	.-4      	; 0x230 <.L1^B3>

00000234 <.L41>:
     234:	00 c0       	rjmp	.+0      	; 0x236 <L0^A>

00000236 <L0^A>:
     236:	00 00       	nop
     238:	0e 94 f6 00 	call	0x1ec	; 0x1ec <button_pressed>
     23c:	81 11       	cpse	r24, r1
     23e:	13 c0       	rjmp	.+38     	; 0x266 <.L39>
     240:	8f e4       	ldi	r24, 0x4F	; 79
     242:	93 ec       	ldi	r25, 0xC3	; 195

00000244 <.L1^B4>:
     244:	01 97       	sbiw	r24, 0x01	; 1
     246:	f1 f7       	brne	.-4      	; 0x244 <.L1^B4>
     248:	00 c0       	rjmp	.+0      	; 0x24a <L0^A>

0000024a <L0^A>:
     24a:	00 00       	nop
     24c:	08 95       	ret

0000024e <.L35>:
     24e:	83 ed       	ldi	r24, 0xD3	; 211
     250:	90 e3       	ldi	r25, 0x30	; 48

00000252 <.L1^B5>:
     252:	01 97       	sbiw	r24, 0x01	; 1
     254:	f1 f7       	brne	.-4      	; 0x252 <.L1^B5>
     256:	00 c0       	rjmp	.+0      	; 0x258 <L0^A>

00000258 <L0^A>:
     258:	00 00       	nop
     25a:	da cf       	rjmp	.-76     	; 0x210 <wait_press_release>

0000025c <.L37>:
     25c:	83 ed       	ldi	r24, 0xD3	; 211
     25e:	90 e3       	ldi	r25, 0x30	; 48

00000260 <.L1^B6>:
     260:	01 97       	sbiw	r24, 0x01	; 1
     262:	f1 f7       	brne	.-4      	; 0x260 <.L1^B6>
     264:	dd cf       	rjmp	.-70     	; 0x220 <.L40>

00000266 <.L39>:
     266:	83 ed       	ldi	r24, 0xD3	; 211
     268:	90 e3       	ldi	r25, 0x30	; 48

0000026a <.L1^B7>:
     26a:	01 97       	sbiw	r24, 0x01	; 1
     26c:	f1 f7       	brne	.-4      	; 0x26a <.L1^B7>
     26e:	e2 cf       	rjmp	.-60     	; 0x234 <.L41>

00000270 <cal_blink>:
     270:	90 e1       	ldi	r25, 0x10	; 16

00000272 <.L43>:
     272:	81 50       	subi	r24, 0x01	; 1
     274:	90 93 05 04 	sts	0x0405, r25	; 0x800405 <__RODATA_PM_OFFSET__+0x7f8405>
     278:	2f ef       	ldi	r18, 0xFF	; 255
     27a:	30 e7       	ldi	r19, 0x70	; 112
     27c:	42 e0       	ldi	r20, 0x02	; 2

0000027e <.L1^B8>:
     27e:	21 50       	subi	r18, 0x01	; 1
     280:	30 40       	sbci	r19, 0x00	; 0
     282:	40 40       	sbci	r20, 0x00	; 0
     284:	e1 f7       	brne	.-8      	; 0x27e <.L1^B8>
     286:	00 c0       	rjmp	.+0      	; 0x288 <L0^A>

00000288 <L0^A>:
     288:	00 00       	nop
     28a:	90 93 06 04 	sts	0x0406, r25	; 0x800406 <__RODATA_PM_OFFSET__+0x7f8406>
     28e:	2f e7       	ldi	r18, 0x7F	; 127
     290:	39 ea       	ldi	r19, 0xA9	; 169
     292:	43 e0       	ldi	r20, 0x03	; 3

00000294 <.L1^B9>:
     294:	21 50       	subi	r18, 0x01	; 1
     296:	30 40       	sbci	r19, 0x00	; 0
     298:	40 40       	sbci	r20, 0x00	; 0
     29a:	e1 f7       	brne	.-8      	; 0x294 <.L1^B9>
     29c:	00 c0       	rjmp	.+0      	; 0x29e <L0^A>

0000029e <L0^A>:
     29e:	00 00       	nop
     2a0:	81 11       	cpse	r24, r1
     2a2:	e7 cf       	rjmp	.-50     	; 0x272 <.L43>
     2a4:	08 95       	ret

000002a6 <ntc_read_temp_c16>:
     2a6:	cf 92       	push	r12
     2a8:	df 92       	push	r13
     2aa:	ef 92       	push	r14
     2ac:	ff 92       	push	r15
     2ae:	cf 93       	push	r28
     2b0:	df 93       	push	r29
     2b2:	cd b7       	in	r28, 0x3d	; 61
     2b4:	de b7       	in	r29, 0x3e	; 62
     2b6:	28 97       	sbiw	r28, 0x08	; 8
     2b8:	cd bf       	out	0x3d, r28	; 61
     2ba:	de bf       	out	0x3e, r29	; 62
     2bc:	80 91 00 06 	lds	r24, 0x0600	; 0x800600 <__RODATA_PM_OFFSET__+0x7f8600>
     2c0:	81 60       	ori	r24, 0x01	; 1
     2c2:	80 93 00 06 	sts	0x0600, r24	; 0x800600 <__RODATA_PM_OFFSET__+0x7f8600>
     2c6:	82 e5       	ldi	r24, 0x52	; 82
     2c8:	80 93 02 06 	sts	0x0602, r24	; 0x800602 <__RODATA_PM_OFFSET__+0x7f8602>
     2cc:	80 e2       	ldi	r24, 0x20	; 32
     2ce:	80 93 03 06 	sts	0x0603, r24	; 0x800603 <__RODATA_PM_OFFSET__+0x7f8603>
     2d2:	80 91 00 06 	lds	r24, 0x0600	; 0x800600 <__RODATA_PM_OFFSET__+0x7f8600>
     2d6:	8b 7f       	andi	r24, 0xFB	; 251
     2d8:	80 93 00 06 	sts	0x0600, r24	; 0x800600 <__RODATA_PM_OFFSET__+0x7f8600>
     2dc:	28 e0       	ldi	r18, 0x08	; 8
     2de:	29 83       	std	Y+1, r18	; 0x01
     2e0:	e1 2c       	mov	r14, r1
     2e2:	f1 2c       	mov	r15, r1
     2e4:	67 01       	movw	r12, r14

000002e6 <.L46>:
     2e6:	85 e0       	ldi	r24, 0x05	; 5
     2e8:	0e 94 cf 00 	call	0x19e	; 0x19e <adc_read>
     2ec:	c8 0e       	add	r12, r24
     2ee:	d9 1e       	adc	r13, r25
     2f0:	e1 1c       	adc	r14, r1
     2f2:	f1 1c       	adc	r15, r1
     2f4:	89 81       	ldd	r24, Y+1	; 0x01
     2f6:	81 50       	subi	r24, 0x01	; 1
     2f8:	89 83       	std	Y+1, r24	; 0x01
     2fa:	81 11       	cpse	r24, r1
     2fc:	f4 cf       	rjmp	.-24     	; 0x2e6 <.L46>
     2fe:	83 e0       	ldi	r24, 0x03	; 3

00000300 <.L1^B10>:
     300:	f6 94       	lsr	r15
     302:	e7 94       	ror	r14
     304:	d7 94       	ror	r13
     306:	c7 94       	ror	r12
     308:	8a 95       	dec	r24
     30a:	d1 f7       	brne	.-12     	; 0x300 <.L1^B10>
     30c:	c6 01       	movw	r24, r12
     30e:	89 2b       	or	r24, r25
     310:	09 f4       	brne	.+2      	; 0x314 <L0^A+0x2>

00000312 <L0^A>:
     312:	8d c0       	rjmp	.+282    	; 0x42e <.L52>
     314:	2f ef       	ldi	r18, 0xFF	; 255
     316:	c2 16       	cp	r12, r18
     318:	23 e0       	ldi	r18, 0x03	; 3
     31a:	d2 06       	cpc	r13, r18
     31c:	08 f0       	brcs	.+2      	; 0x320 <L0^A+0x2>

0000031e <L0^A>:
     31e:	8a c0       	rjmp	.+276    	; 0x434 <.L53>
     320:	6f ef       	ldi	r22, 0xFF	; 255
     322:	73 e0       	ldi	r23, 0x03	; 3
     324:	6c 19       	sub	r22, r12
     326:	7d 09       	sbc	r23, r13
     328:	80 e0       	ldi	r24, 0x00	; 0
     32a:	90 e0       	ldi	r25, 0x00	; 0
     32c:	0e 94 d2 0e 	call	0x1da4	; 0x1da4 <__floatunsisf>
     330:	20 e0       	ldi	r18, 0x00	; 0
     332:	30 e4       	ldi	r19, 0x40	; 64
     334:	4c e1       	ldi	r20, 0x1C	; 28
     336:	56 e4       	ldi	r21, 0x46	; 70
     338:	0e 94 2a 0f 	call	0x1e54	; 0x1e54 <__mulsf3>
     33c:	69 83       	std	Y+1, r22	; 0x01
     33e:	7a 83       	std	Y+2, r23	; 0x02
     340:	8b 83       	std	Y+3, r24	; 0x03
     342:	9c 83       	std	Y+4, r25	; 0x04
     344:	b6 01       	movw	r22, r12
     346:	80 e0       	ldi	r24, 0x00	; 0
     348:	90 e0       	ldi	r25, 0x00	; 0
     34a:	0e 94 d2 0e 	call	0x1da4	; 0x1da4 <__floatunsisf>
     34e:	9b 01       	movw	r18, r22
     350:	ac 01       	movw	r20, r24
     352:	69 81       	ldd	r22, Y+1	; 0x01
     354:	7a 81       	ldd	r23, Y+2	; 0x02
     356:	8b 81       	ldd	r24, Y+3	; 0x03
     358:	9c 81       	ldd	r25, Y+4	; 0x04
     35a:	0e 94 ce 0e 	call	0x1d9c	; 0x1d9c <__divsf3>
     35e:	20 e0       	ldi	r18, 0x00	; 0
     360:	30 e4       	ldi	r19, 0x40	; 64
     362:	4c e1       	ldi	r20, 0x1C	; 28
     364:	56 e4       	ldi	r21, 0x46	; 70
     366:	0e 94 ce 0e 	call	0x1d9c	; 0x1d9c <__divsf3>
     36a:	0e 94 07 0d 	call	0x1a0e	; 0x1a0e <logf>
     36e:	20 e0       	ldi	r18, 0x00	; 0
     370:	30 ee       	ldi	r19, 0xE0	; 224
     372:	46 e7       	ldi	r20, 0x76	; 118
     374:	55 e4       	ldi	r21, 0x45	; 69
     376:	0e 94 ce 0e 	call	0x1d9c	; 0x1d9c <__divsf3>
     37a:	2f e0       	ldi	r18, 0x0F	; 15
     37c:	3f ec       	ldi	r19, 0xCF	; 207
     37e:	4b e5       	ldi	r20, 0x5B	; 91
     380:	5b e3       	ldi	r21, 0x3B	; 59
     382:	0e 94 62 0e 	call	0x1cc4	; 0x1cc4 <__addsf3>
     386:	9b 01       	movw	r18, r22
     388:	ac 01       	movw	r20, r24
     38a:	60 e0       	ldi	r22, 0x00	; 0
     38c:	70 e0       	ldi	r23, 0x00	; 0
     38e:	80 e8       	ldi	r24, 0x80	; 128
     390:	9f e3       	ldi	r25, 0x3F	; 63
     392:	0e 94 ce 0e 	call	0x1d9c	; 0x1d9c <__divsf3>
     396:	23 e3       	ldi	r18, 0x33	; 51
     398:	33 e9       	ldi	r19, 0x93	; 147
     39a:	48 e8       	ldi	r20, 0x88	; 136
     39c:	53 e4       	ldi	r21, 0x43	; 67
     39e:	0e 94 61 0e 	call	0x1cc2	; 0x1cc2 <__subsf3>
     3a2:	69 83       	std	Y+1, r22	; 0x01
     3a4:	7a 83       	std	Y+2, r23	; 0x02
     3a6:	8b 83       	std	Y+3, r24	; 0x03
     3a8:	9c 83       	std	Y+4, r25	; 0x04
     3aa:	20 e0       	ldi	r18, 0x00	; 0
     3ac:	30 e0       	ldi	r19, 0x00	; 0
     3ae:	40 e2       	ldi	r20, 0x20	; 32
     3b0:	51 e4       	ldi	r21, 0x41	; 65
     3b2:	0e 94 2a 0f 	call	0x1e54	; 0x1e54 <__mulsf3>
     3b6:	6d 83       	std	Y+5, r22	; 0x05
     3b8:	7e 83       	std	Y+6, r23	; 0x06
     3ba:	8f 83       	std	Y+7, r24	; 0x07
     3bc:	98 87       	std	Y+8, r25	; 0x08
     3be:	40 e0       	ldi	r20, 0x00	; 0
     3c0:	50 e0       	ldi	r21, 0x00	; 0
     3c2:	9a 01       	movw	r18, r20
     3c4:	69 81       	ldd	r22, Y+1	; 0x01
     3c6:	7a 81       	ldd	r23, Y+2	; 0x02
     3c8:	8b 81       	ldd	r24, Y+3	; 0x03
     3ca:	9c 81       	ldd	r25, Y+4	; 0x04
     3cc:	0e 94 8d 0f 	call	0x1f1a	; 0x1f1a <__gesf2>
     3d0:	87 fd       	sbrc	r24, 7
     3d2:	1f c0       	rjmp	.+62     	; 0x412 <.L57>
     3d4:	20 e0       	ldi	r18, 0x00	; 0
     3d6:	30 e0       	ldi	r19, 0x00	; 0
     3d8:	40 e0       	ldi	r20, 0x00	; 0
     3da:	5f e3       	ldi	r21, 0x3F	; 63

000003dc <.L48>:
     3dc:	6d 81       	ldd	r22, Y+5	; 0x05
     3de:	7e 81       	ldd	r23, Y+6	; 0x06
     3e0:	8f 81       	ldd	r24, Y+7	; 0x07
     3e2:	98 85       	ldd	r25, Y+8	; 0x08
     3e4:	0e 94 62 0e 	call	0x1cc4	; 0x1cc4 <__addsf3>
     3e8:	0e 94 33 0f 	call	0x1e66	; 0x1e66 <__fixsfsi>
     3ec:	69 35       	cpi	r22, 0x59	; 89
     3ee:	22 e0       	ldi	r18, 0x02	; 2
     3f0:	72 07       	cpc	r23, r18
     3f2:	81 05       	cpc	r24, r1
     3f4:	91 05       	cpc	r25, r1
     3f6:	94 f0       	brlt	.+36     	; 0x41c <.L50>
     3f8:	68 e5       	ldi	r22, 0x58	; 88
     3fa:	72 e0       	ldi	r23, 0x02	; 2

000003fc <.L51>:
     3fc:	cb 01       	movw	r24, r22

000003fe <.L45>:
     3fe:	28 96       	adiw	r28, 0x08	; 8
     400:	cd bf       	out	0x3d, r28	; 61
     402:	de bf       	out	0x3e, r29	; 62
     404:	df 91       	pop	r29
     406:	cf 91       	pop	r28
     408:	ff 90       	pop	r15
     40a:	ef 90       	pop	r14
     40c:	df 90       	pop	r13
     40e:	cf 90       	pop	r12
     410:	08 95       	ret

00000412 <.L57>:
     412:	20 e0       	ldi	r18, 0x00	; 0
     414:	30 e0       	ldi	r19, 0x00	; 0
     416:	40 e0       	ldi	r20, 0x00	; 0
     418:	5f eb       	ldi	r21, 0xBF	; 191
     41a:	e0 cf       	rjmp	.-64     	; 0x3dc <.L48>

0000041c <.L50>:
     41c:	68 33       	cpi	r22, 0x38	; 56
     41e:	2f ef       	ldi	r18, 0xFF	; 255
     420:	72 07       	cpc	r23, r18
     422:	82 07       	cpc	r24, r18
     424:	92 07       	cpc	r25, r18
     426:	54 f7       	brge	.-44     	; 0x3fc <.L51>
     428:	68 e3       	ldi	r22, 0x38	; 56
     42a:	7f ef       	ldi	r23, 0xFF	; 255
     42c:	e7 cf       	rjmp	.-50     	; 0x3fc <.L51>

0000042e <.L52>:
     42e:	88 e3       	ldi	r24, 0x38	; 56
     430:	9f ef       	ldi	r25, 0xFF	; 255
     432:	e5 cf       	rjmp	.-54     	; 0x3fe <.L45>

00000434 <.L53>:
     434:	88 e5       	ldi	r24, 0x58	; 88
     436:	92 e0       	ldi	r25, 0x02	; 2
     438:	e2 cf       	rjmp	.-60     	; 0x3fe <.L45>

0000043a <measure_once_ticks>:
     43a:	2f 92       	push	r2
     43c:	3f 92       	push	r3
     43e:	4f 92       	push	r4
     440:	5f 92       	push	r5
     442:	6f 92       	push	r6
     444:	7f 92       	push	r7
     446:	8f 92       	push	r8
     448:	9f 92       	push	r9
     44a:	af 92       	push	r10
     44c:	bf 92       	push	r11
     44e:	cf 92       	push	r12
     450:	df 92       	push	r13
     452:	ef 92       	push	r14
     454:	ff 92       	push	r15
     456:	0f 93       	push	r16
     458:	1f 93       	push	r17
     45a:	cf 93       	push	r28
     45c:	df 93       	push	r29
     45e:	cd b7       	in	r28, 0x3d	; 61
     460:	de b7       	in	r29, 0x3e	; 62
     462:	a5 97       	sbiw	r28, 0x25	; 37
     464:	cd bf       	out	0x3d, r28	; 61
     466:	de bf       	out	0x3e, r29	; 62
     468:	89 83       	std	Y+1, r24	; 0x01
     46a:	81 e5       	ldi	r24, 0x51	; 81
     46c:	80 93 02 06 	sts	0x0602, r24	; 0x800602 <__RODATA_PM_OFFSET__+0x7f8602>
     470:	10 92 03 06 	sts	0x0603, r1	; 0x800603 <__RODATA_PM_OFFSET__+0x7f8603>
     474:	80 91 00 06 	lds	r24, 0x0600	; 0x800600 <__RODATA_PM_OFFSET__+0x7f8600>
     478:	84 60       	ori	r24, 0x04	; 4
     47a:	80 93 00 06 	sts	0x0600, r24	; 0x800600 <__RODATA_PM_OFFSET__+0x7f8600>
     47e:	89 e0       	ldi	r24, 0x09	; 9
     480:	0e 94 cf 00 	call	0x19e	; 0x19e <adc_read>
     484:	80 93 5f 39 	sts	0x395F, r24	; 0x80395f <echo_baseline>
     488:	90 93 60 39 	sts	0x3960, r25	; 0x803960 <echo_baseline+0x1>
     48c:	81 e0       	ldi	r24, 0x01	; 1
     48e:	80 93 26 04 	sts	0x0426, r24	; 0x800426 <__RODATA_PM_OFFSET__+0x7f8426>
     492:	10 92 4a 0a 	sts	0x0A4A, r1	; 0x800a4a <__RODATA_PM_OFFSET__+0x7f8a4a>
     496:	10 92 4b 0a 	sts	0x0A4B, r1	; 0x800a4b <__RODATA_PM_OFFSET__+0x7f8a4b>

0000049a <.L59>:
     49a:	29 81       	ldd	r18, Y+1	; 0x01
     49c:	21 50       	subi	r18, 0x01	; 1
     49e:	29 83       	std	Y+1, r18	; 0x01
     4a0:	80 93 25 04 	sts	0x0425, r24	; 0x800425 <__RODATA_PM_OFFSET__+0x7f8425>
     4a4:	49 e2       	ldi	r20, 0x29	; 41

000004a6 <.L1^B11>:
     4a6:	4a 95       	dec	r20
     4a8:	f1 f7       	brne	.-4      	; 0x4a6 <.L1^B11>
     4aa:	00 c0       	rjmp	.+0      	; 0x4ac <L0^A>

000004ac <L0^A>:
     4ac:	80 93 26 04 	sts	0x0426, r24	; 0x800426 <__RODATA_PM_OFFSET__+0x7f8426>
     4b0:	59 e2       	ldi	r21, 0x29	; 41

000004b2 <.L1^B12>:
     4b2:	5a 95       	dec	r21
     4b4:	f1 f7       	brne	.-4      	; 0x4b2 <.L1^B12>
     4b6:	00 c0       	rjmp	.+0      	; 0x4b8 <L0^A>

000004b8 <L0^A>:
     4b8:	21 11       	cpse	r18, r1
     4ba:	ef cf       	rjmp	.-34     	; 0x49a <.L59>
     4bc:	80 93 26 04 	sts	0x0426, r24	; 0x800426 <__RODATA_PM_OFFSET__+0x7f8426>
     4c0:	8d ee       	ldi	r24, 0xED	; 237
     4c2:	92 e0       	ldi	r25, 0x02	; 2

000004c4 <.L1^B13>:
     4c4:	01 97       	sbiw	r24, 0x01	; 1
     4c6:	f1 f7       	brne	.-4      	; 0x4c4 <.L1^B13>
     4c8:	00 c0       	rjmp	.+0      	; 0x4ca <L0^A>

000004ca <L0^A>:
     4ca:	00 00       	nop
     4cc:	89 e0       	ldi	r24, 0x09	; 9
     4ce:	80 93 06 06 	sts	0x0606, r24	; 0x800606 <__RODATA_PM_OFFSET__+0x7f8606>
     4d2:	a0 90 4a 0a 	lds	r10, 0x0A4A	; 0x800a4a <__RODATA_PM_OFFSET__+0x7f8a4a>
     4d6:	b0 90 4b 0a 	lds	r11, 0x0A4B	; 0x800a4b <__RODATA_PM_OFFSET__+0x7f8a4b>
     4da:	2f e5       	ldi	r18, 0x5F	; 95
     4dc:	39 e3       	ldi	r19, 0x39	; 57
     4de:	ef e1       	ldi	r30, 0x1F	; 31
     4e0:	f8 e3       	ldi	r31, 0x38	; 56
     4e2:	81 e0       	ldi	r24, 0x01	; 1

000004e4 <.L61>:
     4e4:	80 93 0b 06 	sts	0x060B, r24	; 0x80060b <__RODATA_PM_OFFSET__+0x7f860b>
     4e8:	80 93 08 06 	sts	0x0608, r24	; 0x800608 <__RODATA_PM_OFFSET__+0x7f8608>

000004ec <.L60>:
     4ec:	90 91 0b 06 	lds	r25, 0x060B	; 0x80060b <__RODATA_PM_OFFSET__+0x7f860b>
     4f0:	90 ff       	sbrs	r25, 0
     4f2:	fc cf       	rjmp	.-8      	; 0x4ec <.L60>
     4f4:	40 91 10 06 	lds	r20, 0x0610	; 0x800610 <__RODATA_PM_OFFSET__+0x7f8610>
     4f8:	50 91 11 06 	lds	r21, 0x0611	; 0x800611 <__RODATA_PM_OFFSET__+0x7f8611>
     4fc:	41 93       	st	Z+, r20
     4fe:	2e 17       	cp	r18, r30
     500:	3f 07       	cpc	r19, r31
     502:	81 f7       	brne	.-32     	; 0x4e4 <.L61>
     504:	80 90 4a 0a 	lds	r8, 0x0A4A	; 0x800a4a <__RODATA_PM_OFFSET__+0x7f8a4a>
     508:	90 90 4b 0a 	lds	r9, 0x0A4B	; 0x800a4b <__RODATA_PM_OFFSET__+0x7f8a4b>
     50c:	a0 92 1d 38 	sts	0x381D, r10	; 0x80381d <echo_start_ticks>
     510:	b0 92 1e 38 	sts	0x381E, r11	; 0x80381e <echo_start_ticks+0x1>
     514:	8a 18       	sub	r8, r10
     516:	9b 08       	sbc	r9, r11
     518:	80 92 1b 38 	sts	0x381B, r8	; 0x80381b <echo_total_ticks>
     51c:	90 92 1c 38 	sts	0x381C, r9	; 0x80381c <echo_total_ticks+0x1>
     520:	10 92 1a 38 	sts	0x381A, r1	; 0x80381a <g_phase_ok>
     524:	20 90 5f 39 	lds	r2, 0x395F	; 0x80395f <echo_baseline>
     528:	30 90 60 39 	lds	r3, 0x3960	; 0x803960 <echo_baseline+0x1>
     52c:	ef e1       	ldi	r30, 0x1F	; 31
     52e:	f8 e3       	ldi	r31, 0x38	; 56
     530:	80 e0       	ldi	r24, 0x00	; 0
     532:	90 e0       	ldi	r25, 0x00	; 0
     534:	7c 01       	movw	r14, r24
     536:	97 01       	movw	r18, r14

00000538 <.L64>:
     538:	61 91       	ld	r22, Z+
     53a:	70 e0       	ldi	r23, 0x00	; 0
     53c:	ab 01       	movw	r20, r22
     53e:	42 19       	sub	r20, r2
     540:	53 09       	sbc	r21, r3
     542:	1a f4       	brpl	.+6      	; 0x54a <.L62>
     544:	a1 01       	movw	r20, r2
     546:	46 1b       	sub	r20, r22
     548:	57 0b       	sbc	r21, r23

0000054a <.L62>:
     54a:	24 17       	cp	r18, r20
     54c:	35 07       	cpc	r19, r21
     54e:	14 f4       	brge	.+4      	; 0x554 <.L63>
     550:	9a 01       	movw	r18, r20
     552:	7c 01       	movw	r14, r24

00000554 <.L63>:
     554:	01 96       	adiw	r24, 0x01	; 1
     556:	80 34       	cpi	r24, 0x40	; 64
     558:	41 e0       	ldi	r20, 0x01	; 1
     55a:	94 07       	cpc	r25, r20
     55c:	69 f7       	brne	.-38     	; 0x538 <.L64>
     55e:	e0 92 18 38 	sts	0x3818, r14	; 0x803818 <echo_peak_idx>
     562:	f0 92 19 38 	sts	0x3819, r15	; 0x803819 <echo_peak_idx+0x1>
     566:	20 93 16 38 	sts	0x3816, r18	; 0x803816 <diag_peak>
     56a:	30 93 17 38 	sts	0x3817, r19	; 0x803817 <diag_peak+0x1>
     56e:	26 30       	cpi	r18, 0x06	; 6
     570:	31 05       	cpc	r19, r1
     572:	08 f4       	brcc	.+2      	; 0x576 <L0^A+0x2>

00000574 <L0^A>:
     574:	2b c2       	rjmp	.+1110   	; 0x9cc <.L82>
     576:	a8 e2       	ldi	r26, 0x28	; 40
     578:	b0 e0       	ldi	r27, 0x00	; 0
     57a:	0e 94 9a 0f 	call	0x1f34	; 0x1f34 <__umulhisi3>
     57e:	24 e6       	ldi	r18, 0x64	; 100
     580:	30 e0       	ldi	r19, 0x00	; 0
     582:	40 e0       	ldi	r20, 0x00	; 0
     584:	50 e0       	ldi	r21, 0x00	; 0
     586:	0e 94 e1 0f 	call	0x1fc2	; 0x1fc2 <__udivmodsi4>
     58a:	25 30       	cpi	r18, 0x05	; 5
     58c:	31 05       	cpc	r19, r1
     58e:	14 f4       	brge	.+4      	; 0x594 <.L66>
     590:	25 e0       	ldi	r18, 0x05	; 5
     592:	30 e0       	ldi	r19, 0x00	; 0

00000594 <.L66>:
     594:	ef e1       	ldi	r30, 0x1F	; 31
     596:	f8 e3       	ldi	r31, 0x38	; 56
     598:	00 e0       	ldi	r16, 0x00	; 0
     59a:	10 e0       	ldi	r17, 0x00	; 0
     59c:	c8 01       	movw	r24, r16

0000059e <.L74>:
     59e:	6c 01       	movw	r12, r24
     5a0:	80 81       	ld	r24, Z
     5a2:	90 e0       	ldi	r25, 0x00	; 0
     5a4:	ac 01       	movw	r20, r24
     5a6:	42 19       	sub	r20, r2
     5a8:	53 09       	sbc	r21, r3
     5aa:	4d 83       	std	Y+5, r20	; 0x05
     5ac:	5e 83       	std	Y+6, r21	; 0x06
     5ae:	57 ff       	sbrs	r21, 7
     5b0:	05 c0       	rjmp	.+10     	; 0x5bc <.L67>
     5b2:	a1 01       	movw	r20, r2
     5b4:	48 1b       	sub	r20, r24
     5b6:	59 0b       	sbc	r21, r25
     5b8:	4d 83       	std	Y+5, r20	; 0x05
     5ba:	5e 83       	std	Y+6, r21	; 0x06

000005bc <.L67>:
     5bc:	8d 81       	ldd	r24, Y+5	; 0x05
     5be:	9e 81       	ldd	r25, Y+6	; 0x06
     5c0:	4d 81       	ldd	r20, Y+5	; 0x05
     5c2:	5e 81       	ldd	r21, Y+6	; 0x06
     5c4:	42 17       	cp	r20, r18
     5c6:	53 07       	cpc	r21, r19
     5c8:	0c f4       	brge	.+2      	; 0x5cc <L0^A+0x2>

000005ca <L0^A>:
     5ca:	f9 c1       	rjmp	.+1010   	; 0x9be <.L68>
     5cc:	01 15       	cp	r16, r1
     5ce:	11 05       	cpc	r17, r1
     5d0:	09 f4       	brne	.+2      	; 0x5d4 <.Lname193>

000005d2 <L0^A>:
     5d2:	f0 c1       	rjmp	.+992    	; 0x9b4 <.L81>
     5d4:	c4 16       	cp	r12, r20
     5d6:	d5 06       	cpc	r13, r21
     5d8:	0c f0       	brlt	.+2      	; 0x5dc <L0^A+0x2>

000005da <L0^A>:
     5da:	ec c1       	rjmp	.+984    	; 0x9b4 <.L81>
     5dc:	b9 01       	movw	r22, r18
     5de:	6c 19       	sub	r22, r12
     5e0:	7d 09       	sbc	r23, r13
     5e2:	87 2f       	mov	r24, r23
     5e4:	88 0f       	add	r24, r24
     5e6:	88 0b       	sbc	r24, r24
     5e8:	98 2f       	mov	r25, r24
     5ea:	0e 94 d4 0e 	call	0x1da8	; 0x1da8 <__floatsisf>
     5ee:	69 83       	std	Y+1, r22	; 0x01
     5f0:	7a 83       	std	Y+2, r23	; 0x02
     5f2:	8b 83       	std	Y+3, r24	; 0x03
     5f4:	9c 83       	std	Y+4, r25	; 0x04
     5f6:	6d 81       	ldd	r22, Y+5	; 0x05
     5f8:	7e 81       	ldd	r23, Y+6	; 0x06
     5fa:	6c 19       	sub	r22, r12
     5fc:	7d 09       	sbc	r23, r13
     5fe:	87 2f       	mov	r24, r23
     600:	88 0f       	add	r24, r24
     602:	88 0b       	sbc	r24, r24
     604:	98 2f       	mov	r25, r24
     606:	0e 94 d4 0e 	call	0x1da8	; 0x1da8 <__floatsisf>
     60a:	9b 01       	movw	r18, r22
     60c:	ac 01       	movw	r20, r24
     60e:	69 81       	ldd	r22, Y+1	; 0x01
     610:	7a 81       	ldd	r23, Y+2	; 0x02
     612:	8b 81       	ldd	r24, Y+3	; 0x03
     614:	9c 81       	ldd	r25, Y+4	; 0x04
     616:	0e 94 ce 0e 	call	0x1d9c	; 0x1d9c <__divsf3>
     61a:	6b 01       	movw	r12, r22
     61c:	8d 83       	std	Y+5, r24	; 0x05
     61e:	99 83       	std	Y+1, r25	; 0x01

00000620 <.L69>:
     620:	b8 01       	movw	r22, r16
     622:	61 50       	subi	r22, 0x01	; 1
     624:	71 09       	sbc	r23, r1
     626:	87 2f       	mov	r24, r23
     628:	88 0f       	add	r24, r24
     62a:	88 0b       	sbc	r24, r24
     62c:	98 2f       	mov	r25, r24
     62e:	0e 94 d4 0e 	call	0x1da8	; 0x1da8 <__floatsisf>
     632:	96 01       	movw	r18, r12
     634:	4d 81       	ldd	r20, Y+5	; 0x05
     636:	59 81       	ldd	r21, Y+1	; 0x01
     638:	0e 94 62 0e 	call	0x1cc4	; 0x1cc4 <__addsf3>
     63c:	8b 01       	movw	r16, r22
     63e:	89 87       	std	Y+9, r24	; 0x09
     640:	9d 83       	std	Y+5, r25	; 0x05
     642:	b4 01       	movw	r22, r8
     644:	80 e0       	ldi	r24, 0x00	; 0
     646:	90 e0       	ldi	r25, 0x00	; 0
     648:	0e 94 d2 0e 	call	0x1da4	; 0x1da4 <__floatunsisf>
     64c:	69 83       	std	Y+1, r22	; 0x01
     64e:	7a 83       	std	Y+2, r23	; 0x02
     650:	8b 83       	std	Y+3, r24	; 0x03
     652:	9c 83       	std	Y+4, r25	; 0x04
     654:	20 e0       	ldi	r18, 0x00	; 0
     656:	30 e0       	ldi	r19, 0x00	; 0
     658:	40 ea       	ldi	r20, 0xA0	; 160
     65a:	53 e4       	ldi	r21, 0x43	; 67
     65c:	0e 94 ce 0e 	call	0x1d9c	; 0x1d9c <__divsf3>
     660:	69 8b       	std	Y+17, r22	; 0x11
     662:	7a 8b       	std	Y+18, r23	; 0x12
     664:	8b 8b       	std	Y+19, r24	; 0x13
     666:	9c 8b       	std	Y+20, r25	; 0x14
     668:	40 e0       	ldi	r20, 0x00	; 0
     66a:	50 e0       	ldi	r21, 0x00	; 0
     66c:	9a 01       	movw	r18, r20
     66e:	b8 01       	movw	r22, r16
     670:	89 85       	ldd	r24, Y+9	; 0x09
     672:	9d 81       	ldd	r25, Y+5	; 0x05
     674:	0e 94 2e 0f 	call	0x1e5c	; 0x1e5c <__cmpsf2>
     678:	87 ff       	sbrs	r24, 7
     67a:	04 c0       	rjmp	.+8      	; 0x684 <.L71>
     67c:	00 e0       	ldi	r16, 0x00	; 0
     67e:	10 e0       	ldi	r17, 0x00	; 0
     680:	19 86       	std	Y+9, r1	; 0x09
     682:	1d 82       	std	Y+5, r1	; 0x05

00000684 <.L71>:
     684:	29 89       	ldd	r18, Y+17	; 0x11
     686:	3a 89       	ldd	r19, Y+18	; 0x12
     688:	4b 89       	ldd	r20, Y+19	; 0x13
     68a:	5c 89       	ldd	r21, Y+20	; 0x14
     68c:	b8 01       	movw	r22, r16
     68e:	89 85       	ldd	r24, Y+9	; 0x09
     690:	9d 81       	ldd	r25, Y+5	; 0x05
     692:	0e 94 2a 0f 	call	0x1e54	; 0x1e54 <__mulsf3>
     696:	20 e0       	ldi	r18, 0x00	; 0
     698:	30 e0       	ldi	r19, 0x00	; 0
     69a:	40 e0       	ldi	r20, 0x00	; 0
     69c:	5f e3       	ldi	r21, 0x3F	; 63
     69e:	0e 94 62 0e 	call	0x1cc4	; 0x1cc4 <__addsf3>
     6a2:	0e 94 3a 0f 	call	0x1e74	; 0x1e74 <__fixunssfsi>
     6a6:	85 01       	movw	r16, r10
     6a8:	20 e0       	ldi	r18, 0x00	; 0
     6aa:	30 e0       	ldi	r19, 0x00	; 0
     6ac:	dc 01       	movw	r26, r24
     6ae:	cb 01       	movw	r24, r22
     6b0:	8a 0d       	add	r24, r10
     6b2:	9b 1d       	adc	r25, r11
     6b4:	a1 1d       	adc	r26, r1
     6b6:	b1 1d       	adc	r27, r1
     6b8:	2c 01       	movw	r4, r24
     6ba:	3d 01       	movw	r6, r26
     6bc:	58 eb       	ldi	r21, 0xB8	; 184
     6be:	45 1a       	sub	r4, r21
     6c0:	5b e0       	ldi	r21, 0x0B	; 11
     6c2:	55 0a       	sbc	r5, r21
     6c4:	61 08       	sbc	r6, r1
     6c6:	71 08       	sbc	r7, r1
     6c8:	a8 a2       	std	Y+32, r10	; 0x20
     6ca:	19 a3       	std	Y+33, r17	; 0x21
     6cc:	1a a2       	std	Y+34, r1	; 0x22
     6ce:	1b a2       	std	Y+35, r1	; 0x23
     6d0:	e9 e8       	ldi	r30, 0x89	; 137
     6d2:	4e 16       	cp	r4, r30
     6d4:	e0 e9       	ldi	r30, 0x90	; 144
     6d6:	5e 06       	cpc	r5, r30
     6d8:	61 04       	cpc	r6, r1
     6da:	71 04       	cpc	r7, r1
     6dc:	08 f0       	brcs	.+2      	; 0x6e0 <L0^A+0x2>

000006de <L0^A>:
     6de:	76 c1       	rjmp	.+748    	; 0x9cc <.L82>
     6e0:	5c 01       	movw	r10, r24
     6e2:	89 28       	or	r8, r9
     6e4:	09 f4       	brne	.+2      	; 0x6e8 <L0^A+0x2>

000006e6 <L0^A>:
     6e6:	4f c1       	rjmp	.+670    	; 0x986 <.L58>
     6e8:	40 e2       	ldi	r20, 0x20	; 32
     6ea:	51 e4       	ldi	r21, 0x41	; 65
     6ec:	69 81       	ldd	r22, Y+1	; 0x01
     6ee:	7a 81       	ldd	r23, Y+2	; 0x02
     6f0:	8b 81       	ldd	r24, Y+3	; 0x03
     6f2:	9c 81       	ldd	r25, Y+4	; 0x04
     6f4:	0e 94 ce 0e 	call	0x1d9c	; 0x1d9c <__divsf3>
     6f8:	20 e0       	ldi	r18, 0x00	; 0
     6fa:	30 e0       	ldi	r19, 0x00	; 0
     6fc:	40 ea       	ldi	r20, 0xA0	; 160
     6fe:	53 e4       	ldi	r21, 0x43	; 67
     700:	0e 94 ce 0e 	call	0x1d9c	; 0x1d9c <__divsf3>
     704:	69 83       	std	Y+1, r22	; 0x01
     706:	7a 83       	std	Y+2, r23	; 0x02
     708:	8b 83       	std	Y+3, r24	; 0x03
     70a:	9c 83       	std	Y+4, r25	; 0x04
     70c:	20 e0       	ldi	r18, 0x00	; 0
     70e:	30 e0       	ldi	r19, 0x00	; 0
     710:	40 e8       	ldi	r20, 0x80	; 128
     712:	5f e3       	ldi	r21, 0x3F	; 63
     714:	0e 94 2e 0f 	call	0x1e5c	; 0x1e5c <__cmpsf2>
     718:	87 fd       	sbrc	r24, 7
     71a:	35 c1       	rjmp	.+618    	; 0x986 <.L58>
     71c:	2b ed       	ldi	r18, 0xDB	; 219
     71e:	3f e6       	ldi	r19, 0x6F	; 111
     720:	45 e7       	ldi	r20, 0x75	; 117
     722:	58 e4       	ldi	r21, 0x48	; 72
     724:	69 81       	ldd	r22, Y+1	; 0x01
     726:	7a 81       	ldd	r23, Y+2	; 0x02
     728:	8b 81       	ldd	r24, Y+3	; 0x03
     72a:	9c 81       	ldd	r25, Y+4	; 0x04
     72c:	0e 94 2a 0f 	call	0x1e54	; 0x1e54 <__mulsf3>
     730:	2d eb       	ldi	r18, 0xBD	; 189
     732:	37 e3       	ldi	r19, 0x37	; 55
     734:	46 e8       	ldi	r20, 0x86	; 134
     736:	55 e3       	ldi	r21, 0x35	; 53
     738:	0e 94 2a 0f 	call	0x1e54	; 0x1e54 <__mulsf3>
     73c:	69 83       	std	Y+1, r22	; 0x01
     73e:	7a 83       	std	Y+2, r23	; 0x02
     740:	8b 83       	std	Y+3, r24	; 0x03
     742:	9c 83       	std	Y+4, r25	; 0x04
     744:	28 ea       	ldi	r18, 0xA8	; 168
     746:	3c ed       	ldi	r19, 0xDC	; 220
     748:	45 ec       	ldi	r20, 0xC5	; 197
     74a:	50 e4       	ldi	r21, 0x40	; 64
     74c:	0e 94 8d 0f 	call	0x1f1a	; 0x1f1a <__gesf2>
     750:	18 16       	cp	r1, r24
     752:	0c f4       	brge	.+2      	; 0x756 <L0^A+0x2>

00000754 <L0^A>:
     754:	18 c1       	rjmp	.+560    	; 0x986 <.L58>
     756:	27 01       	movw	r4, r14
     758:	61 2c       	mov	r6, r1
     75a:	71 2c       	mov	r7, r1
     75c:	f8 e1       	ldi	r31, 0x18	; 24
     75e:	4f 1a       	sub	r4, r31
     760:	51 08       	sbc	r5, r1
     762:	61 08       	sbc	r6, r1
     764:	71 08       	sbc	r7, r1
     766:	21 e1       	ldi	r18, 0x11	; 17
     768:	42 16       	cp	r4, r18
     76a:	21 e0       	ldi	r18, 0x01	; 1
     76c:	52 06       	cpc	r5, r18
     76e:	61 04       	cpc	r6, r1
     770:	71 04       	cpc	r7, r1
     772:	0c f4       	brge	.+2      	; 0x776 <L0^A+0x2>

00000774 <L0^A>:
     774:	2e c1       	rjmp	.+604    	; 0x9d2 <.L76>
     776:	80 e1       	ldi	r24, 0x10	; 16
     778:	48 2e       	mov	r4, r24
     77a:	81 e0       	ldi	r24, 0x01	; 1
     77c:	58 2e       	mov	r5, r24
     77e:	61 2c       	mov	r6, r1
     780:	71 2c       	mov	r7, r1

00000782 <.L77>:
     782:	69 81       	ldd	r22, Y+1	; 0x01
     784:	7a 81       	ldd	r23, Y+2	; 0x02
     786:	8b 81       	ldd	r24, Y+3	; 0x03
     788:	9c 81       	ldd	r25, Y+4	; 0x04
     78a:	0e 94 75 0b 	call	0x16ea	; 0x16ea <cosf>
     78e:	6d 87       	std	Y+13, r22	; 0x0d
     790:	7e 87       	std	Y+14, r23	; 0x0e
     792:	8f 87       	std	Y+15, r24	; 0x0f
     794:	98 8b       	std	Y+16, r25	; 0x10
     796:	69 81       	ldd	r22, Y+1	; 0x01
     798:	7a 81       	ldd	r23, Y+2	; 0x02
     79a:	8b 81       	ldd	r24, Y+3	; 0x03
     79c:	9c 81       	ldd	r25, Y+4	; 0x04
     79e:	0e 94 0f 0e 	call	0x1c1e	; 0x1c1e <sinf>
     7a2:	68 8f       	std	Y+24, r22	; 0x18
     7a4:	79 8f       	std	Y+25, r23	; 0x19
     7a6:	8a 8f       	std	Y+26, r24	; 0x1a
     7a8:	9b 8f       	std	Y+27, r25	; 0x1b
     7aa:	2d 85       	ldd	r18, Y+13	; 0x0d
     7ac:	3e 85       	ldd	r19, Y+14	; 0x0e
     7ae:	4f 85       	ldd	r20, Y+15	; 0x0f
     7b0:	58 89       	ldd	r21, Y+16	; 0x10
     7b2:	b9 01       	movw	r22, r18
     7b4:	ca 01       	movw	r24, r20
     7b6:	0e 94 62 0e 	call	0x1cc4	; 0x1cc4 <__addsf3>
     7ba:	6c 8f       	std	Y+28, r22	; 0x1c
     7bc:	7d 8f       	std	Y+29, r23	; 0x1d
     7be:	8e 8f       	std	Y+30, r24	; 0x1e
     7c0:	9f 8f       	std	Y+31, r25	; 0x1f
     7c2:	a2 01       	movw	r20, r4
     7c4:	41 5e       	subi	r20, 0xE1	; 225
     7c6:	57 4c       	sbci	r21, 0xC7	; 199
     7c8:	4d 8b       	std	Y+21, r20	; 0x15
     7ca:	5e 8b       	std	Y+22, r21	; 0x16
     7cc:	00 e0       	ldi	r16, 0x00	; 0
     7ce:	10 e0       	ldi	r17, 0x00	; 0
     7d0:	1d a2       	std	Y+37, r1	; 0x25
     7d2:	1c a2       	std	Y+36, r1	; 0x24
     7d4:	48 01       	movw	r8, r16
     7d6:	19 82       	std	Y+1, r1	; 0x01
     7d8:	1d 82       	std	Y+5, r1	; 0x05
     7da:	74 01       	movw	r14, r8

000007dc <.L78>:
     7dc:	ed 89       	ldd	r30, Y+21	; 0x15
     7de:	fe 89       	ldd	r31, Y+22	; 0x16
     7e0:	61 91       	ld	r22, Z+
     7e2:	ed 8b       	std	Y+21, r30	; 0x15
     7e4:	fe 8b       	std	Y+22, r31	; 0x16
     7e6:	70 e0       	ldi	r23, 0x00	; 0
     7e8:	62 19       	sub	r22, r2
     7ea:	73 09       	sbc	r23, r3
     7ec:	87 2f       	mov	r24, r23
     7ee:	88 0f       	add	r24, r24
     7f0:	88 0b       	sbc	r24, r24
     7f2:	98 2f       	mov	r25, r24
     7f4:	0e 94 d4 0e 	call	0x1da8	; 0x1da8 <__floatsisf>
     7f8:	69 87       	std	Y+9, r22	; 0x09
     7fa:	7a 87       	std	Y+10, r23	; 0x0a
     7fc:	8b 87       	std	Y+11, r24	; 0x0b
     7fe:	9c 87       	std	Y+12, r25	; 0x0c
     800:	94 01       	movw	r18, r8
     802:	49 81       	ldd	r20, Y+1	; 0x01
     804:	5d 81       	ldd	r21, Y+5	; 0x05
     806:	6c 8d       	ldd	r22, Y+28	; 0x1c
     808:	7d 8d       	ldd	r23, Y+29	; 0x1d
     80a:	8e 8d       	ldd	r24, Y+30	; 0x1e
     80c:	9f 8d       	ldd	r25, Y+31	; 0x1f
     80e:	0e 94 2a 0f 	call	0x1e54	; 0x1e54 <__mulsf3>
     812:	9b 01       	movw	r18, r22
     814:	ac 01       	movw	r20, r24
     816:	69 85       	ldd	r22, Y+9	; 0x09
     818:	7a 85       	ldd	r23, Y+10	; 0x0a
     81a:	8b 85       	ldd	r24, Y+11	; 0x0b
     81c:	9c 85       	ldd	r25, Y+12	; 0x0c
     81e:	0e 94 62 0e 	call	0x1cc4	; 0x1cc4 <__addsf3>
     822:	98 01       	movw	r18, r16
     824:	4d a1       	ldd	r20, Y+37	; 0x25
     826:	5c a1       	ldd	r21, Y+36	; 0x24
     828:	0e 94 61 0e 	call	0x1cc2	; 0x1cc2 <__subsf3>
     82c:	6b 01       	movw	r12, r22
     82e:	89 87       	std	Y+9, r24	; 0x09
     830:	9f 8b       	std	Y+23, r25	; 0x17
     832:	ff ef       	ldi	r31, 0xFF	; 255
     834:	ef 1a       	sub	r14, r31
     836:	ff 0a       	sbc	r15, r31
     838:	84 01       	movw	r16, r8
     83a:	29 81       	ldd	r18, Y+1	; 0x01
     83c:	2d a3       	std	Y+37, r18	; 0x25
     83e:	4d 81       	ldd	r20, Y+5	; 0x05
     840:	4c a3       	std	Y+36, r20	; 0x24
     842:	50 e3       	ldi	r21, 0x30	; 48
     844:	e5 16       	cp	r14, r21
     846:	f1 04       	cpc	r15, r1
     848:	09 f0       	breq	.+2      	; 0x84c <L0^A+0x2>

0000084a <L0^A>:
     84a:	c9 c0       	rjmp	.+402    	; 0x9de <.L83>
     84c:	2c 8f       	std	Y+28, r18	; 0x1c
     84e:	4d 8b       	std	Y+21, r20	; 0x15
     850:	94 01       	movw	r18, r8
     852:	4c 8d       	ldd	r20, Y+28	; 0x1c
     854:	5d 89       	ldd	r21, Y+21	; 0x15
     856:	6d 85       	ldd	r22, Y+13	; 0x0d
     858:	7e 85       	ldd	r23, Y+14	; 0x0e
     85a:	8f 85       	ldd	r24, Y+15	; 0x0f
     85c:	98 89       	ldd	r25, Y+16	; 0x10
     85e:	0e 94 2a 0f 	call	0x1e54	; 0x1e54 <__mulsf3>
     862:	9b 01       	movw	r18, r22
     864:	ac 01       	movw	r20, r24
     866:	b6 01       	movw	r22, r12
     868:	89 85       	ldd	r24, Y+9	; 0x09
     86a:	9f 89       	ldd	r25, Y+23	; 0x17
     86c:	0e 94 61 0e 	call	0x1cc2	; 0x1cc2 <__subsf3>
     870:	6b 01       	movw	r12, r22
     872:	7c 01       	movw	r14, r24
     874:	94 01       	movw	r18, r8
     876:	4c 8d       	ldd	r20, Y+28	; 0x1c
     878:	5d 89       	ldd	r21, Y+21	; 0x15
     87a:	68 8d       	ldd	r22, Y+24	; 0x18
     87c:	79 8d       	ldd	r23, Y+25	; 0x19
     87e:	8a 8d       	ldd	r24, Y+26	; 0x1a
     880:	9b 8d       	ldd	r25, Y+27	; 0x1b
     882:	0e 94 2a 0f 	call	0x1e54	; 0x1e54 <__mulsf3>
     886:	96 01       	movw	r18, r12
     888:	a7 01       	movw	r20, r14
     88a:	0e 94 16 0b 	call	0x162c	; 0x162c <atan2f>
     88e:	69 83       	std	Y+1, r22	; 0x01
     890:	7a 83       	std	Y+2, r23	; 0x02
     892:	8b 83       	std	Y+3, r24	; 0x03
     894:	9c 83       	std	Y+4, r25	; 0x04
     896:	b2 01       	movw	r22, r4
     898:	c3 01       	movw	r24, r6
     89a:	0e 94 d4 0e 	call	0x1da8	; 0x1da8 <__floatsisf>
     89e:	29 89       	ldd	r18, Y+17	; 0x11
     8a0:	3a 89       	ldd	r19, Y+18	; 0x12
     8a2:	4b 89       	ldd	r20, Y+19	; 0x13
     8a4:	5c 89       	ldd	r21, Y+20	; 0x14
     8a6:	0e 94 2a 0f 	call	0x1e54	; 0x1e54 <__mulsf3>
     8aa:	6d 83       	std	Y+5, r22	; 0x05
     8ac:	7e 83       	std	Y+6, r23	; 0x06
     8ae:	8f 83       	std	Y+7, r24	; 0x07
     8b0:	98 87       	std	Y+8, r25	; 0x08
     8b2:	68 a1       	ldd	r22, Y+32	; 0x20
     8b4:	79 a1       	ldd	r23, Y+33	; 0x21
     8b6:	8a a1       	ldd	r24, Y+34	; 0x22
     8b8:	9b a1       	ldd	r25, Y+35	; 0x23
     8ba:	0e 94 d2 0e 	call	0x1da4	; 0x1da4 <__floatunsisf>
     8be:	9b 01       	movw	r18, r22
     8c0:	ac 01       	movw	r20, r24
     8c2:	6d 81       	ldd	r22, Y+5	; 0x05
     8c4:	7e 81       	ldd	r23, Y+6	; 0x06
     8c6:	8f 81       	ldd	r24, Y+7	; 0x07
     8c8:	98 85       	ldd	r25, Y+8	; 0x08
     8ca:	0e 94 62 0e 	call	0x1cc4	; 0x1cc4 <__addsf3>
     8ce:	20 e0       	ldi	r18, 0x00	; 0
     8d0:	30 e0       	ldi	r19, 0x00	; 0
     8d2:	40 e2       	ldi	r20, 0x20	; 32
     8d4:	51 e4       	ldi	r21, 0x41	; 65
     8d6:	0e 94 ce 0e 	call	0x1d9c	; 0x1d9c <__divsf3>
     8da:	20 e0       	ldi	r18, 0x00	; 0
     8dc:	30 e4       	ldi	r19, 0x40	; 64
     8de:	4c e1       	ldi	r20, 0x1C	; 28
     8e0:	57 e4       	ldi	r21, 0x47	; 71
     8e2:	0e 94 2a 0f 	call	0x1e54	; 0x1e54 <__mulsf3>
     8e6:	2d eb       	ldi	r18, 0xBD	; 189
     8e8:	37 e3       	ldi	r19, 0x37	; 55
     8ea:	46 e8       	ldi	r20, 0x86	; 134
     8ec:	55 e3       	ldi	r21, 0x35	; 53
     8ee:	0e 94 2a 0f 	call	0x1e54	; 0x1e54 <__mulsf3>
     8f2:	6d 83       	std	Y+5, r22	; 0x05
     8f4:	7e 83       	std	Y+6, r23	; 0x06
     8f6:	8f 83       	std	Y+7, r24	; 0x07
     8f8:	98 87       	std	Y+8, r25	; 0x08
     8fa:	2b ed       	ldi	r18, 0xDB	; 219
     8fc:	3f e0       	ldi	r19, 0x0F	; 15
     8fe:	49 ec       	ldi	r20, 0xC9	; 201
     900:	50 e4       	ldi	r21, 0x40	; 64
     902:	69 81       	ldd	r22, Y+1	; 0x01
     904:	7a 81       	ldd	r23, Y+2	; 0x02
     906:	8b 81       	ldd	r24, Y+3	; 0x03
     908:	9c 81       	ldd	r25, Y+4	; 0x04
     90a:	0e 94 ce 0e 	call	0x1d9c	; 0x1d9c <__divsf3>
     90e:	9b 01       	movw	r18, r22
     910:	ac 01       	movw	r20, r24
     912:	6d 81       	ldd	r22, Y+5	; 0x05
     914:	7e 81       	ldd	r23, Y+6	; 0x06
     916:	8f 81       	ldd	r24, Y+7	; 0x07
     918:	98 85       	ldd	r25, Y+8	; 0x08
     91a:	0e 94 61 0e 	call	0x1cc2	; 0x1cc2 <__subsf3>
     91e:	40 e0       	ldi	r20, 0x00	; 0
     920:	50 e0       	ldi	r21, 0x00	; 0
     922:	9a 01       	movw	r18, r20
     924:	0e 94 62 0e 	call	0x1cc4	; 0x1cc4 <__addsf3>
     928:	6b 01       	movw	r12, r22
     92a:	7c 01       	movw	r14, r24
     92c:	0e 94 e8 0b 	call	0x17d0	; 0x17d0 <floorf>
     930:	9b 01       	movw	r18, r22
     932:	ac 01       	movw	r20, r24
     934:	b6 01       	movw	r22, r12
     936:	c7 01       	movw	r24, r14
     938:	0e 94 61 0e 	call	0x1cc2	; 0x1cc2 <__subsf3>
     93c:	2b ed       	ldi	r18, 0xDB	; 219
     93e:	3f e0       	ldi	r19, 0x0F	; 15
     940:	49 ec       	ldi	r20, 0xC9	; 201
     942:	50 e4       	ldi	r21, 0x40	; 64
     944:	0e 94 2a 0f 	call	0x1e54	; 0x1e54 <__mulsf3>
     948:	69 83       	std	Y+1, r22	; 0x01
     94a:	7a 83       	std	Y+2, r23	; 0x02
     94c:	8b 83       	std	Y+3, r24	; 0x03
     94e:	9c 83       	std	Y+4, r25	; 0x04
     950:	0e 94 75 0b 	call	0x16ea	; 0x16ea <cosf>
     954:	60 93 12 38 	sts	0x3812, r22	; 0x803812 <g_pcos>
     958:	70 93 13 38 	sts	0x3813, r23	; 0x803813 <g_pcos+0x1>
     95c:	80 93 14 38 	sts	0x3814, r24	; 0x803814 <g_pcos+0x2>
     960:	90 93 15 38 	sts	0x3815, r25	; 0x803815 <g_pcos+0x3>
     964:	69 81       	ldd	r22, Y+1	; 0x01
     966:	7a 81       	ldd	r23, Y+2	; 0x02
     968:	8b 81       	ldd	r24, Y+3	; 0x03
     96a:	9c 81       	ldd	r25, Y+4	; 0x04
     96c:	0e 94 0f 0e 	call	0x1c1e	; 0x1c1e <sinf>
     970:	60 93 0e 38 	sts	0x380E, r22	; 0x80380e <g_psin>
     974:	70 93 0f 38 	sts	0x380F, r23	; 0x80380f <g_psin+0x1>
     978:	80 93 10 38 	sts	0x3810, r24	; 0x803810 <g_psin+0x2>
     97c:	90 93 11 38 	sts	0x3811, r25	; 0x803811 <g_psin+0x3>
     980:	81 e0       	ldi	r24, 0x01	; 1
     982:	80 93 1a 38 	sts	0x381A, r24	; 0x80381a <g_phase_ok>

00000986 <.L58>:
     986:	c5 01       	movw	r24, r10
     988:	a5 96       	adiw	r28, 0x25	; 37
     98a:	cd bf       	out	0x3d, r28	; 61
     98c:	de bf       	out	0x3e, r29	; 62
     98e:	df 91       	pop	r29
     990:	cf 91       	pop	r28
     992:	1f 91       	pop	r17
     994:	0f 91       	pop	r16
     996:	ff 90       	pop	r15
     998:	ef 90       	pop	r14
     99a:	df 90       	pop	r13
     99c:	cf 90       	pop	r12
     99e:	bf 90       	pop	r11
     9a0:	af 90       	pop	r10
     9a2:	9f 90       	pop	r9
     9a4:	8f 90       	pop	r8
     9a6:	7f 90       	pop	r7
     9a8:	6f 90       	pop	r6
     9aa:	5f 90       	pop	r5
     9ac:	4f 90       	pop	r4
     9ae:	3f 90       	pop	r3
     9b0:	2f 90       	pop	r2
     9b2:	08 95       	ret

000009b4 <.L81>:
     9b4:	c1 2c       	mov	r12, r1
     9b6:	d1 2c       	mov	r13, r1
     9b8:	1d 82       	std	Y+5, r1	; 0x05
     9ba:	19 82       	std	Y+1, r1	; 0x01
     9bc:	31 ce       	rjmp	.-926    	; 0x620 <.L69>

000009be <.L68>:
     9be:	31 96       	adiw	r30, 0x01	; 1
     9c0:	0f 5f       	subi	r16, 0xFF	; 255
     9c2:	1f 4f       	sbci	r17, 0xFF	; 255
     9c4:	e0 16       	cp	r14, r16
     9c6:	f1 06       	cpc	r15, r17
     9c8:	08 f0       	brcs	.+2      	; 0x9cc <.L82>

000009ca <L0^A>:
     9ca:	e9 cd       	rjmp	.-1070   	; 0x59e <.L74>

000009cc <.L82>:
     9cc:	a1 2c       	mov	r10, r1
     9ce:	b1 2c       	mov	r11, r1
     9d0:	da cf       	rjmp	.-76     	; 0x986 <.L58>

000009d2 <.L76>:
     9d2:	77 fe       	sbrs	r7, 7
     9d4:	d6 ce       	rjmp	.-596    	; 0x782 <.L77>
     9d6:	61 2c       	mov	r6, r1
     9d8:	71 2c       	mov	r7, r1
     9da:	23 01       	movw	r4, r6
     9dc:	d2 ce       	rjmp	.-604    	; 0x782 <.L77>

000009de <.L83>:
     9de:	46 01       	movw	r8, r12
     9e0:	59 85       	ldd	r21, Y+9	; 0x09
     9e2:	59 83       	std	Y+1, r21	; 0x01
     9e4:	8f 89       	ldd	r24, Y+23	; 0x17
     9e6:	8d 83       	std	Y+5, r24	; 0x05
     9e8:	f9 ce       	rjmp	.-526    	; 0x7dc <.L78>

000009ea <measure_coarse_ticks>:
     9ea:	7f 92       	push	r7
     9ec:	8f 92       	push	r8
     9ee:	9f 92       	push	r9
     9f0:	af 92       	push	r10
     9f2:	bf 92       	push	r11
     9f4:	cf 92       	push	r12
     9f6:	df 92       	push	r13
     9f8:	ef 92       	push	r14
     9fa:	ff 92       	push	r15
     9fc:	0f 93       	push	r16
     9fe:	1f 93       	push	r17
     a00:	cf 93       	push	r28
     a02:	df 93       	push	r29
     a04:	cd b7       	in	r28, 0x3d	; 61
     a06:	de b7       	in	r29, 0x3e	; 62
     a08:	a5 97       	sbiw	r28, 0x25	; 37
     a0a:	cd bf       	out	0x3d, r28	; 61
     a0c:	de bf       	out	0x3e, r29	; 62
     a0e:	8b 01       	movw	r16, r22
     a10:	8d a3       	std	Y+37, r24	; 0x25
     a12:	79 2e       	mov	r7, r25
     a14:	80 e4       	ldi	r24, 0x40	; 64
     a16:	80 93 06 04 	sts	0x0406, r24	; 0x800406 <__RODATA_PM_OFFSET__+0x7f8406>
     a1a:	80 91 00 06 	lds	r24, 0x0600	; 0x800600 <__RODATA_PM_OFFSET__+0x7f8600>
     a1e:	81 60       	ori	r24, 0x01	; 1
     a20:	80 93 00 06 	sts	0x0600, r24	; 0x800600 <__RODATA_PM_OFFSET__+0x7f8600>
     a24:	83 ed       	ldi	r24, 0xD3	; 211
     a26:	90 e3       	ldi	r25, 0x30	; 48

00000a28 <.L1^B14>:
     a28:	01 97       	sbiw	r24, 0x01	; 1
     a2a:	f1 f7       	brne	.-4      	; 0xa28 <.L1^B14>
     a2c:	00 c0       	rjmp	.+0      	; 0xa2e <L0^A>

00000a2e <L0^A>:
     a2e:	00 00       	nop
     a30:	85 e0       	ldi	r24, 0x05	; 5
     a32:	0e 94 cf 00 	call	0x19e	; 0x19e <adc_read>
     a36:	8a e0       	ldi	r24, 0x0A	; 10
     a38:	0e 94 1d 02 	call	0x43a	; 0x43a <measure_once_ticks>
     a3c:	00 97       	sbiw	r24, 0x00	; 0
     a3e:	c1 f1       	breq	.+112    	; 0xab0 <.L118>
     a40:	4c 01       	movw	r8, r24
     a42:	a1 2c       	mov	r10, r1
     a44:	b1 2c       	mov	r11, r1
     a46:	b8 01       	movw	r22, r16
     a48:	8d a1       	ldd	r24, Y+37	; 0x25
     a4a:	97 2d       	mov	r25, r7
     a4c:	94 01       	movw	r18, r8
     a4e:	a5 01       	movw	r20, r10
     a50:	0e 94 8c 10 	call	0x2118	; 0x2118 <__mulsidi3>
     a54:	ed e2       	ldi	r30, 0x2D	; 45
     a56:	be 2e       	mov	r11, r30
     a58:	f1 e3       	ldi	r31, 0x31	; 49
     a5a:	cf 2e       	mov	r12, r31
     a5c:	f1 e0       	ldi	r31, 0x01	; 1
     a5e:	df 2e       	mov	r13, r31
     a60:	e1 2c       	mov	r14, r1
     a62:	f1 2c       	mov	r15, r1
     a64:	87 01       	movw	r16, r14
     a66:	0e 94 c8 10 	call	0x2190	; 0x2190 <__divdi3>
     a6a:	a0 91 02 38 	lds	r26, 0x3802	; 0x803802 <g_cal_a>
     a6e:	b0 91 03 38 	lds	r27, 0x3803	; 0x803803 <g_cal_a+0x1>
     a72:	0e 94 92 0f 	call	0x1f24	; 0x1f24 <__mulhisi3>
     a76:	a7 01       	movw	r20, r14
     a78:	28 ee       	ldi	r18, 0xE8	; 232
     a7a:	33 e0       	ldi	r19, 0x03	; 3
     a7c:	0e 94 03 10 	call	0x2006	; 0x2006 <__divmodsi4>
     a80:	80 91 00 38 	lds	r24, 0x3800	; 0x803800 <g_cal_b>
     a84:	90 91 01 38 	lds	r25, 0x3801	; 0x803801 <g_cal_b+0x1>
     a88:	79 01       	movw	r14, r18
     a8a:	8a 01       	movw	r16, r20
     a8c:	09 2e       	mov	r0, r25
     a8e:	00 0c       	add	r0, r0
     a90:	00 08       	sbc	r0, r0
     a92:	e8 0e       	add	r14, r24
     a94:	f9 1e       	adc	r15, r25
     a96:	00 1d       	adc	r16, r0
     a98:	10 1d       	adc	r17, r0
     a9a:	c7 01       	movw	r24, r14
     a9c:	d8 01       	movw	r26, r16
     a9e:	b7 fd       	sbrc	r27, 7
     aa0:	04 c0       	rjmp	.+8      	; 0xaaa <.L136>
     aa2:	18 e1       	ldi	r17, 0x18	; 24
     aa4:	89 31       	cpi	r24, 0x19	; 25
     aa6:	91 40       	sbci	r25, 0x01	; 1
     aa8:	08 f4       	brcc	.+2      	; 0xaac <.L137>

00000aaa <.L136>:
     aaa:	1a e0       	ldi	r17, 0x0A	; 10

00000aac <.L137>:
     aac:	1d a3       	std	Y+37, r17	; 0x25
     aae:	02 c0       	rjmp	.+4      	; 0xab4 <.L97>

00000ab0 <.L118>:
     ab0:	08 e1       	ldi	r16, 0x18	; 24
     ab2:	0d a3       	std	Y+37, r16	; 0x25

00000ab4 <.L97>:
     ab4:	09 e0       	ldi	r16, 0x09	; 9
     ab6:	e1 2c       	mov	r14, r1
     ab8:	f1 2c       	mov	r15, r1
     aba:	67 01       	movw	r12, r14
     abc:	46 01       	movw	r8, r12
     abe:	56 01       	movw	r10, r12
     ac0:	71 2c       	mov	r7, r1
     ac2:	10 e0       	ldi	r17, 0x00	; 0

00000ac4 <.L100>:
     ac4:	8d a1       	ldd	r24, Y+37	; 0x25
     ac6:	0e 94 1d 02 	call	0x43a	; 0x43a <measure_once_ticks>
     aca:	00 97       	sbiw	r24, 0x00	; 0
     acc:	51 f1       	breq	.+84     	; 0xb22 <.L99>
     ace:	fe 01       	movw	r30, r28
     ad0:	31 96       	adiw	r30, 0x01	; 1
     ad2:	e1 0f       	add	r30, r17
     ad4:	f1 1d       	adc	r31, r1
     ad6:	e1 0f       	add	r30, r17
     ad8:	f1 1d       	adc	r31, r1
     ada:	80 83       	st	Z, r24
     adc:	91 83       	std	Z+1, r25	; 0x01
     ade:	80 91 1a 38 	lds	r24, 0x381A	; 0x80381a <g_phase_ok>
     ae2:	81 15       	cp	r24, r1
     ae4:	e9 f0       	breq	.+58     	; 0xb20 <.L120>
     ae6:	20 91 12 38 	lds	r18, 0x3812	; 0x803812 <g_pcos>
     aea:	30 91 13 38 	lds	r19, 0x3813	; 0x803813 <g_pcos+0x1>
     aee:	40 91 14 38 	lds	r20, 0x3814	; 0x803814 <g_pcos+0x2>
     af2:	50 91 15 38 	lds	r21, 0x3815	; 0x803815 <g_pcos+0x3>
     af6:	b4 01       	movw	r22, r8
     af8:	c5 01       	movw	r24, r10
     afa:	0e 94 62 0e 	call	0x1cc4	; 0x1cc4 <__addsf3>
     afe:	4b 01       	movw	r8, r22
     b00:	5c 01       	movw	r10, r24
     b02:	20 91 0e 38 	lds	r18, 0x380E	; 0x80380e <g_psin>
     b06:	30 91 0f 38 	lds	r19, 0x380F	; 0x80380f <g_psin+0x1>
     b0a:	40 91 10 38 	lds	r20, 0x3810	; 0x803810 <g_psin+0x2>
     b0e:	50 91 11 38 	lds	r21, 0x3811	; 0x803811 <g_psin+0x3>
     b12:	b6 01       	movw	r22, r12
     b14:	c7 01       	movw	r24, r14
     b16:	0e 94 62 0e 	call	0x1cc4	; 0x1cc4 <__addsf3>
     b1a:	6b 01       	movw	r12, r22
     b1c:	7c 01       	movw	r14, r24
     b1e:	73 94       	inc	r7

00000b20 <.L120>:
     b20:	1f 5f       	subi	r17, 0xFF	; 255

00000b22 <.L99>:
     b22:	8b e7       	ldi	r24, 0x7B	; 123
     b24:	92 e9       	ldi	r25, 0x92	; 146

00000b26 <.L1^B15>:
     b26:	01 97       	sbiw	r24, 0x01	; 1
     b28:	f1 f7       	brne	.-4      	; 0xb26 <.L1^B15>
     b2a:	00 c0       	rjmp	.+0      	; 0xb2c <L0^A>

00000b2c <L0^A>:
     b2c:	00 00       	nop
     b2e:	01 50       	subi	r16, 0x01	; 1
     b30:	49 f6       	brne	.-110    	; 0xac4 <.L100>
     b32:	80 91 00 06 	lds	r24, 0x0600	; 0x800600 <__RODATA_PM_OFFSET__+0x7f8600>
     b36:	8e 7f       	andi	r24, 0xFE	; 254
     b38:	80 93 00 06 	sts	0x0600, r24	; 0x800600 <__RODATA_PM_OFFSET__+0x7f8600>
     b3c:	80 e4       	ldi	r24, 0x40	; 64
     b3e:	80 93 05 04 	sts	0x0405, r24	; 0x800405 <__RODATA_PM_OFFSET__+0x7f8405>
     b42:	10 93 0d 38 	sts	0x380D, r17	; 0x80380d <g_nv>
     b46:	70 92 0c 38 	sts	0x380C, r7	; 0x80380c <g_npz>
     b4a:	80 92 08 38 	sts	0x3808, r8	; 0x803808 <g_sumc>
     b4e:	90 92 09 38 	sts	0x3809, r9	; 0x803809 <g_sumc+0x1>
     b52:	a0 92 0a 38 	sts	0x380A, r10	; 0x80380a <g_sumc+0x2>
     b56:	b0 92 0b 38 	sts	0x380B, r11	; 0x80380b <g_sumc+0x3>
     b5a:	c0 92 04 38 	sts	0x3804, r12	; 0x803804 <g_sums>
     b5e:	d0 92 05 38 	sts	0x3805, r13	; 0x803805 <g_sums+0x1>
     b62:	e0 92 06 38 	sts	0x3806, r14	; 0x803806 <g_sums+0x2>
     b66:	f0 92 07 38 	sts	0x3807, r15	; 0x803807 <g_sums+0x3>
     b6a:	40 e0       	ldi	r20, 0x00	; 0
     b6c:	50 e0       	ldi	r21, 0x00	; 0
     b6e:	9a 01       	movw	r18, r20
     b70:	12 30       	cpi	r17, 0x02	; 2
     b72:	08 f4       	brcc	.+2      	; 0xb76 <.Lname380>

00000b74 <L0^A>:
     b74:	99 c0       	rjmp	.+306    	; 0xca8 <.L96>
     b76:	de 01       	movw	r26, r28
     b78:	11 96       	adiw	r26, 0x01	; 1
     b7a:	cd 01       	movw	r24, r26
     b7c:	21 e0       	ldi	r18, 0x01	; 1

00000b7e <.L105>:
     b7e:	fc 01       	movw	r30, r24
     b80:	62 81       	ldd	r22, Z+2	; 0x02
     b82:	73 81       	ldd	r23, Z+3	; 0x03
     b84:	3f ef       	ldi	r19, 0xFF	; 255
     b86:	32 0f       	add	r19, r18
     b88:	ac 01       	movw	r20, r24

00000b8a <.L102>:
     b8a:	fa 01       	movw	r30, r20
     b8c:	e0 80       	ld	r14, Z
     b8e:	f1 80       	ldd	r15, Z+1	; 0x01
     b90:	6e 15       	cp	r22, r14
     b92:	7f 05       	cpc	r23, r15
     b94:	40 f4       	brcc	.+16     	; 0xba6 <.L103>
     b96:	fa 01       	movw	r30, r20
     b98:	e2 82       	std	Z+2, r14	; 0x02
     b9a:	f3 82       	std	Z+3, r15	; 0x03
     b9c:	31 50       	subi	r19, 0x01	; 1
     b9e:	42 50       	subi	r20, 0x02	; 2
     ba0:	51 09       	sbc	r21, r1
     ba2:	3f 3f       	cpi	r19, 0xFF	; 255
     ba4:	91 f7       	brne	.-28     	; 0xb8a <.L102>

00000ba6 <.L103>:
     ba6:	e1 e0       	ldi	r30, 0x01	; 1
     ba8:	e3 0f       	add	r30, r19
     baa:	ee 0f       	add	r30, r30
     bac:	ff 0b       	sbc	r31, r31
     bae:	ea 0f       	add	r30, r26
     bb0:	fb 1f       	adc	r31, r27
     bb2:	60 83       	st	Z, r22
     bb4:	71 83       	std	Z+1, r23	; 0x01
     bb6:	31 e0       	ldi	r19, 0x01	; 1
     bb8:	32 0f       	add	r19, r18
     bba:	02 96       	adiw	r24, 0x02	; 2
     bbc:	13 13       	cpse	r17, r19
     bbe:	87 c0       	rjmp	.+270    	; 0xcce <.L122>
     bc0:	81 2f       	mov	r24, r17
     bc2:	86 95       	lsr	r24
     bc4:	90 e0       	ldi	r25, 0x00	; 0
     bc6:	88 0f       	add	r24, r24
     bc8:	99 1f       	adc	r25, r25
     bca:	fd 01       	movw	r30, r26
     bcc:	e8 0f       	add	r30, r24
     bce:	f9 1f       	adc	r31, r25
     bd0:	40 81       	ld	r20, Z
     bd2:	51 81       	ldd	r21, Z+1	; 0x01
     bd4:	7e 01       	movw	r14, r28
     bd6:	f3 e1       	ldi	r31, 0x13	; 19
     bd8:	ef 0e       	add	r14, r31
     bda:	f1 1c       	adc	r15, r1
     bdc:	57 01       	movw	r10, r14
     bde:	6d 01       	movw	r12, r26
     be0:	30 e0       	ldi	r19, 0x00	; 0

00000be2 <.L108>:
     be2:	f6 01       	movw	r30, r12
     be4:	61 91       	ld	r22, Z+
     be6:	71 91       	ld	r23, Z+
     be8:	6f 01       	movw	r12, r30
     bea:	46 17       	cp	r20, r22
     bec:	57 07       	cpc	r21, r23
     bee:	08 f0       	brcs	.+2      	; 0xbf2 <L0^A+0x2>

00000bf0 <L0^A>:
     bf0:	72 c0       	rjmp	.+228    	; 0xcd6 <.L106>
     bf2:	64 1b       	sub	r22, r20
     bf4:	75 0b       	sbc	r23, r21

00000bf6 <.L107>:
     bf6:	f5 01       	movw	r30, r10
     bf8:	61 93       	st	Z+, r22
     bfa:	71 93       	st	Z+, r23
     bfc:	5f 01       	movw	r10, r30
     bfe:	23 13       	cpse	r18, r19
     c00:	68 c0       	rjmp	.+208    	; 0xcd2 <.L123>
     c02:	31 e0       	ldi	r19, 0x01	; 1

00000c04 <.L112>:
     c04:	f7 01       	movw	r30, r14
     c06:	62 81       	ldd	r22, Z+2	; 0x02
     c08:	73 81       	ldd	r23, Z+3	; 0x03
     c0a:	1f ef       	ldi	r17, 0xFF	; 255
     c0c:	13 0f       	add	r17, r19
     c0e:	67 01       	movw	r12, r14

00000c10 <.L109>:
     c10:	f6 01       	movw	r30, r12
     c12:	a0 80       	ld	r10, Z
     c14:	b1 80       	ldd	r11, Z+1	; 0x01
     c16:	6a 15       	cp	r22, r10
     c18:	7b 05       	cpc	r23, r11
     c1a:	48 f4       	brcc	.+18     	; 0xc2e <.L110>
     c1c:	f6 01       	movw	r30, r12
     c1e:	a2 82       	std	Z+2, r10	; 0x02
     c20:	b3 82       	std	Z+3, r11	; 0x03
     c22:	11 50       	subi	r17, 0x01	; 1
     c24:	f2 e0       	ldi	r31, 0x02	; 2
     c26:	cf 1a       	sub	r12, r31
     c28:	d1 08       	sbc	r13, r1
     c2a:	1f 3f       	cpi	r17, 0xFF	; 255
     c2c:	89 f7       	brne	.-30     	; 0xc10 <.L109>

00000c2e <.L110>:
     c2e:	e1 e0       	ldi	r30, 0x01	; 1
     c30:	e1 0f       	add	r30, r17
     c32:	ee 0f       	add	r30, r30
     c34:	ff 0b       	sbc	r31, r31
     c36:	ea 0f       	add	r30, r26
     c38:	fb 1f       	adc	r31, r27
     c3a:	62 8b       	std	Z+18, r22	; 0x12
     c3c:	73 8b       	std	Z+19, r23	; 0x13
     c3e:	f2 e0       	ldi	r31, 0x02	; 2
     c40:	ef 0e       	add	r14, r31
     c42:	f1 1c       	adc	r15, r1
     c44:	23 13       	cpse	r18, r19
     c46:	4c c0       	rjmp	.+152    	; 0xce0 <.L124>
     c48:	8a 0f       	add	r24, r26
     c4a:	9b 1f       	adc	r25, r27
     c4c:	fc 01       	movw	r30, r24
     c4e:	62 89       	ldd	r22, Z+18	; 0x12
     c50:	73 89       	ldd	r23, Z+19	; 0x13
     c52:	cb 01       	movw	r24, r22
     c54:	88 0f       	add	r24, r24
     c56:	99 1f       	adc	r25, r25
     c58:	86 0f       	add	r24, r22
     c5a:	97 1f       	adc	r25, r23
     c5c:	02 96       	adiw	r24, 0x02	; 2
     c5e:	7c 01       	movw	r14, r24
     c60:	30 e0       	ldi	r19, 0x00	; 0
     c62:	80 e0       	ldi	r24, 0x00	; 0
     c64:	90 e0       	ldi	r25, 0x00	; 0
     c66:	bc 01       	movw	r22, r24

00000c68 <.L116>:
     c68:	ed 91       	ld	r30, X+
     c6a:	fd 91       	ld	r31, X+
     c6c:	6f 01       	movw	r12, r30
     c6e:	c4 1a       	sub	r12, r20
     c70:	d5 0a       	sbc	r13, r21
     c72:	4e 17       	cp	r20, r30
     c74:	5f 07       	cpc	r21, r31
     c76:	18 f0       	brcs	.+6      	; 0xc7e <.L114>
     c78:	6a 01       	movw	r12, r20
     c7a:	ce 1a       	sub	r12, r30
     c7c:	df 0a       	sbc	r13, r31

00000c7e <.L114>:
     c7e:	ec 14       	cp	r14, r12
     c80:	fd 04       	cpc	r15, r13
     c82:	28 f0       	brcs	.+10     	; 0xc8e <.L115>
     c84:	6e 0f       	add	r22, r30
     c86:	7f 1f       	adc	r23, r31
     c88:	81 1d       	adc	r24, r1
     c8a:	91 1d       	adc	r25, r1
     c8c:	0f 5f       	subi	r16, 0xFF	; 255

00000c8e <.L115>:
     c8e:	23 13       	cpse	r18, r19
     c90:	29 c0       	rjmp	.+82     	; 0xce4 <.L125>
     c92:	9a 01       	movw	r18, r20
     c94:	40 e0       	ldi	r20, 0x00	; 0
     c96:	50 e0       	ldi	r21, 0x00	; 0
     c98:	01 15       	cp	r16, r1
     c9a:	31 f0       	breq	.+12     	; 0xca8 <.L96>
     c9c:	20 2f       	mov	r18, r16
     c9e:	30 e0       	ldi	r19, 0x00	; 0
     ca0:	40 e0       	ldi	r20, 0x00	; 0
     ca2:	50 e0       	ldi	r21, 0x00	; 0
     ca4:	0e 94 e1 0f 	call	0x1fc2	; 0x1fc2 <__udivmodsi4>

00000ca8 <.L96>:
     ca8:	b9 01       	movw	r22, r18
     caa:	ca 01       	movw	r24, r20
     cac:	a5 96       	adiw	r28, 0x25	; 37
     cae:	cd bf       	out	0x3d, r28	; 61
     cb0:	de bf       	out	0x3e, r29	; 62
     cb2:	df 91       	pop	r29
     cb4:	cf 91       	pop	r28
     cb6:	1f 91       	pop	r17
     cb8:	0f 91       	pop	r16
     cba:	ff 90       	pop	r15
     cbc:	ef 90       	pop	r14
     cbe:	df 90       	pop	r13
     cc0:	cf 90       	pop	r12
     cc2:	bf 90       	pop	r11
     cc4:	af 90       	pop	r10
     cc6:	9f 90       	pop	r9
     cc8:	8f 90       	pop	r8
     cca:	7f 90       	pop	r7
     ccc:	08 95       	ret

00000cce <.L122>:
     cce:	23 2f       	mov	r18, r19
     cd0:	56 cf       	rjmp	.-340    	; 0xb7e <.L105>

00000cd2 <.L123>:
     cd2:	3f 5f       	subi	r19, 0xFF	; 255
     cd4:	86 cf       	rjmp	.-244    	; 0xbe2 <.L108>

00000cd6 <.L106>:
     cd6:	fa 01       	movw	r30, r20
     cd8:	e6 1b       	sub	r30, r22
     cda:	f7 0b       	sbc	r31, r23
     cdc:	bf 01       	movw	r22, r30
     cde:	8b cf       	rjmp	.-234    	; 0xbf6 <.L107>

00000ce0 <.L124>:
     ce0:	3f 5f       	subi	r19, 0xFF	; 255
     ce2:	90 cf       	rjmp	.-224    	; 0xc04 <.L112>

00000ce4 <.L125>:
     ce4:	3f 5f       	subi	r19, 0xFF	; 255
     ce6:	c0 cf       	rjmp	.-128    	; 0xc68 <.L116>

00000ce8 <__vector_7>:
     ce8:	8f 93       	push	r24
     cea:	81 e0       	ldi	r24, 0x01	; 1
     cec:	80 93 53 01 	sts	0x0153, r24	; 0x800153 <__RODATA_PM_OFFSET__+0x7f8153>
     cf0:	8f 91       	pop	r24
     cf2:	18 95       	reti

00000cf4 <main>:
     cf4:	cd b7       	in	r28, 0x3d	; 61
     cf6:	de b7       	in	r29, 0x3e	; 62
     cf8:	6d 97       	sbiw	r28, 0x1d	; 29
     cfa:	cd bf       	out	0x3d, r28	; 61
     cfc:	de bf       	out	0x3e, r29	; 62
     cfe:	88 ed       	ldi	r24, 0xD8	; 216
     d00:	21 e0       	ldi	r18, 0x01	; 1
     d02:	30 e0       	ldi	r19, 0x00	; 0
     d04:	84 bf       	out	0x34, r24	; 52
     d06:	20 93 61 00 	sts	0x0061, r18	; 0x800061 <__RODATA_PM_OFFSET__+0x7f8061>
     d0a:	88 e0       	ldi	r24, 0x08	; 8
     d0c:	80 93 02 04 	sts	0x0402, r24	; 0x800402 <__RODATA_PM_OFFSET__+0x7f8402>
     d10:	80 93 13 04 	sts	0x0413, r24	; 0x800413 <__RODATA_PM_OFFSET__+0x7f8413>
     d14:	20 e1       	ldi	r18, 0x10	; 16
     d16:	20 93 01 04 	sts	0x0401, r18	; 0x800401 <__RODATA_PM_OFFSET__+0x7f8401>
     d1a:	20 93 06 04 	sts	0x0406, r18	; 0x800406 <__RODATA_PM_OFFSET__+0x7f8406>
     d1e:	40 e2       	ldi	r20, 0x20	; 32
     d20:	40 93 02 04 	sts	0x0402, r20	; 0x800402 <__RODATA_PM_OFFSET__+0x7f8402>
     d24:	84 e0       	ldi	r24, 0x04	; 4
     d26:	80 93 15 04 	sts	0x0415, r24	; 0x800415 <__RODATA_PM_OFFSET__+0x7f8415>
     d2a:	30 e4       	ldi	r19, 0x40	; 64
     d2c:	30 93 01 04 	sts	0x0401, r19	; 0x800401 <__RODATA_PM_OFFSET__+0x7f8401>
     d30:	30 93 05 04 	sts	0x0405, r19	; 0x800405 <__RODATA_PM_OFFSET__+0x7f8405>
     d34:	91 e0       	ldi	r25, 0x01	; 1
     d36:	90 93 21 04 	sts	0x0421, r25	; 0x800421 <__RODATA_PM_OFFSET__+0x7f8421>
     d3a:	90 93 26 04 	sts	0x0426, r25	; 0x800426 <__RODATA_PM_OFFSET__+0x7f8426>
     d3e:	80 93 21 04 	sts	0x0421, r24	; 0x800421 <__RODATA_PM_OFFSET__+0x7f8421>
     d42:	80 93 25 04 	sts	0x0425, r24	; 0x800425 <__RODATA_PM_OFFSET__+0x7f8425>
     d46:	20 93 22 04 	sts	0x0422, r18	; 0x800422 <__RODATA_PM_OFFSET__+0x7f8422>
     d4a:	80 93 34 04 	sts	0x0434, r24	; 0x800434 <__RODATA_PM_OFFSET__+0x7f8434>
     d4e:	80 93 10 04 	sts	0x0410, r24	; 0x800410 <__RODATA_PM_OFFSET__+0x7f8410>
     d52:	80 93 11 04 	sts	0x0411, r24	; 0x800411 <__RODATA_PM_OFFSET__+0x7f8411>
     d56:	80 93 12 04 	sts	0x0412, r24	; 0x800412 <__RODATA_PM_OFFSET__+0x7f8412>
     d5a:	80 93 17 04 	sts	0x0417, r24	; 0x800417 <__RODATA_PM_OFFSET__+0x7f8417>
     d5e:	80 93 31 04 	sts	0x0431, r24	; 0x800431 <__RODATA_PM_OFFSET__+0x7f8431>
     d62:	80 93 33 04 	sts	0x0433, r24	; 0x800433 <__RODATA_PM_OFFSET__+0x7f8433>
     d66:	80 93 35 04 	sts	0x0435, r24	; 0x800435 <__RODATA_PM_OFFSET__+0x7f8435>
     d6a:	80 93 50 04 	sts	0x0450, r24	; 0x800450 <__RODATA_PM_OFFSET__+0x7f8450>
     d6e:	80 93 51 04 	sts	0x0451, r24	; 0x800451 <__RODATA_PM_OFFSET__+0x7f8451>
     d72:	80 93 52 04 	sts	0x0452, r24	; 0x800452 <__RODATA_PM_OFFSET__+0x7f8452>
     d76:	80 93 53 04 	sts	0x0453, r24	; 0x800453 <__RODATA_PM_OFFSET__+0x7f8453>
     d7a:	6b e5       	ldi	r22, 0x5B	; 91
     d7c:	71 e0       	ldi	r23, 0x01	; 1
     d7e:	60 93 08 08 	sts	0x0808, r22	; 0x800808 <__RODATA_PM_OFFSET__+0x7f8808>
     d82:	70 93 09 08 	sts	0x0809, r23	; 0x800809 <__RODATA_PM_OFFSET__+0x7f8809>
     d86:	23 e0       	ldi	r18, 0x03	; 3
     d88:	20 93 07 08 	sts	0x0807, r18	; 0x800807 <__RODATA_PM_OFFSET__+0x7f8807>
     d8c:	30 93 06 08 	sts	0x0806, r19	; 0x800806 <__RODATA_PM_OFFSET__+0x7f8806>
     d90:	82 e5       	ldi	r24, 0x52	; 82
     d92:	80 93 02 06 	sts	0x0602, r24	; 0x800602 <__RODATA_PM_OFFSET__+0x7f8602>
     d96:	40 93 03 06 	sts	0x0603, r20	; 0x800603 <__RODATA_PM_OFFSET__+0x7f8603>
     d9a:	10 92 05 06 	sts	0x0605, r1	; 0x800605 <__RODATA_PM_OFFSET__+0x7f8605>
     d9e:	10 92 00 06 	sts	0x0600, r1	; 0x800600 <__RODATA_PM_OFFSET__+0x7f8600>
     da2:	80 91 a2 00 	lds	r24, 0x00A2	; 0x8000a2 <__RODATA_PM_OFFSET__+0x7f80a2>
     da6:	88 7f       	andi	r24, 0xF8	; 248
     da8:	82 60       	ori	r24, 0x02	; 2
     daa:	80 93 a2 00 	sts	0x00A2, r24	; 0x8000a2 <__RODATA_PM_OFFSET__+0x7f80a2>
     dae:	80 91 a1 00 	lds	r24, 0x00A1	; 0x8000a1 <__RODATA_PM_OFFSET__+0x7f80a1>
     db2:	88 60       	ori	r24, 0x08	; 8
     db4:	80 93 a1 00 	sts	0x00A1, r24	; 0x8000a1 <__RODATA_PM_OFFSET__+0x7f80a1>
     db8:	8f ef       	ldi	r24, 0xFF	; 255
     dba:	80 93 a9 06 	sts	0x06A9, r24	; 0x8006a9 <__RODATA_PM_OFFSET__+0x7f86a9>
     dbe:	90 93 a8 06 	sts	0x06A8, r25	; 0x8006a8 <__RODATA_PM_OFFSET__+0x7f86a8>
     dc2:	8b e1       	ldi	r24, 0x1B	; 27
     dc4:	80 93 8a 06 	sts	0x068A, r24	; 0x80068a <__RODATA_PM_OFFSET__+0x7f868a>
     dc8:	20 93 88 06 	sts	0x0688, r18	; 0x800688 <__RODATA_PM_OFFSET__+0x7f8688>
     dcc:	83 e1       	ldi	r24, 0x13	; 19
     dce:	80 93 82 01 	sts	0x0182, r24	; 0x800182 <__RODATA_PM_OFFSET__+0x7f8182>
     dd2:	20 93 92 01 	sts	0x0192, r18	; 0x800192 <__RODATA_PM_OFFSET__+0x7f8192>
     dd6:	82 e0       	ldi	r24, 0x02	; 2
     dd8:	80 93 41 0a 	sts	0x0A41, r24	; 0x800a41 <__RODATA_PM_OFFSET__+0x7f8a41>
     ddc:	90 93 44 0a 	sts	0x0A44, r25	; 0x800a44 <__RODATA_PM_OFFSET__+0x7f8a44>
     de0:	10 92 45 0a 	sts	0x0A45, r1	; 0x800a45 <__RODATA_PM_OFFSET__+0x7f8a45>
     de4:	10 92 4a 0a 	sts	0x0A4A, r1	; 0x800a4a <__RODATA_PM_OFFSET__+0x7f8a4a>
     de8:	10 92 4b 0a 	sts	0x0A4B, r1	; 0x800a4b <__RODATA_PM_OFFSET__+0x7f8a4b>
     dec:	90 93 46 0a 	sts	0x0A46, r25	; 0x800a46 <__RODATA_PM_OFFSET__+0x7f8a46>
     df0:	90 93 40 0a 	sts	0x0A40, r25	; 0x800a40 <__RODATA_PM_OFFSET__+0x7f8a40>

00000df4 <.L140>:
     df4:	80 91 41 01 	lds	r24, 0x0141	; 0x800141 <__RODATA_PM_OFFSET__+0x7f8141>
     df8:	80 fd       	sbrc	r24, 0
     dfa:	fc cf       	rjmp	.-8      	; 0xdf4 <.L140>
     dfc:	10 92 47 01 	sts	0x0147, r1	; 0x800147 <__RODATA_PM_OFFSET__+0x7f8147>

00000e00 <.L141>:
     e00:	80 91 51 01 	lds	r24, 0x0151	; 0x800151 <__RODATA_PM_OFFSET__+0x7f8151>
     e04:	80 fd       	sbrc	r24, 0
     e06:	fc cf       	rjmp	.-8      	; 0xe00 <.L141>
     e08:	81 e0       	ldi	r24, 0x01	; 1
     e0a:	80 93 52 01 	sts	0x0152, r24	; 0x800152 <__RODATA_PM_OFFSET__+0x7f8152>
     e0e:	89 e5       	ldi	r24, 0x59	; 89
     e10:	80 93 50 01 	sts	0x0150, r24	; 0x800150 <__RODATA_PM_OFFSET__+0x7f8150>
     e14:	47 e0       	ldi	r20, 0x07	; 7
     e16:	50 e0       	ldi	r21, 0x00	; 0
     e18:	60 e0       	ldi	r22, 0x00	; 0
     e1a:	70 e0       	ldi	r23, 0x00	; 0
     e1c:	ce 01       	movw	r24, r28
     e1e:	01 96       	adiw	r24, 0x01	; 1
     e20:	0e 94 97 11 	call	0x232e	; 0x232e <eeprom_read_block>
     e24:	89 81       	ldd	r24, Y+1	; 0x01
     e26:	9a 81       	ldd	r25, Y+2	; 0x02
     e28:	82 3e       	cpi	r24, 0xE2	; 226
     e2a:	97 45       	sbci	r25, 0x57	; 87
     e2c:	c9 f4       	brne	.+50     	; 0xe60 <.L142>
     e2e:	1f 81       	ldd	r17, Y+7	; 0x07
     e30:	ce 01       	movw	r24, r28
     e32:	01 96       	adiw	r24, 0x01	; 1
     e34:	0e 94 df 00 	call	0x1be	; 0x1be <cal_crc8>
     e38:	18 13       	cpse	r17, r24
     e3a:	12 c0       	rjmp	.+36     	; 0xe60 <.L142>
     e3c:	8b 81       	ldd	r24, Y+3	; 0x03
     e3e:	9c 81       	ldd	r25, Y+4	; 0x04
     e40:	9c 01       	movw	r18, r24
     e42:	25 5f       	subi	r18, 0xF5	; 245
     e44:	31 40       	sbci	r19, 0x01	; 1
     e46:	27 3e       	cpi	r18, 0xE7	; 231
     e48:	33 40       	sbci	r19, 0x03	; 3
     e4a:	50 f4       	brcc	.+20     	; 0xe60 <.L142>
     e4c:	80 93 02 38 	sts	0x3802, r24	; 0x803802 <g_cal_a>
     e50:	90 93 03 38 	sts	0x3803, r25	; 0x803803 <g_cal_a+0x1>
     e54:	8d 81       	ldd	r24, Y+5	; 0x05
     e56:	9e 81       	ldd	r25, Y+6	; 0x06
     e58:	80 93 00 38 	sts	0x3800, r24	; 0x803800 <g_cal_b>
     e5c:	90 93 01 38 	sts	0x3801, r25	; 0x803801 <g_cal_b+0x1>

00000e60 <.L142>:
     e60:	10 91 40 00 	lds	r17, 0x0040	; 0x800040 <__RODATA_PM_OFFSET__+0x7f8040>
     e64:	10 93 40 00 	sts	0x0040, r17	; 0x800040 <__RODATA_PM_OFFSET__+0x7f8040>
     e68:	85 e8       	ldi	r24, 0x85	; 133
     e6a:	94 ea       	ldi	r25, 0xA4	; 164
     e6c:	0e 94 64 00 	call	0xc8	; 0xc8 <usart_print>
     e70:	e1 2f       	mov	r30, r17
     e72:	e2 95       	swap	r30
     e74:	ef 70       	andi	r30, 0x0F	; 15
     e76:	f0 e0       	ldi	r31, 0x00	; 0
     e78:	e7 55       	subi	r30, 0x57	; 87
     e7a:	fa 45       	sbci	r31, 0x5A	; 90
     e7c:	80 81       	ld	r24, Z
     e7e:	0e 94 5d 00 	call	0xba	; 0xba <usart_putc>
     e82:	1f 70       	andi	r17, 0x0F	; 15
     e84:	e1 2f       	mov	r30, r17
     e86:	f0 e0       	ldi	r31, 0x00	; 0
     e88:	e7 55       	subi	r30, 0x57	; 87
     e8a:	fa 45       	sbci	r31, 0x5A	; 90
     e8c:	80 81       	ld	r24, Z
     e8e:	0e 94 5d 00 	call	0xba	; 0xba <usart_putc>
     e92:	80 91 02 38 	lds	r24, 0x3802	; 0x803802 <g_cal_a>
     e96:	90 91 03 38 	lds	r25, 0x3803	; 0x803803 <g_cal_a+0x1>
     e9a:	8d 3d       	cpi	r24, 0xDD	; 221
     e9c:	93 40       	sbci	r25, 0x03	; 3
     e9e:	09 f0       	breq	.+2      	; 0xea2 <L0^A+0x2>

00000ea0 <L0^A>:
     ea0:	1c c1       	rjmp	.+568    	; 0x10da <.L172>
     ea2:	80 91 00 38 	lds	r24, 0x3800	; 0x803800 <g_cal_b>
     ea6:	90 91 01 38 	lds	r25, 0x3801	; 0x803801 <g_cal_b+0x1>
     eaa:	88 3b       	cpi	r24, 0xB8	; 184
     eac:	9f 4f       	sbci	r25, 0xFF	; 255
     eae:	09 f0       	breq	.+2      	; 0xeb2 <L0^A+0x2>

00000eb0 <L0^A>:
     eb0:	14 c1       	rjmp	.+552    	; 0x10da <.L172>
     eb2:	80 e6       	ldi	r24, 0x60	; 96
     eb4:	94 ea       	ldi	r25, 0xA4	; 164

00000eb6 <.L143>:
     eb6:	0e 94 64 00 	call	0xc8	; 0xc8 <usart_print>
     eba:	0e 94 fd 00 	call	0x1fa	; 0x1fa <usart_flush>
     ebe:	0e 94 f6 00 	call	0x1ec	; 0x1ec <button_pressed>
     ec2:	81 15       	cp	r24, r1
     ec4:	09 f4       	brne	.+2      	; 0xec8 <L0^A+0x2>

00000ec6 <L0^A>:
     ec6:	63 c0       	rjmp	.+198    	; 0xf8e <.L145>
     ec8:	4f e9       	ldi	r20, 0x9F	; 159
     eca:	56 e8       	ldi	r21, 0x86	; 134
     ecc:	61 e0       	ldi	r22, 0x01	; 1

00000ece <.L1^B16>:
     ece:	41 50       	subi	r20, 0x01	; 1
     ed0:	50 40       	sbci	r21, 0x00	; 0
     ed2:	60 40       	sbci	r22, 0x00	; 0
     ed4:	e1 f7       	brne	.-8      	; 0xece <.L1^B16>
     ed6:	00 c0       	rjmp	.+0      	; 0xed8 <L0^A>

00000ed8 <L0^A>:
     ed8:	00 00       	nop
     eda:	0e 94 f6 00 	call	0x1ec	; 0x1ec <button_pressed>
     ede:	81 15       	cp	r24, r1
     ee0:	09 f4       	brne	.+2      	; 0xee4 <L0^A+0x2>

00000ee2 <L0^A>:
     ee2:	55 c0       	rjmp	.+170    	; 0xf8e <.L145>
     ee4:	0e 94 53 01 	call	0x2a6	; 0x2a6 <ntc_read_temp_c16>
     ee8:	2e e5       	ldi	r18, 0x5E	; 94
     eea:	32 e0       	ldi	r19, 0x02	; 2
     eec:	dc 01       	movw	r26, r24
     eee:	0e 94 22 10 	call	0x2044	; 0x2044 <__usmulhisi3>
     ef2:	2a e0       	ldi	r18, 0x0A	; 10
     ef4:	30 e0       	ldi	r19, 0x00	; 0
     ef6:	40 e0       	ldi	r20, 0x00	; 0
     ef8:	50 e0       	ldi	r21, 0x00	; 0
     efa:	0e 94 03 10 	call	0x2006	; 0x2006 <__divmodsi4>
     efe:	c9 01       	movw	r24, r18
     f00:	da 01       	movw	r26, r20
     f02:	8c 5d       	subi	r24, 0xDC	; 220
     f04:	91 4f       	sbci	r25, 0xF1	; 241
     f06:	aa 4f       	sbci	r26, 0xFA	; 250
     f08:	bf 4f       	sbci	r27, 0xFF	; 255
     f0a:	88 87       	std	Y+8, r24	; 0x08
     f0c:	99 87       	std	Y+9, r25	; 0x09
     f0e:	aa 87       	std	Y+10, r26	; 0x0a
     f10:	bb 87       	std	Y+11, r27	; 0x0b
     f12:	80 eb       	ldi	r24, 0xB0	; 176
     f14:	94 ea       	ldi	r25, 0xA4	; 164
     f16:	0e 94 64 00 	call	0xc8	; 0xc8 <usart_print>
     f1a:	87 ec       	ldi	r24, 0xC7	; 199
     f1c:	94 ea       	ldi	r25, 0xA4	; 164
     f1e:	0e 94 64 00 	call	0xc8	; 0xc8 <usart_print>
     f22:	0e 94 fd 00 	call	0x1fa	; 0x1fa <usart_flush>
     f26:	81 e0       	ldi	r24, 0x01	; 1
     f28:	0e 94 38 01 	call	0x270	; 0x270 <cal_blink>
     f2c:	0e 94 08 01 	call	0x210	; 0x210 <wait_press_release>
     f30:	68 85       	ldd	r22, Y+8	; 0x08
     f32:	79 85       	ldd	r23, Y+9	; 0x09
     f34:	8a 85       	ldd	r24, Y+10	; 0x0a
     f36:	9b 85       	ldd	r25, Y+11	; 0x0b
     f38:	0e 94 f5 04 	call	0x9ea	; 0x9ea <measure_coarse_ticks>
     f3c:	6b 01       	movw	r12, r22
     f3e:	7c 01       	movw	r14, r24
     f40:	86 ee       	ldi	r24, 0xE6	; 230
     f42:	94 ea       	ldi	r25, 0xA4	; 164
     f44:	c1 14       	cp	r12, r1
     f46:	d1 04       	cpc	r13, r1
     f48:	e1 04       	cpc	r14, r1
     f4a:	f1 04       	cpc	r15, r1
     f4c:	e1 f0       	breq	.+56     	; 0xf86 <.L190>
     f4e:	83 e0       	ldi	r24, 0x03	; 3
     f50:	95 ea       	ldi	r25, 0xA5	; 165
     f52:	0e 94 64 00 	call	0xc8	; 0xc8 <usart_print>
     f56:	0e 94 fd 00 	call	0x1fa	; 0x1fa <usart_flush>
     f5a:	82 e0       	ldi	r24, 0x02	; 2
     f5c:	0e 94 38 01 	call	0x270	; 0x270 <cal_blink>
     f60:	0e 94 08 01 	call	0x210	; 0x210 <wait_press_release>
     f64:	68 85       	ldd	r22, Y+8	; 0x08
     f66:	79 85       	ldd	r23, Y+9	; 0x09
     f68:	8a 85       	ldd	r24, Y+10	; 0x0a
     f6a:	9b 85       	ldd	r25, Y+11	; 0x0b
     f6c:	0e 94 f5 04 	call	0x9ea	; 0x9ea <measure_coarse_ticks>
     f70:	68 8b       	std	Y+16, r22	; 0x10
     f72:	79 8b       	std	Y+17, r23	; 0x11
     f74:	8a 8b       	std	Y+18, r24	; 0x12
     f76:	9b 8b       	std	Y+19, r25	; 0x13
     f78:	67 2b       	or	r22, r23
     f7a:	68 2b       	or	r22, r24
     f7c:	69 2b       	or	r22, r25
     f7e:	09 f0       	breq	.+2      	; 0xf82 <L0^A+0x2>

00000f80 <L0^A>:
     f80:	af c0       	rjmp	.+350    	; 0x10e0 <.L148>
     f82:	82 e2       	ldi	r24, 0x22	; 34
     f84:	95 ea       	ldi	r25, 0xA5	; 165

00000f86 <.L190>:
     f86:	0e 94 64 00 	call	0xc8	; 0xc8 <usart_print>
     f8a:	0e 94 fd 00 	call	0x1fa	; 0x1fa <usart_flush>

00000f8e <.L145>:
     f8e:	83 e0       	ldi	r24, 0x03	; 3
     f90:	90 e1       	ldi	r25, 0x10	; 16

00000f92 <.L149>:
     f92:	90 93 05 04 	sts	0x0405, r25	; 0x800405 <__RODATA_PM_OFFSET__+0x7f8405>
     f96:	7f ed       	ldi	r23, 0xDF	; 223
     f98:	a3 e9       	ldi	r26, 0x93	; 147
     f9a:	b4 e0       	ldi	r27, 0x04	; 4

00000f9c <.L1^B17>:
     f9c:	71 50       	subi	r23, 0x01	; 1
     f9e:	a0 40       	sbci	r26, 0x00	; 0
     fa0:	b0 40       	sbci	r27, 0x00	; 0
     fa2:	e1 f7       	brne	.-8      	; 0xf9c <.L1^B17>
     fa4:	00 c0       	rjmp	.+0      	; 0xfa6 <L0^A>

00000fa6 <L0^A>:
     fa6:	00 00       	nop
     fa8:	90 93 06 04 	sts	0x0406, r25	; 0x800406 <__RODATA_PM_OFFSET__+0x7f8406>
     fac:	0f ed       	ldi	r16, 0xDF	; 223
     fae:	13 e9       	ldi	r17, 0x93	; 147
     fb0:	24 e0       	ldi	r18, 0x04	; 4

00000fb2 <.L1^B18>:
     fb2:	01 50       	subi	r16, 0x01	; 1
     fb4:	10 40       	sbci	r17, 0x00	; 0
     fb6:	20 40       	sbci	r18, 0x00	; 0
     fb8:	e1 f7       	brne	.-8      	; 0xfb2 <.L1^B18>
     fba:	00 c0       	rjmp	.+0      	; 0xfbc <L0^A>

00000fbc <L0^A>:
     fbc:	00 00       	nop
     fbe:	81 50       	subi	r24, 0x01	; 1
     fc0:	41 f7       	brne	.-48     	; 0xf92 <.L149>
     fc2:	21 2c       	mov	r2, r1
     fc4:	31 2c       	mov	r3, r1

00000fc6 <.L152>:
     fc6:	80 91 50 00 	lds	r24, 0x0050	; 0x800050 <__RODATA_PM_OFFSET__+0x7f8050>
     fca:	89 7f       	andi	r24, 0xF9	; 249
     fcc:	82 60       	ori	r24, 0x02	; 2
     fce:	80 93 50 00 	sts	0x0050, r24	; 0x800050 <__RODATA_PM_OFFSET__+0x7f8050>
     fd2:	80 91 50 00 	lds	r24, 0x0050	; 0x800050 <__RODATA_PM_OFFSET__+0x7f8050>
     fd6:	81 60       	ori	r24, 0x01	; 1
     fd8:	80 93 50 00 	sts	0x0050, r24	; 0x800050 <__RODATA_PM_OFFSET__+0x7f8050>
     fdc:	78 94       	sei
     fde:	88 95       	sleep
     fe0:	80 91 50 00 	lds	r24, 0x0050	; 0x800050 <__RODATA_PM_OFFSET__+0x7f8050>
     fe4:	8e 7f       	andi	r24, 0xFE	; 254
     fe6:	80 93 50 00 	sts	0x0050, r24	; 0x800050 <__RODATA_PM_OFFSET__+0x7f8050>
     fea:	0e 94 f6 00 	call	0x1ec	; 0x1ec <button_pressed>
     fee:	81 15       	cp	r24, r1
     ff0:	51 f3       	breq	.-44     	; 0xfc6 <.L152>
     ff2:	8f e4       	ldi	r24, 0x4F	; 79
     ff4:	93 ec       	ldi	r25, 0xC3	; 195

00000ff6 <.L1^B19>:
     ff6:	01 97       	sbiw	r24, 0x01	; 1
     ff8:	f1 f7       	brne	.-4      	; 0xff6 <.L1^B19>
     ffa:	00 c0       	rjmp	.+0      	; 0xffc <L0^A>

00000ffc <L0^A>:
     ffc:	00 00       	nop
     ffe:	0e 94 f6 00 	call	0x1ec	; 0x1ec <button_pressed>
    1002:	81 15       	cp	r24, r1
    1004:	01 f3       	breq	.-64     	; 0xfc6 <.L152>
    1006:	9f ef       	ldi	r25, 0xFF	; 255
    1008:	29 1a       	sub	r2, r25
    100a:	39 0a       	sbc	r3, r25
    100c:	a0 e1       	ldi	r26, 0x10	; 16
    100e:	a0 93 05 04 	sts	0x0405, r26	; 0x800405 <__RODATA_PM_OFFSET__+0x7f8405>
    1012:	0e 94 53 01 	call	0x2a6	; 0x2a6 <ntc_read_temp_c16>
    1016:	88 8f       	std	Y+24, r24	; 0x18
    1018:	99 8f       	std	Y+25, r25	; 0x19
    101a:	2e e5       	ldi	r18, 0x5E	; 94
    101c:	32 e0       	ldi	r19, 0x02	; 2
    101e:	dc 01       	movw	r26, r24
    1020:	0e 94 22 10 	call	0x2044	; 0x2044 <__usmulhisi3>
    1024:	2a e0       	ldi	r18, 0x0A	; 10
    1026:	30 e0       	ldi	r19, 0x00	; 0
    1028:	40 e0       	ldi	r20, 0x00	; 0
    102a:	50 e0       	ldi	r21, 0x00	; 0
    102c:	0e 94 03 10 	call	0x2006	; 0x2006 <__divmodsi4>
    1030:	b9 01       	movw	r22, r18
    1032:	ca 01       	movw	r24, r20
    1034:	6c 5d       	subi	r22, 0xDC	; 220
    1036:	71 4f       	sbci	r23, 0xF1	; 241
    1038:	8a 4f       	sbci	r24, 0xFA	; 250
    103a:	9f 4f       	sbci	r25, 0xFF	; 255
    103c:	68 87       	std	Y+8, r22	; 0x08
    103e:	79 87       	std	Y+9, r23	; 0x09
    1040:	8a 87       	std	Y+10, r24	; 0x0a
    1042:	9b 87       	std	Y+11, r25	; 0x0b
    1044:	0e 94 f5 04 	call	0x9ea	; 0x9ea <measure_coarse_ticks>
    1048:	6b 01       	movw	r12, r22
    104a:	7c 01       	movw	r14, r24
    104c:	70 e1       	ldi	r23, 0x10	; 16
    104e:	70 93 06 04 	sts	0x0406, r23	; 0x800406 <__RODATA_PM_OFFSET__+0x7f8406>
    1052:	83 e7       	ldi	r24, 0x73	; 115
    1054:	95 ea       	ldi	r25, 0xA5	; 165
    1056:	0e 94 64 00 	call	0xc8	; 0xc8 <usart_print>
    105a:	c1 01       	movw	r24, r2
    105c:	0e 94 71 00 	call	0xe2	; 0xe2 <usart_print_u16>
    1060:	80 e2       	ldi	r24, 0x20	; 32
    1062:	0e 94 5d 00 	call	0xba	; 0xba <usart_putc>
    1066:	80 91 0d 38 	lds	r24, 0x380D	; 0x80380d <g_nv>
    106a:	88 8b       	std	Y+16, r24	; 0x10
    106c:	82 30       	cpi	r24, 0x02	; 2
    106e:	30 f0       	brcs	.+12     	; 0x107c <.L154>
    1070:	c1 14       	cp	r12, r1
    1072:	d1 04       	cpc	r13, r1
    1074:	e1 04       	cpc	r14, r1
    1076:	f1 04       	cpc	r15, r1
    1078:	09 f0       	breq	.+2      	; 0x107c <.L154>

0000107a <L0^A>:
    107a:	fe c0       	rjmp	.+508    	; 0x1278 <.L155>

0000107c <.L154>:
    107c:	85 e7       	ldi	r24, 0x75	; 117
    107e:	95 ea       	ldi	r25, 0xA5	; 165
    1080:	0e 94 64 00 	call	0xc8	; 0xc8 <usart_print>
    1084:	88 8d       	ldd	r24, Y+24	; 0x18
    1086:	99 8d       	ldd	r25, Y+25	; 0x19
    1088:	0e 94 b2 00 	call	0x164	; 0x164 <usart_print_temp_dC>
    108c:	80 e8       	ldi	r24, 0x80	; 128
    108e:	95 ea       	ldi	r25, 0xA5	; 165
    1090:	0e 94 64 00 	call	0xc8	; 0xc8 <usart_print>
    1094:	a8 89       	ldd	r26, Y+16	; 0x10
    1096:	8a 2f       	mov	r24, r26
    1098:	90 e0       	ldi	r25, 0x00	; 0
    109a:	0e 94 71 00 	call	0xe2	; 0xe2 <usart_print_u16>
    109e:	84 e8       	ldi	r24, 0x84	; 132
    10a0:	95 ea       	ldi	r25, 0xA5	; 165
    10a2:	0e 94 64 00 	call	0xc8	; 0xc8 <usart_print>
    10a6:	89 e0       	ldi	r24, 0x09	; 9
    10a8:	90 e0       	ldi	r25, 0x00	; 0

000010aa <.L191>:
    10aa:	0e 94 71 00 	call	0xe2	; 0xe2 <usart_print_u16>
    10ae:	86 e8       	ldi	r24, 0x86	; 134
    10b0:	95 ea       	ldi	r25, 0xA5	; 165
    10b2:	0e 94 64 00 	call	0xc8	; 0xc8 <usart_print>
    10b6:	83 ee       	ldi	r24, 0xE3	; 227
    10b8:	94 ea       	ldi	r25, 0xA4	; 164
    10ba:	0e 94 64 00 	call	0xc8	; 0xc8 <usart_print>
    10be:	0e 94 fd 00 	call	0x1fa	; 0x1fa <usart_flush>

000010c2 <.L168>:
    10c2:	0e 94 f6 00 	call	0x1ec	; 0x1ec <button_pressed>
    10c6:	81 15       	cp	r24, r1
    10c8:	09 f4       	brne	.+2      	; 0x10cc <L0^A+0x2>

000010ca <L0^A>:
    10ca:	7d cf       	rjmp	.-262    	; 0xfc6 <.L152>
    10cc:	87 ea       	ldi	r24, 0xA7	; 167
    10ce:	91 e6       	ldi	r25, 0x61	; 97

000010d0 <.L1^B20>:
    10d0:	01 97       	sbiw	r24, 0x01	; 1
    10d2:	f1 f7       	brne	.-4      	; 0x10d0 <.L1^B20>
    10d4:	00 c0       	rjmp	.+0      	; 0x10d6 <L0^A>

000010d6 <L0^A>:
    10d6:	00 00       	nop
    10d8:	f4 cf       	rjmp	.-24     	; 0x10c2 <.L168>

000010da <.L172>:
    10da:	83 e7       	ldi	r24, 0x73	; 115
    10dc:	94 ea       	ldi	r25, 0xA4	; 164
    10de:	eb ce       	rjmp	.-554    	; 0xeb6 <.L143>

000010e0 <.L148>:
    10e0:	5b 85       	ldd	r21, Y+11	; 0x0b
    10e2:	55 0f       	add	r21, r21
    10e4:	00 0b       	sbc	r16, r16
    10e6:	10 2f       	mov	r17, r16
    10e8:	98 01       	movw	r18, r16
    10ea:	0c 87       	std	Y+12, r16	; 0x0c
    10ec:	0d 87       	std	Y+13, r16	; 0x0d
    10ee:	2e 87       	std	Y+14, r18	; 0x0e
    10f0:	3f 87       	std	Y+15, r19	; 0x0f
    10f2:	16 01       	movw	r2, r12
    10f4:	27 01       	movw	r4, r14
    10f6:	a8 84       	ldd	r10, Y+8	; 0x08
    10f8:	b9 84       	ldd	r11, Y+9	; 0x09
    10fa:	ca 84       	ldd	r12, Y+10	; 0x0a
    10fc:	db 84       	ldd	r13, Y+11	; 0x0b
    10fe:	ec 84       	ldd	r14, Y+12	; 0x0c
    1100:	fe 2c       	mov	r15, r14
    1102:	0e 2d       	mov	r16, r14
    1104:	1e 2d       	mov	r17, r14
    1106:	91 01       	movw	r18, r2
    1108:	a2 01       	movw	r20, r4
    110a:	60 e0       	ldi	r22, 0x00	; 0
    110c:	70 e0       	ldi	r23, 0x00	; 0
    110e:	cb 01       	movw	r24, r22
    1110:	0e 94 34 10 	call	0x2068	; 0x2068 <__muldi3>
    1114:	a1 2c       	mov	r10, r1
    1116:	bd e2       	ldi	r27, 0x2D	; 45
    1118:	bb 2e       	mov	r11, r27
    111a:	11 e3       	ldi	r17, 0x31	; 49
    111c:	c1 2e       	mov	r12, r17
    111e:	11 e0       	ldi	r17, 0x01	; 1
    1120:	d1 2e       	mov	r13, r17
    1122:	e1 2c       	mov	r14, r1
    1124:	f1 2c       	mov	r15, r1
    1126:	87 01       	movw	r16, r14
    1128:	0e 94 c8 10 	call	0x2190	; 0x2190 <__divdi3>
    112c:	29 01       	movw	r4, r18
    112e:	3a 01       	movw	r6, r20
    1130:	68 89       	ldd	r22, Y+16	; 0x10
    1132:	79 89       	ldd	r23, Y+17	; 0x11
    1134:	8a 89       	ldd	r24, Y+18	; 0x12
    1136:	9b 89       	ldd	r25, Y+19	; 0x13
    1138:	ab 01       	movw	r20, r22
    113a:	bc 01       	movw	r22, r24
    113c:	c7 01       	movw	r24, r14
    113e:	48 8b       	std	Y+16, r20	; 0x10
    1140:	59 8b       	std	Y+17, r21	; 0x11
    1142:	6a 8b       	std	Y+18, r22	; 0x12
    1144:	7b 8b       	std	Y+19, r23	; 0x13
    1146:	1c 8a       	std	Y+20, r1	; 0x14
    1148:	1d 8a       	std	Y+21, r1	; 0x15
    114a:	1e 8a       	std	Y+22, r1	; 0x16
    114c:	1f 8a       	std	Y+23, r1	; 0x17
    114e:	a8 84       	ldd	r10, Y+8	; 0x08
    1150:	b9 84       	ldd	r11, Y+9	; 0x09
    1152:	ca 84       	ldd	r12, Y+10	; 0x0a
    1154:	db 84       	ldd	r13, Y+11	; 0x0b
    1156:	ec 84       	ldd	r14, Y+12	; 0x0c
    1158:	fe 2c       	mov	r15, r14
    115a:	0e 2d       	mov	r16, r14
    115c:	1e 2d       	mov	r17, r14
    115e:	9a 01       	movw	r18, r20
    1160:	ab 01       	movw	r20, r22
    1162:	bc 01       	movw	r22, r24
    1164:	0e 94 34 10 	call	0x2068	; 0x2068 <__muldi3>
    1168:	a1 2c       	mov	r10, r1
    116a:	0d e2       	ldi	r16, 0x2D	; 45
    116c:	b0 2e       	mov	r11, r16
    116e:	e1 e3       	ldi	r30, 0x31	; 49
    1170:	ce 2e       	mov	r12, r30
    1172:	e1 e0       	ldi	r30, 0x01	; 1
    1174:	de 2e       	mov	r13, r30
    1176:	e1 2c       	mov	r14, r1
    1178:	f1 2c       	mov	r15, r1
    117a:	87 01       	movw	r16, r14
    117c:	0e 94 c8 10 	call	0x2190	; 0x2190 <__divdi3>
    1180:	c9 01       	movw	r24, r18
    1182:	da 01       	movw	r26, r20
    1184:	82 01       	movw	r16, r4
    1186:	93 01       	movw	r18, r6
    1188:	06 5f       	subi	r16, 0xF6	; 246
    118a:	1f 4f       	sbci	r17, 0xFF	; 255
    118c:	2f 4f       	sbci	r18, 0xFF	; 255
    118e:	3f 4f       	sbci	r19, 0xFF	; 255
    1190:	08 17       	cp	r16, r24
    1192:	19 07       	cpc	r17, r25
    1194:	2a 07       	cpc	r18, r26
    1196:	3b 07       	cpc	r19, r27
    1198:	1c f0       	brlt	.+6      	; 0x11a0 <.L150>
    119a:	8f e3       	ldi	r24, 0x3F	; 63
    119c:	95 ea       	ldi	r25, 0xA5	; 165
    119e:	f3 ce       	rjmp	.-538    	; 0xf86 <.L190>

000011a0 <.L150>:
    11a0:	bc 01       	movw	r22, r24
    11a2:	ca 01       	movw	r24, r20
    11a4:	64 19       	sub	r22, r4
    11a6:	75 09       	sbc	r23, r5
    11a8:	86 09       	sbc	r24, r6
    11aa:	97 09       	sbc	r25, r7
    11ac:	0e 94 d4 0e 	call	0x1da8	; 0x1da8 <__floatsisf>
    11b0:	9b 01       	movw	r18, r22
    11b2:	ac 01       	movw	r20, r24
    11b4:	86 e9       	ldi	r24, 0x96	; 150
    11b6:	93 e4       	ldi	r25, 0x43	; 67
    11b8:	b7 01       	movw	r22, r14
    11ba:	0e 94 ce 0e 	call	0x1d9c	; 0x1d9c <__divsf3>
    11be:	4b 01       	movw	r8, r22
    11c0:	5c 01       	movw	r10, r24
    11c2:	4a e7       	ldi	r20, 0x7A	; 122
    11c4:	54 e4       	ldi	r21, 0x44	; 68
    11c6:	97 01       	movw	r18, r14
    11c8:	0e 94 2a 0f 	call	0x1e54	; 0x1e54 <__mulsf3>
    11cc:	0e 94 4f 0d 	call	0x1a9e	; 0x1a9e <lroundf>
    11d0:	6b 01       	movw	r12, r22
    11d2:	b2 01       	movw	r22, r4
    11d4:	c3 01       	movw	r24, r6
    11d6:	0e 94 d4 0e 	call	0x1da8	; 0x1da8 <__floatsisf>
    11da:	94 01       	movw	r18, r8
    11dc:	a5 01       	movw	r20, r10
    11de:	0e 94 2a 0f 	call	0x1e54	; 0x1e54 <__mulsf3>
    11e2:	9b 01       	movw	r18, r22
    11e4:	ac 01       	movw	r20, r24
    11e6:	60 e0       	ldi	r22, 0x00	; 0
    11e8:	70 e0       	ldi	r23, 0x00	; 0
    11ea:	88 ec       	ldi	r24, 0xC8	; 200
    11ec:	92 e4       	ldi	r25, 0x42	; 66
    11ee:	0e 94 61 0e 	call	0x1cc2	; 0x1cc2 <__subsf3>
    11f2:	0e 94 4f 0d 	call	0x1a9e	; 0x1a9e <lroundf>
    11f6:	4b 01       	movw	r8, r22
    11f8:	8b 01       	movw	r16, r22
    11fa:	82 ee       	ldi	r24, 0xE2	; 226
    11fc:	97 e5       	ldi	r25, 0x57	; 87
    11fe:	89 83       	std	Y+1, r24	; 0x01
    1200:	9a 83       	std	Y+2, r25	; 0x02
    1202:	cb 82       	std	Y+3, r12	; 0x03
    1204:	dc 82       	std	Y+4, r13	; 0x04
    1206:	8d 82       	std	Y+5, r8	; 0x05
    1208:	9e 82       	std	Y+6, r9	; 0x06
    120a:	1f 82       	std	Y+7, r1	; 0x07
    120c:	ce 01       	movw	r24, r28
    120e:	01 96       	adiw	r24, 0x01	; 1
    1210:	0e 94 df 00 	call	0x1be	; 0x1be <cal_crc8>
    1214:	8f 83       	std	Y+7, r24	; 0x07
    1216:	47 e0       	ldi	r20, 0x07	; 7
    1218:	50 e0       	ldi	r21, 0x00	; 0
    121a:	60 e0       	ldi	r22, 0x00	; 0
    121c:	70 e0       	ldi	r23, 0x00	; 0
    121e:	ce 01       	movw	r24, r28
    1220:	01 96       	adiw	r24, 0x01	; 1
    1222:	0e 94 9b 11 	call	0x2336	; 0x2336 <eeprom_update_block>
    1226:	c0 92 02 38 	sts	0x3802, r12	; 0x803802 <g_cal_a>
    122a:	d0 92 03 38 	sts	0x3803, r13	; 0x803803 <g_cal_a+0x1>
    122e:	80 92 00 38 	sts	0x3800, r8	; 0x803800 <g_cal_b>
    1232:	90 92 01 38 	sts	0x3801, r9	; 0x803801 <g_cal_b+0x1>
    1236:	8b e5       	ldi	r24, 0x5B	; 91
    1238:	95 ea       	ldi	r25, 0xA5	; 165
    123a:	0e 94 64 00 	call	0xc8	; 0xc8 <usart_print>
    123e:	c6 01       	movw	r24, r12
    1240:	0e 94 71 00 	call	0xe2	; 0xe2 <usart_print_u16>
    1244:	8f e6       	ldi	r24, 0x6F	; 111
    1246:	95 ea       	ldi	r25, 0xA5	; 165
    1248:	0e 94 64 00 	call	0xc8	; 0xc8 <usart_print>
    124c:	97 fe       	sbrs	r9, 7
    124e:	07 c0       	rjmp	.+14     	; 0x125e <.L151>
    1250:	8d e2       	ldi	r24, 0x2D	; 45
    1252:	0e 94 5d 00 	call	0xba	; 0xba <usart_putc>
    1256:	00 27       	eor	r16, r16
    1258:	11 27       	eor	r17, r17
    125a:	08 19       	sub	r16, r8
    125c:	19 09       	sbc	r17, r9

0000125e <.L151>:
    125e:	c8 01       	movw	r24, r16
    1260:	0e 94 71 00 	call	0xe2	; 0xe2 <usart_print_u16>
    1264:	83 ee       	ldi	r24, 0xE3	; 227
    1266:	94 ea       	ldi	r25, 0xA4	; 164
    1268:	0e 94 64 00 	call	0xc8	; 0xc8 <usart_print>
    126c:	0e 94 fd 00 	call	0x1fa	; 0x1fa <usart_flush>
    1270:	85 e0       	ldi	r24, 0x05	; 5
    1272:	0e 94 38 01 	call	0x270	; 0x270 <cal_blink>
    1276:	8b ce       	rjmp	.-746    	; 0xf8e <.L145>

00001278 <.L155>:
    1278:	3b 85       	ldd	r19, Y+11	; 0x0b
    127a:	33 0f       	add	r19, r19
    127c:	44 08       	sbc	r4, r4
    127e:	56 01       	movw	r10, r12
    1280:	67 01       	movw	r12, r14
    1282:	e1 2c       	mov	r14, r1
    1284:	f1 2c       	mov	r15, r1
    1286:	87 01       	movw	r16, r14
    1288:	28 85       	ldd	r18, Y+8	; 0x08
    128a:	39 85       	ldd	r19, Y+9	; 0x09
    128c:	4a 85       	ldd	r20, Y+10	; 0x0a
    128e:	5b 85       	ldd	r21, Y+11	; 0x0b
    1290:	64 2d       	mov	r22, r4
    1292:	74 2d       	mov	r23, r4
    1294:	84 2d       	mov	r24, r4
    1296:	94 2d       	mov	r25, r4
    1298:	0e 94 34 10 	call	0x2068	; 0x2068 <__muldi3>
    129c:	a1 2c       	mov	r10, r1
    129e:	ed e2       	ldi	r30, 0x2D	; 45
    12a0:	be 2e       	mov	r11, r30
    12a2:	f1 e3       	ldi	r31, 0x31	; 49
    12a4:	cf 2e       	mov	r12, r31
    12a6:	f1 e0       	ldi	r31, 0x01	; 1
    12a8:	df 2e       	mov	r13, r31
    12aa:	0e 94 c8 10 	call	0x2190	; 0x2190 <__divdi3>
    12ae:	b9 01       	movw	r22, r18
    12b0:	20 91 02 38 	lds	r18, 0x3802	; 0x803802 <g_cal_a>
    12b4:	30 91 03 38 	lds	r19, 0x3803	; 0x803803 <g_cal_a+0x1>
    12b8:	ca 01       	movw	r24, r20
    12ba:	43 2f       	mov	r20, r19
    12bc:	44 0f       	add	r20, r20
    12be:	44 0b       	sbc	r20, r20
    12c0:	54 2f       	mov	r21, r20
    12c2:	0e 94 a9 0f 	call	0x1f52	; 0x1f52 <__mulsi3>
    12c6:	a7 01       	movw	r20, r14
    12c8:	28 ee       	ldi	r18, 0xE8	; 232
    12ca:	33 e0       	ldi	r19, 0x03	; 3
    12cc:	0e 94 03 10 	call	0x2006	; 0x2006 <__divmodsi4>
    12d0:	80 91 00 38 	lds	r24, 0x3800	; 0x803800 <g_cal_b>
    12d4:	90 91 01 38 	lds	r25, 0x3801	; 0x803801 <g_cal_b+0x1>
    12d8:	79 01       	movw	r14, r18
    12da:	8a 01       	movw	r16, r20
    12dc:	09 2e       	mov	r0, r25
    12de:	00 0c       	add	r0, r0
    12e0:	00 08       	sbc	r0, r0
    12e2:	e8 0e       	add	r14, r24
    12e4:	f9 1e       	adc	r15, r25
    12e6:	00 1d       	adc	r16, r0
    12e8:	10 1d       	adc	r17, r0
    12ea:	c7 01       	movw	r24, r14
    12ec:	d8 01       	movw	r26, r16
    12ee:	8f 3f       	cpi	r24, 0xFF	; 255
    12f0:	0f ef       	ldi	r16, 0xFF	; 255
    12f2:	90 07       	cpc	r25, r16
    12f4:	a1 05       	cpc	r26, r1
    12f6:	b1 05       	cpc	r27, r1
    12f8:	0c f4       	brge	.+2      	; 0x12fc <L0^A+0x2>

000012fa <L0^A>:
    12fa:	5c c1       	rjmp	.+696    	; 0x15b4 <.L157>
    12fc:	8e ef       	ldi	r24, 0xFE	; 254
    12fe:	9f ef       	ldi	r25, 0xFF	; 255

00001300 <.L158>:
    1300:	7c 01       	movw	r14, r24
    1302:	10 91 0c 38 	lds	r17, 0x380C	; 0x80380c <g_npz>
    1306:	13 30       	cpi	r17, 0x03	; 3
    1308:	08 f4       	brcc	.+2      	; 0x130c <L0^A+0x2>

0000130a <L0^A>:
    130a:	60 c1       	rjmp	.+704    	; 0x15cc <.L173>
    130c:	80 90 04 38 	lds	r8, 0x3804	; 0x803804 <g_sums>
    1310:	90 90 05 38 	lds	r9, 0x3805	; 0x803805 <g_sums+0x1>
    1314:	a0 90 06 38 	lds	r10, 0x3806	; 0x803806 <g_sums+0x2>
    1318:	b0 90 07 38 	lds	r11, 0x3807	; 0x803807 <g_sums+0x3>
    131c:	40 90 08 38 	lds	r4, 0x3808	; 0x803808 <g_sumc>
    1320:	50 90 09 38 	lds	r5, 0x3809	; 0x803809 <g_sumc+0x1>
    1324:	60 90 0a 38 	lds	r6, 0x380A	; 0x80380a <g_sumc+0x2>
    1328:	70 90 0b 38 	lds	r7, 0x380B	; 0x80380b <g_sumc+0x3>
    132c:	92 01       	movw	r18, r4
    132e:	a3 01       	movw	r20, r6
    1330:	b2 01       	movw	r22, r4
    1332:	c3 01       	movw	r24, r6
    1334:	0e 94 2a 0f 	call	0x1e54	; 0x1e54 <__mulsf3>
    1338:	6c 87       	std	Y+12, r22	; 0x0c
    133a:	7d 87       	std	Y+13, r23	; 0x0d
    133c:	8e 87       	std	Y+14, r24	; 0x0e
    133e:	9f 87       	std	Y+15, r25	; 0x0f
    1340:	94 01       	movw	r18, r8
    1342:	a5 01       	movw	r20, r10
    1344:	b4 01       	movw	r22, r8
    1346:	c5 01       	movw	r24, r10
    1348:	0e 94 2a 0f 	call	0x1e54	; 0x1e54 <__mulsf3>
    134c:	9b 01       	movw	r18, r22
    134e:	ac 01       	movw	r20, r24
    1350:	6c 85       	ldd	r22, Y+12	; 0x0c
    1352:	7d 85       	ldd	r23, Y+13	; 0x0d
    1354:	8e 85       	ldd	r24, Y+14	; 0x0e
    1356:	9f 85       	ldd	r25, Y+15	; 0x0f
    1358:	0e 94 62 0e 	call	0x1cc4	; 0x1cc4 <__addsf3>
    135c:	0e 94 1d 0e 	call	0x1c3a	; 0x1c3a <sqrtf>
    1360:	6c 87       	std	Y+12, r22	; 0x0c
    1362:	7d 87       	std	Y+13, r23	; 0x0d
    1364:	8e 87       	std	Y+14, r24	; 0x0e
    1366:	9f 87       	std	Y+15, r25	; 0x0f
    1368:	61 2f       	mov	r22, r17
    136a:	70 e0       	ldi	r23, 0x00	; 0
    136c:	80 e0       	ldi	r24, 0x00	; 0
    136e:	90 e0       	ldi	r25, 0x00	; 0
    1370:	0e 94 d2 0e 	call	0x1da4	; 0x1da4 <__floatunsisf>
    1374:	9b 01       	movw	r18, r22
    1376:	ac 01       	movw	r20, r24
    1378:	6c 85       	ldd	r22, Y+12	; 0x0c
    137a:	7d 85       	ldd	r23, Y+13	; 0x0d
    137c:	8e 85       	ldd	r24, Y+14	; 0x0e
    137e:	9f 85       	ldd	r25, Y+15	; 0x0f
    1380:	0e 94 ce 0e 	call	0x1d9c	; 0x1d9c <__divsf3>
    1384:	6a 8f       	std	Y+26, r22	; 0x1a
    1386:	7b 8f       	std	Y+27, r23	; 0x1b
    1388:	8c 8f       	std	Y+28, r24	; 0x1c
    138a:	9d 8f       	std	Y+29, r25	; 0x1d
    138c:	20 e0       	ldi	r18, 0x00	; 0
    138e:	30 e0       	ldi	r19, 0x00	; 0
    1390:	48 ec       	ldi	r20, 0xC8	; 200
    1392:	52 e4       	ldi	r21, 0x42	; 66
    1394:	0e 94 2a 0f 	call	0x1e54	; 0x1e54 <__mulsf3>
    1398:	20 e0       	ldi	r18, 0x00	; 0
    139a:	30 e0       	ldi	r19, 0x00	; 0
    139c:	40 e0       	ldi	r20, 0x00	; 0
    139e:	5f e3       	ldi	r21, 0x3F	; 63
    13a0:	0e 94 62 0e 	call	0x1cc4	; 0x1cc4 <__addsf3>
    13a4:	0e 94 3a 0f 	call	0x1e74	; 0x1e74 <__fixunssfsi>
    13a8:	d6 2e       	mov	r13, r22
    13aa:	92 01       	movw	r18, r4
    13ac:	a3 01       	movw	r20, r6
    13ae:	b4 01       	movw	r22, r8
    13b0:	c5 01       	movw	r24, r10
    13b2:	0e 94 16 0b 	call	0x162c	; 0x162c <atan2f>
    13b6:	2b ed       	ldi	r18, 0xDB	; 219
    13b8:	3f e0       	ldi	r19, 0x0F	; 15
    13ba:	49 ec       	ldi	r20, 0xC9	; 201
    13bc:	50 e4       	ldi	r21, 0x40	; 64
    13be:	0e 94 ce 0e 	call	0x1d9c	; 0x1d9c <__divsf3>
    13c2:	76 2e       	mov	r7, r22
    13c4:	07 2f       	mov	r16, r23
    13c6:	18 2f       	mov	r17, r24
    13c8:	c9 2e       	mov	r12, r25
    13ca:	40 e0       	ldi	r20, 0x00	; 0
    13cc:	50 e0       	ldi	r21, 0x00	; 0
    13ce:	9a 01       	movw	r18, r20
    13d0:	0e 94 2e 0f 	call	0x1e5c	; 0x1e5c <__cmpsf2>
    13d4:	87 ff       	sbrs	r24, 7
    13d6:	0e c0       	rjmp	.+28     	; 0x13f4 <.L160>
    13d8:	20 e0       	ldi	r18, 0x00	; 0
    13da:	30 e0       	ldi	r19, 0x00	; 0
    13dc:	40 e8       	ldi	r20, 0x80	; 128
    13de:	5f e3       	ldi	r21, 0x3F	; 63
    13e0:	67 2d       	mov	r22, r7
    13e2:	70 2f       	mov	r23, r16
    13e4:	81 2f       	mov	r24, r17
    13e6:	9c 2d       	mov	r25, r12
    13e8:	0e 94 62 0e 	call	0x1cc4	; 0x1cc4 <__addsf3>
    13ec:	76 2e       	mov	r7, r22
    13ee:	07 2f       	mov	r16, r23
    13f0:	18 2f       	mov	r17, r24
    13f2:	c9 2e       	mov	r12, r25

000013f4 <.L160>:
    13f4:	20 e0       	ldi	r18, 0x00	; 0
    13f6:	30 e0       	ldi	r19, 0x00	; 0
    13f8:	41 e6       	ldi	r20, 0x61	; 97
    13fa:	55 e4       	ldi	r21, 0x45	; 69
    13fc:	67 2d       	mov	r22, r7
    13fe:	70 2f       	mov	r23, r16
    1400:	81 2f       	mov	r24, r17
    1402:	9c 2d       	mov	r25, r12
    1404:	0e 94 2a 0f 	call	0x1e54	; 0x1e54 <__mulsf3>
    1408:	0e 94 4f 0d 	call	0x1a9e	; 0x1a9e <lroundf>
    140c:	6c 87       	std	Y+12, r22	; 0x0c
    140e:	7d 87       	std	Y+13, r23	; 0x0d
    1410:	2a e9       	ldi	r18, 0x9A	; 154
    1412:	39 e9       	ldi	r19, 0x99	; 153
    1414:	49 e1       	ldi	r20, 0x19	; 25
    1416:	5f e3       	ldi	r21, 0x3F	; 63
    1418:	6a 8d       	ldd	r22, Y+26	; 0x1a
    141a:	7b 8d       	ldd	r23, Y+27	; 0x1b
    141c:	8c 8d       	ldd	r24, Y+28	; 0x1c
    141e:	9d 8d       	ldd	r25, Y+29	; 0x1d
    1420:	0e 94 2e 0f 	call	0x1e5c	; 0x1e5c <__cmpsf2>
    1424:	87 fd       	sbrc	r24, 7
    1426:	da c0       	rjmp	.+436    	; 0x15dc <.L175>
    1428:	68 85       	ldd	r22, Y+8	; 0x08
    142a:	79 85       	ldd	r23, Y+9	; 0x09
    142c:	8a 85       	ldd	r24, Y+10	; 0x0a
    142e:	9b 85       	ldd	r25, Y+11	; 0x0b
    1430:	0e 94 d4 0e 	call	0x1da8	; 0x1da8 <__floatsisf>
    1434:	20 e0       	ldi	r18, 0x00	; 0
    1436:	30 e4       	ldi	r19, 0x40	; 64
    1438:	4c e9       	ldi	r20, 0x9C	; 156
    143a:	57 e4       	ldi	r21, 0x47	; 71
    143c:	0e 94 ce 0e 	call	0x1d9c	; 0x1d9c <__divsf3>
    1440:	4b 01       	movw	r8, r22
    1442:	5c 01       	movw	r10, r24
    1444:	9b 01       	movw	r18, r22
    1446:	ac 01       	movw	r20, r24
    1448:	67 2d       	mov	r22, r7
    144a:	70 2f       	mov	r23, r16
    144c:	81 2f       	mov	r24, r17
    144e:	9c 2d       	mov	r25, r12
    1450:	0e 94 2a 0f 	call	0x1e54	; 0x1e54 <__mulsf3>
    1454:	2b 01       	movw	r4, r22
    1456:	3c 01       	movw	r6, r24
    1458:	b7 01       	movw	r22, r14
    145a:	80 e0       	ldi	r24, 0x00	; 0
    145c:	90 e0       	ldi	r25, 0x00	; 0
    145e:	0e 94 d2 0e 	call	0x1da4	; 0x1da4 <__floatunsisf>
    1462:	68 87       	std	Y+8, r22	; 0x08
    1464:	79 87       	std	Y+9, r23	; 0x09
    1466:	8a 87       	std	Y+10, r24	; 0x0a
    1468:	9b 87       	std	Y+11, r25	; 0x0b
    146a:	92 01       	movw	r18, r4
    146c:	a3 01       	movw	r20, r6
    146e:	0e 94 61 0e 	call	0x1cc2	; 0x1cc2 <__subsf3>
    1472:	94 01       	movw	r18, r8
    1474:	a5 01       	movw	r20, r10
    1476:	0e 94 ce 0e 	call	0x1d9c	; 0x1d9c <__divsf3>
    147a:	0e 94 eb 0d 	call	0x1bd6	; 0x1bd6 <roundf>
    147e:	9b 01       	movw	r18, r22
    1480:	ac 01       	movw	r20, r24
    1482:	b4 01       	movw	r22, r8
    1484:	c5 01       	movw	r24, r10
    1486:	0e 94 2a 0f 	call	0x1e54	; 0x1e54 <__mulsf3>
    148a:	92 01       	movw	r18, r4
    148c:	a3 01       	movw	r20, r6
    148e:	0e 94 62 0e 	call	0x1cc4	; 0x1cc4 <__addsf3>
    1492:	76 2e       	mov	r7, r22
    1494:	07 2f       	mov	r16, r23
    1496:	18 2f       	mov	r17, r24
    1498:	c9 2e       	mov	r12, r25
    149a:	28 85       	ldd	r18, Y+8	; 0x08
    149c:	39 85       	ldd	r19, Y+9	; 0x09
    149e:	4a 85       	ldd	r20, Y+10	; 0x0a
    14a0:	5b 85       	ldd	r21, Y+11	; 0x0b
    14a2:	0e 94 61 0e 	call	0x1cc2	; 0x1cc2 <__subsf3>
    14a6:	9b 01       	movw	r18, r22
    14a8:	ac 01       	movw	r20, r24
    14aa:	5f 77       	andi	r21, 0x7F	; 127
    14ac:	28 87       	std	Y+8, r18	; 0x08
    14ae:	39 87       	std	Y+9, r19	; 0x09
    14b0:	4a 87       	std	Y+10, r20	; 0x0a
    14b2:	5b 87       	std	Y+11, r21	; 0x0b
    14b4:	20 e0       	ldi	r18, 0x00	; 0
    14b6:	30 e0       	ldi	r19, 0x00	; 0
    14b8:	40 e0       	ldi	r20, 0x00	; 0
    14ba:	5f e3       	ldi	r21, 0x3F	; 63
    14bc:	b4 01       	movw	r22, r8
    14be:	c5 01       	movw	r24, r10
    14c0:	0e 94 2a 0f 	call	0x1e54	; 0x1e54 <__mulsf3>
    14c4:	9b 01       	movw	r18, r22
    14c6:	ac 01       	movw	r20, r24
    14c8:	68 85       	ldd	r22, Y+8	; 0x08
    14ca:	79 85       	ldd	r23, Y+9	; 0x09
    14cc:	8a 85       	ldd	r24, Y+10	; 0x0a
    14ce:	9b 85       	ldd	r25, Y+11	; 0x0b
    14d0:	0e 94 8d 0f 	call	0x1f1a	; 0x1f1a <__gesf2>
    14d4:	18 16       	cp	r1, r24
    14d6:	0c f4       	brge	.+2      	; 0x14da <L0^A+0x2>

000014d8 <L0^A>:
    14d8:	81 c0       	rjmp	.+258    	; 0x15dc <.L175>
    14da:	40 e0       	ldi	r20, 0x00	; 0
    14dc:	50 e0       	ldi	r21, 0x00	; 0
    14de:	9a 01       	movw	r18, r20
    14e0:	67 2d       	mov	r22, r7
    14e2:	70 2f       	mov	r23, r16
    14e4:	81 2f       	mov	r24, r17
    14e6:	9c 2d       	mov	r25, r12
    14e8:	0e 94 2e 0f 	call	0x1e5c	; 0x1e5c <__cmpsf2>
    14ec:	87 fd       	sbrc	r24, 7
    14ee:	69 c0       	rjmp	.+210    	; 0x15c2 <.L176>
    14f0:	20 e0       	ldi	r18, 0x00	; 0
    14f2:	3e ef       	ldi	r19, 0xFE	; 254
    14f4:	4f e7       	ldi	r20, 0x7F	; 127
    14f6:	57 e4       	ldi	r21, 0x47	; 71
    14f8:	67 2d       	mov	r22, r7
    14fa:	70 2f       	mov	r23, r16
    14fc:	81 2f       	mov	r24, r17
    14fe:	9c 2d       	mov	r25, r12
    1500:	0e 94 8d 0f 	call	0x1f1a	; 0x1f1a <__gesf2>
    1504:	18 16       	cp	r1, r24
    1506:	0c f0       	brlt	.+2      	; 0x150a <L0^A+0x2>

00001508 <L0^A>:
    1508:	5a c0       	rjmp	.+180    	; 0x15be <.L189>
    150a:	71 2c       	mov	r7, r1
    150c:	0e ef       	ldi	r16, 0xFE	; 254
    150e:	1f e7       	ldi	r17, 0x7F	; 127
    1510:	87 e4       	ldi	r24, 0x47	; 71

00001512 <.L162>:
    1512:	67 2d       	mov	r22, r7
    1514:	70 2f       	mov	r23, r16
    1516:	98 2f       	mov	r25, r24
    1518:	81 2f       	mov	r24, r17
    151a:	0e 94 4f 0d 	call	0x1a9e	; 0x1a9e <lroundf>
    151e:	16 2f       	mov	r17, r22
    1520:	07 2f       	mov	r16, r23

00001522 <.L159>:
    1522:	88 e8       	ldi	r24, 0x88	; 136
    1524:	95 ea       	ldi	r25, 0xA5	; 165
    1526:	0e 94 64 00 	call	0xc8	; 0xc8 <usart_print>
    152a:	81 2f       	mov	r24, r17
    152c:	90 2f       	mov	r25, r16
    152e:	0e 94 71 00 	call	0xe2	; 0xe2 <usart_print_u16>
    1532:	8b e8       	ldi	r24, 0x8B	; 139
    1534:	95 ea       	ldi	r25, 0xA5	; 165
    1536:	0e 94 64 00 	call	0xc8	; 0xc8 <usart_print>
    153a:	c7 01       	movw	r24, r14
    153c:	0e 94 71 00 	call	0xe2	; 0xe2 <usart_print_u16>
    1540:	83 e9       	ldi	r24, 0x93	; 147
    1542:	95 ea       	ldi	r25, 0xA5	; 165
    1544:	0e 94 64 00 	call	0xc8	; 0xc8 <usart_print>
    1548:	ec 84       	ldd	r14, Y+12	; 0x0c
    154a:	fd 84       	ldd	r15, Y+13	; 0x0d
    154c:	00 ef       	ldi	r16, 0xF0	; 240
    154e:	e0 16       	cp	r14, r16
    1550:	01 ef       	ldi	r16, 0xF1	; 241
    1552:	f0 06       	cpc	r15, r16
    1554:	09 f0       	breq	.+2      	; 0x1558 <L0^A+0x2>

00001556 <L0^A>:
    1556:	45 c0       	rjmp	.+138    	; 0x15e2 <.L166>
    1558:	88 e9       	ldi	r24, 0x98	; 152
    155a:	95 ea       	ldi	r25, 0xA5	; 165
    155c:	0e 94 64 00 	call	0xc8	; 0xc8 <usart_print>

00001560 <.L167>:
    1560:	8b e9       	ldi	r24, 0x9B	; 155
    1562:	95 ea       	ldi	r25, 0xA5	; 165
    1564:	0e 94 64 00 	call	0xc8	; 0xc8 <usart_print>
    1568:	8d 2d       	mov	r24, r13
    156a:	90 e0       	ldi	r25, 0x00	; 0
    156c:	0e 94 71 00 	call	0xe2	; 0xe2 <usart_print_u16>
    1570:	8c e7       	ldi	r24, 0x7C	; 124
    1572:	95 ea       	ldi	r25, 0xA5	; 165
    1574:	0e 94 64 00 	call	0xc8	; 0xc8 <usart_print>
    1578:	88 8d       	ldd	r24, Y+24	; 0x18
    157a:	99 8d       	ldd	r25, Y+25	; 0x19
    157c:	0e 94 b2 00 	call	0x164	; 0x164 <usart_print_temp_dC>
    1580:	81 ea       	ldi	r24, 0xA1	; 161
    1582:	95 ea       	ldi	r25, 0xA5	; 165
    1584:	0e 94 64 00 	call	0xc8	; 0xc8 <usart_print>
    1588:	18 89       	ldd	r17, Y+16	; 0x10
    158a:	81 2f       	mov	r24, r17
    158c:	90 e0       	ldi	r25, 0x00	; 0
    158e:	0e 94 71 00 	call	0xe2	; 0xe2 <usart_print_u16>
    1592:	84 e8       	ldi	r24, 0x84	; 132
    1594:	95 ea       	ldi	r25, 0xA5	; 165
    1596:	0e 94 64 00 	call	0xc8	; 0xc8 <usart_print>
    159a:	89 e0       	ldi	r24, 0x09	; 9
    159c:	90 e0       	ldi	r25, 0x00	; 0
    159e:	0e 94 71 00 	call	0xe2	; 0xe2 <usart_print_u16>
    15a2:	84 ea       	ldi	r24, 0xA4	; 164
    15a4:	95 ea       	ldi	r25, 0xA5	; 165
    15a6:	0e 94 64 00 	call	0xc8	; 0xc8 <usart_print>
    15aa:	80 91 16 38 	lds	r24, 0x3816	; 0x803816 <diag_peak>
    15ae:	90 91 17 38 	lds	r25, 0x3817	; 0x803817 <diag_peak+0x1>
    15b2:	7b cd       	rjmp	.-1290   	; 0x10aa <.L191>

000015b4 <.L157>:
    15b4:	b7 ff       	sbrs	r27, 7
    15b6:	a4 ce       	rjmp	.-696    	; 0x1300 <.L158>
    15b8:	80 e0       	ldi	r24, 0x00	; 0
    15ba:	90 e0       	ldi	r25, 0x00	; 0
    15bc:	a1 ce       	rjmp	.-702    	; 0x1300 <.L158>

000015be <.L189>:
    15be:	8c 2d       	mov	r24, r12
    15c0:	a8 cf       	rjmp	.-176    	; 0x1512 <.L162>

000015c2 <.L176>:
    15c2:	71 2c       	mov	r7, r1
    15c4:	00 e0       	ldi	r16, 0x00	; 0
    15c6:	10 e0       	ldi	r17, 0x00	; 0
    15c8:	80 e0       	ldi	r24, 0x00	; 0
    15ca:	a3 cf       	rjmp	.-186    	; 0x1512 <.L162>

000015cc <.L173>:
    15cc:	d1 2c       	mov	r13, r1
    15ce:	18 2f       	mov	r17, r24
    15d0:	09 2f       	mov	r16, r25
    15d2:	30 ef       	ldi	r19, 0xF0	; 240
    15d4:	3c 87       	std	Y+12, r19	; 0x0c
    15d6:	41 ef       	ldi	r20, 0xF1	; 241
    15d8:	4d 87       	std	Y+13, r20	; 0x0d
    15da:	a3 cf       	rjmp	.-186    	; 0x1522 <.L159>

000015dc <.L175>:
    15dc:	1e 2d       	mov	r17, r14
    15de:	0f 2d       	mov	r16, r15
    15e0:	a0 cf       	rjmp	.-192    	; 0x1522 <.L159>

000015e2 <.L166>:
    15e2:	8c 85       	ldd	r24, Y+12	; 0x0c
    15e4:	9d 85       	ldd	r25, Y+13	; 0x0d
    15e6:	6a e0       	ldi	r22, 0x0A	; 10
    15e8:	70 e0       	ldi	r23, 0x00	; 0
    15ea:	0e 94 cd 0f 	call	0x1f9a	; 0x1f9a <__divmodhi4>
    15ee:	18 2f       	mov	r17, r24
    15f0:	cb 01       	movw	r24, r22
    15f2:	0e 94 71 00 	call	0xe2	; 0xe2 <usart_print_u16>
    15f6:	8e e2       	ldi	r24, 0x2E	; 46
    15f8:	0e 94 5d 00 	call	0xba	; 0xba <usart_putc>
    15fc:	80 e3       	ldi	r24, 0x30	; 48
    15fe:	81 0f       	add	r24, r17
    1600:	0e 94 5d 00 	call	0xba	; 0xba <usart_putc>
    1604:	ad cf       	rjmp	.-166    	; 0x1560 <.L167>

00001606 <.L_nf>:
    1606:	0e 94 58 0c 	call	0x18b0	; 0x18b0 <__fp_pscA>
    160a:	60 f0       	brcs	.+24     	; 0x1624 <.L_nan>
    160c:	80 e8       	ldi	r24, 0x80	; 128
    160e:	91 e0       	ldi	r25, 0x01	; 1
    1610:	09 f4       	brne	.+2      	; 0x1614 <.L1^B1>
    1612:	9e ef       	ldi	r25, 0xFE	; 254

00001614 <.L1^B1>:
    1614:	0e 94 5f 0c 	call	0x18be	; 0x18be <__fp_pscB>
    1618:	28 f0       	brcs	.+10     	; 0x1624 <.L_nan>
    161a:	40 e8       	ldi	r20, 0x80	; 128
    161c:	51 e0       	ldi	r21, 0x01	; 1
    161e:	71 f4       	brne	.+28     	; 0x163c <.L_cmp>
    1620:	5e ef       	ldi	r21, 0xFE	; 254
    1622:	0c c0       	rjmp	.+24     	; 0x163c <.L_cmp>

00001624 <.L_nan>:
    1624:	0c 94 2e 0c 	jmp	0x185c	; 0x185c <__fp_nan>

00001628 <.L_zr>:
    1628:	0c 94 f0 0c 	jmp	0x19e0	; 0x19e0 <__fp_zero>

0000162c <atan2f>:
    162c:	e9 2f       	mov	r30, r25
    162e:	e0 78       	andi	r30, 0x80	; 128
    1630:	0e 94 b6 0c 	call	0x196c	; 0x196c <__fp_split3>
    1634:	40 f3       	brcs	.-48     	; 0x1606 <.L_nf>
    1636:	09 2e       	mov	r0, r25
    1638:	05 2a       	or	r0, r21
    163a:	b1 f3       	breq	.-20     	; 0x1628 <.L_zr>

0000163c <.L_cmp>:
    163c:	26 17       	cp	r18, r22
    163e:	37 07       	cpc	r19, r23
    1640:	48 07       	cpc	r20, r24
    1642:	59 07       	cpc	r21, r25
    1644:	38 f0       	brcs	.+14     	; 0x1654 <.L1^B2>
    1646:	0e 2e       	mov	r0, r30
    1648:	07 f8       	bld	r0, 7
    164a:	e0 25       	eor	r30, r0
    164c:	69 f0       	breq	.+26     	; 0x1668 <.L2^B1>
    164e:	e0 25       	eor	r30, r0
    1650:	e0 64       	ori	r30, 0x40	; 64
    1652:	0a c0       	rjmp	.+20     	; 0x1668 <.L2^B1>

00001654 <.L1^B2>:
    1654:	ef 63       	ori	r30, 0x3F	; 63
    1656:	07 f8       	bld	r0, 7
    1658:	00 94       	com	r0
    165a:	07 fa       	bst	r0, 7
    165c:	db 01       	movw	r26, r22
    165e:	b9 01       	movw	r22, r18
    1660:	9d 01       	movw	r18, r26
    1662:	dc 01       	movw	r26, r24
    1664:	ca 01       	movw	r24, r20
    1666:	ad 01       	movw	r20, r26

00001668 <.L2^B1>:
    1668:	ef 93       	push	r30
    166a:	0e 94 8d 0b 	call	0x171a	; 0x171a <__divsf3_pse>
    166e:	0e 94 91 0c 	call	0x1922	; 0x1922 <__fp_round>
    1672:	0e 94 46 0b 	call	0x168c	; 0x168c <atanf>
    1676:	5f 91       	pop	r21
    1678:	55 23       	and	r21, r21
    167a:	39 f0       	breq	.+14     	; 0x168a <.L9^B1>
    167c:	2b ed       	ldi	r18, 0xDB	; 219
    167e:	3f e0       	ldi	r19, 0x0F	; 15
    1680:	49 e4       	ldi	r20, 0x49	; 73
    1682:	50 fd       	sbrc	r21, 0
    1684:	49 ec       	ldi	r20, 0xC9	; 201
    1686:	0c 94 62 0e 	jmp	0x1cc4	; 0x1cc4 <__addsf3>

0000168a <.L9^B1>:
    168a:	08 95       	ret

0000168c <atanf>:
    168c:	df 93       	push	r29
    168e:	dd 27       	eor	r29, r29
    1690:	b9 2f       	mov	r27, r25
    1692:	bf 77       	andi	r27, 0x7F	; 127
    1694:	40 e8       	ldi	r20, 0x80	; 128
    1696:	5f e3       	ldi	r21, 0x3F	; 63
    1698:	16 16       	cp	r1, r22
    169a:	17 06       	cpc	r1, r23
    169c:	48 07       	cpc	r20, r24
    169e:	5b 07       	cpc	r21, r27
    16a0:	18 f4       	brcc	.+6      	; 0x16a8 <.L1^B1>
    16a2:	d9 2f       	mov	r29, r25
    16a4:	0e 94 f7 0c 	call	0x19ee	; 0x19ee <__inversef>

000016a8 <.L1^B1>:
    16a8:	9f 93       	push	r25
    16aa:	8f 93       	push	r24
    16ac:	7f 93       	push	r23
    16ae:	6f 93       	push	r22
    16b0:	0e 94 5d 0e 	call	0x1cba	; 0x1cba <squaref>
    16b4:	ea eb       	ldi	r30, 0xBA	; 186
    16b6:	f3 e2       	ldi	r31, 0x23	; 35
    16b8:	0e 94 31 0c 	call	0x1862	; 0x1862 <__fp_powser>
    16bc:	0e 94 91 0c 	call	0x1922	; 0x1922 <__fp_round>
    16c0:	2f 91       	pop	r18
    16c2:	3f 91       	pop	r19
    16c4:	4f 91       	pop	r20
    16c6:	5f 91       	pop	r21
    16c8:	0e 94 91 0d 	call	0x1b22	; 0x1b22 <__mulsf3x>
    16cc:	dd 23       	and	r29, r29
    16ce:	51 f0       	breq	.+20     	; 0x16e4 <.L2^B1>
    16d0:	90 58       	subi	r25, 0x80	; 128
    16d2:	a2 ea       	ldi	r26, 0xA2	; 162
    16d4:	2a ed       	ldi	r18, 0xDA	; 218
    16d6:	3f e0       	ldi	r19, 0x0F	; 15
    16d8:	49 ec       	ldi	r20, 0xC9	; 201
    16da:	5f e3       	ldi	r21, 0x3F	; 63
    16dc:	d0 78       	andi	r29, 0x80	; 128
    16de:	5d 27       	eor	r21, r29
    16e0:	0e 94 79 0e 	call	0x1cf2	; 0x1cf2 <__addsf3x>

000016e4 <.L2^B1>:
    16e4:	df 91       	pop	r29
    16e6:	0c 94 91 0c 	jmp	0x1922	; 0x1922 <__fp_round>

000016ea <cosf>:
    16ea:	0e 94 68 0c 	call	0x18d0	; 0x18d0 <__fp_rempio2>
    16ee:	e3 95       	inc	r30
    16f0:	0c 94 a2 0c 	jmp	0x1944	; 0x1944 <__fp_sinus>

000016f4 <.L0^B1>:
    16f4:	0e 94 5f 0c 	call	0x18be	; 0x18be <__fp_pscB>
    16f8:	58 f0       	brcs	.+22     	; 0x1710 <.L_nan>
    16fa:	0e 94 58 0c 	call	0x18b0	; 0x18b0 <__fp_pscA>
    16fe:	40 f0       	brcs	.+16     	; 0x1710 <.L_nan>
    1700:	29 f4       	brne	.+10     	; 0x170c <.L_zr>
    1702:	5f 3f       	cpi	r21, 0xFF	; 255
    1704:	29 f0       	breq	.+10     	; 0x1710 <.L_nan>

00001706 <.L_inf>:
    1706:	0c 94 ff 0b 	jmp	0x17fe	; 0x17fe <__fp_inf>

0000170a <.L1^B1>:
    170a:	51 11       	cpse	r21, r1

0000170c <.L_zr>:
    170c:	0c 94 f1 0c 	jmp	0x19e2	; 0x19e2 <__fp_szero>

00001710 <.L_nan>:
    1710:	0c 94 2e 0c 	jmp	0x185c	; 0x185c <__fp_nan>

00001714 <__divsf3x>:
    1714:	0e 94 b6 0c 	call	0x196c	; 0x196c <__fp_split3>
    1718:	68 f3       	brcs	.-38     	; 0x16f4 <.L0^B1>

0000171a <__divsf3_pse>:
    171a:	99 23       	and	r25, r25
    171c:	b1 f3       	breq	.-20     	; 0x170a <.L1^B1>
    171e:	55 23       	and	r21, r21
    1720:	91 f3       	breq	.-28     	; 0x1706 <.L_inf>
    1722:	95 1b       	sub	r25, r21
    1724:	55 0b       	sbc	r21, r21
    1726:	bb 27       	eor	r27, r27
    1728:	aa 27       	eor	r26, r26

0000172a <.L2^B1>:
    172a:	62 17       	cp	r22, r18
    172c:	73 07       	cpc	r23, r19
    172e:	84 07       	cpc	r24, r20
    1730:	38 f0       	brcs	.+14     	; 0x1740 <.L3^B1>
    1732:	9f 5f       	subi	r25, 0xFF	; 255
    1734:	5f 4f       	sbci	r21, 0xFF	; 255
    1736:	22 0f       	add	r18, r18
    1738:	33 1f       	adc	r19, r19
    173a:	44 1f       	adc	r20, r20
    173c:	aa 1f       	adc	r26, r26
    173e:	a9 f3       	breq	.-22     	; 0x172a <.L2^B1>

00001740 <.L3^B1>:
    1740:	35 d0       	rcall	.+106    	; 0x17ac <.L_div>
    1742:	0e 2e       	mov	r0, r30
    1744:	3a f0       	brmi	.+14     	; 0x1754 <.L5^B1>

00001746 <.L4^B1>:
    1746:	e0 e8       	ldi	r30, 0x80	; 128
    1748:	32 d0       	rcall	.+100    	; 0x17ae <.L_div1>
    174a:	91 50       	subi	r25, 0x01	; 1
    174c:	50 40       	sbci	r21, 0x00	; 0
    174e:	e6 95       	lsr	r30
    1750:	00 1c       	adc	r0, r0
    1752:	ca f7       	brpl	.-14     	; 0x1746 <.L4^B1>

00001754 <.L5^B1>:
    1754:	2b d0       	rcall	.+86     	; 0x17ac <.L_div>
    1756:	fe 2f       	mov	r31, r30
    1758:	29 d0       	rcall	.+82     	; 0x17ac <.L_div>
    175a:	66 0f       	add	r22, r22
    175c:	77 1f       	adc	r23, r23
    175e:	88 1f       	adc	r24, r24
    1760:	bb 1f       	adc	r27, r27
    1762:	26 17       	cp	r18, r22
    1764:	37 07       	cpc	r19, r23
    1766:	48 07       	cpc	r20, r24
    1768:	ab 07       	cpc	r26, r27
    176a:	b0 e8       	ldi	r27, 0x80	; 128
    176c:	09 f0       	breq	.+2      	; 0x1770 <.L4^B2>
    176e:	bb 0b       	sbc	r27, r27

00001770 <.L4^B2>:
    1770:	80 2d       	mov	r24, r0
    1772:	bf 01       	movw	r22, r30
    1774:	ff 27       	eor	r31, r31
    1776:	93 58       	subi	r25, 0x83	; 131
    1778:	5f 4f       	sbci	r21, 0xFF	; 255
    177a:	3a f0       	brmi	.+14     	; 0x178a <.L13^B1>
    177c:	9e 3f       	cpi	r25, 0xFE	; 254
    177e:	51 05       	cpc	r21, r1
    1780:	78 f0       	brcs	.+30     	; 0x17a0 <.L15^B1>
    1782:	0c 94 ff 0b 	jmp	0x17fe	; 0x17fe <__fp_inf>

00001786 <.L12^B1>:
    1786:	0c 94 f1 0c 	jmp	0x19e2	; 0x19e2 <__fp_szero>

0000178a <.L13^B1>:
    178a:	5f 3f       	cpi	r21, 0xFF	; 255
    178c:	e4 f3       	brlt	.-8      	; 0x1786 <.L12^B1>
    178e:	98 3e       	cpi	r25, 0xE8	; 232
    1790:	d4 f3       	brlt	.-12     	; 0x1786 <.L12^B1>

00001792 <.L14^B1>:
    1792:	86 95       	lsr	r24
    1794:	77 95       	ror	r23
    1796:	67 95       	ror	r22
    1798:	b7 95       	ror	r27
    179a:	f7 95       	ror	r31
    179c:	9f 5f       	subi	r25, 0xFF	; 255
    179e:	c9 f7       	brne	.-14     	; 0x1792 <.L14^B1>

000017a0 <.L15^B1>:
    17a0:	88 0f       	add	r24, r24
    17a2:	91 1d       	adc	r25, r1
    17a4:	96 95       	lsr	r25
    17a6:	87 95       	ror	r24
    17a8:	97 f9       	bld	r25, 7
    17aa:	08 95       	ret

000017ac <.L_div>:
    17ac:	e1 e0       	ldi	r30, 0x01	; 1

000017ae <.L_div1>:
    17ae:	66 0f       	add	r22, r22
    17b0:	77 1f       	adc	r23, r23
    17b2:	88 1f       	adc	r24, r24
    17b4:	bb 1f       	adc	r27, r27
    17b6:	62 17       	cp	r22, r18
    17b8:	73 07       	cpc	r23, r19
    17ba:	84 07       	cpc	r24, r20
    17bc:	ba 07       	cpc	r27, r26
    17be:	20 f0       	brcs	.+8      	; 0x17c8 <.L2^B2>
    17c0:	62 1b       	sub	r22, r18
    17c2:	73 0b       	sbc	r23, r19
    17c4:	84 0b       	sbc	r24, r20
    17c6:	ba 0b       	sbc	r27, r26

000017c8 <.L2^B2>:
    17c8:	ee 1f       	adc	r30, r30
    17ca:	88 f7       	brcc	.-30     	; 0x17ae <.L_div1>
    17cc:	e0 95       	com	r30
    17ce:	08 95       	ret

000017d0 <floorf>:
    17d0:	0e 94 d8 0c 	call	0x19b0	; 0x19b0 <__fp_trunc>
    17d4:	90 f0       	brcs	.+36     	; 0x17fa <.L_nf>
    17d6:	9f 37       	cpi	r25, 0x7F	; 127
    17d8:	48 f4       	brcc	.+18     	; 0x17ec <.L2^B1>
    17da:	91 11       	cpse	r25, r1
    17dc:	16 f0       	brts	.+4      	; 0x17e2 <.L1^B1>
    17de:	0c 94 f1 0c 	jmp	0x19e2	; 0x19e2 <__fp_szero>

000017e2 <.L1^B1>:
    17e2:	60 e0       	ldi	r22, 0x00	; 0
    17e4:	70 e0       	ldi	r23, 0x00	; 0
    17e6:	80 e8       	ldi	r24, 0x80	; 128
    17e8:	9f eb       	ldi	r25, 0xBF	; 191
    17ea:	08 95       	ret

000017ec <.L2^B1>:
    17ec:	26 f4       	brtc	.+8      	; 0x17f6 <.L3^B1>
    17ee:	1b 16       	cp	r1, r27
    17f0:	61 1d       	adc	r22, r1
    17f2:	71 1d       	adc	r23, r1
    17f4:	81 1d       	adc	r24, r1

000017f6 <.L3^B1>:
    17f6:	0c 94 05 0c 	jmp	0x180a	; 0x180a <__fp_mintl>

000017fa <.L_nf>:
    17fa:	0c 94 20 0c 	jmp	0x1840	; 0x1840 <__fp_mpack>

000017fe <__fp_inf>:
    17fe:	97 f9       	bld	r25, 7
    1800:	9f 67       	ori	r25, 0x7F	; 127
    1802:	80 e8       	ldi	r24, 0x80	; 128
    1804:	70 e0       	ldi	r23, 0x00	; 0
    1806:	60 e0       	ldi	r22, 0x00	; 0
    1808:	08 95       	ret

0000180a <__fp_mintl>:
    180a:	88 23       	and	r24, r24
    180c:	71 f4       	brne	.+28     	; 0x182a <.L_bm>
    180e:	77 23       	and	r23, r23
    1810:	21 f0       	breq	.+8      	; 0x181a <.L1^B1>
    1812:	98 50       	subi	r25, 0x08	; 8
    1814:	87 2b       	or	r24, r23
    1816:	76 2f       	mov	r23, r22
    1818:	07 c0       	rjmp	.+14     	; 0x1828 <.L_a0>

0000181a <.L1^B1>:
    181a:	66 23       	and	r22, r22
    181c:	11 f4       	brne	.+4      	; 0x1822 <.L2^B1>
    181e:	99 27       	eor	r25, r25
    1820:	0d c0       	rjmp	.+26     	; 0x183c <.L_sign>

00001822 <.L2^B1>:
    1822:	90 51       	subi	r25, 0x10	; 16
    1824:	86 2b       	or	r24, r22
    1826:	70 e0       	ldi	r23, 0x00	; 0

00001828 <.L_a0>:
    1828:	60 e0       	ldi	r22, 0x00	; 0

0000182a <.L_bm>:
    182a:	2a f0       	brmi	.+10     	; 0x1836 <.L_pack>

0000182c <.Loop>:
    182c:	9a 95       	dec	r25
    182e:	66 0f       	add	r22, r22
    1830:	77 1f       	adc	r23, r23
    1832:	88 1f       	adc	r24, r24
    1834:	da f7       	brpl	.-10     	; 0x182c <.Loop>

00001836 <.L_pack>:
    1836:	88 0f       	add	r24, r24
    1838:	96 95       	lsr	r25
    183a:	87 95       	ror	r24

0000183c <.L_sign>:
    183c:	97 f9       	bld	r25, 7
    183e:	08 95       	ret

00001840 <__fp_mpack>:
    1840:	9f 3f       	cpi	r25, 0xFF	; 255
    1842:	31 f0       	breq	.+12     	; 0x1850 <.L1^B1>

00001844 <__fp_mpack_finite>:
    1844:	91 50       	subi	r25, 0x01	; 1
    1846:	20 f4       	brcc	.+8      	; 0x1850 <.L1^B1>
    1848:	87 95       	ror	r24
    184a:	77 95       	ror	r23
    184c:	67 95       	ror	r22
    184e:	b7 95       	ror	r27

00001850 <.L1^B1>:
    1850:	88 0f       	add	r24, r24
    1852:	91 1d       	adc	r25, r1
    1854:	96 95       	lsr	r25
    1856:	87 95       	ror	r24
    1858:	97 f9       	bld	r25, 7
    185a:	08 95       	ret

0000185c <__fp_nan>:
    185c:	9f ef       	ldi	r25, 0xFF	; 255
    185e:	80 ec       	ldi	r24, 0xC0	; 192
    1860:	08 95       	ret

00001862 <__fp_powser>:
    1862:	df 93       	push	r29
    1864:	cf 93       	push	r28
    1866:	1f 93       	push	r17
    1868:	0f 93       	push	r16
    186a:	ff 92       	push	r15
    186c:	ef 92       	push	r14
    186e:	df 92       	push	r13
    1870:	7b 01       	movw	r14, r22
    1872:	8c 01       	movw	r16, r24
    1874:	68 94       	set
    1876:	06 c0       	rjmp	.+12     	; 0x1884 <.Load5>

00001878 <.L1^B1>:
    1878:	da 2e       	mov	r13, r26

0000187a <.Loop>:
    187a:	ef 01       	movw	r28, r30
    187c:	0e 94 91 0d 	call	0x1b22	; 0x1b22 <__mulsf3x>
    1880:	fe 01       	movw	r30, r28
    1882:	e8 94       	clt

00001884 <.Load5>:
    1884:	a5 91       	lpm	r26, Z+
    1886:	25 91       	lpm	r18, Z+
    1888:	35 91       	lpm	r19, Z+
    188a:	45 91       	lpm	r20, Z+
    188c:	55 91       	lpm	r21, Z+
    188e:	a6 f3       	brts	.-24     	; 0x1878 <.L1^B1>
    1890:	ef 01       	movw	r28, r30
    1892:	0e 94 79 0e 	call	0x1cf2	; 0x1cf2 <__addsf3x>
    1896:	fe 01       	movw	r30, r28
    1898:	97 01       	movw	r18, r14
    189a:	a8 01       	movw	r20, r16
    189c:	da 94       	dec	r13
    189e:	69 f7       	brne	.-38     	; 0x187a <.Loop>
    18a0:	df 90       	pop	r13
    18a2:	ef 90       	pop	r14
    18a4:	ff 90       	pop	r15
    18a6:	0f 91       	pop	r16
    18a8:	1f 91       	pop	r17
    18aa:	cf 91       	pop	r28
    18ac:	df 91       	pop	r29
    18ae:	08 95       	ret

000018b0 <__fp_pscA>:
    18b0:	00 24       	eor	r0, r0
    18b2:	0a 94       	dec	r0
    18b4:	16 16       	cp	r1, r22
    18b6:	17 06       	cpc	r1, r23
    18b8:	18 06       	cpc	r1, r24
    18ba:	09 06       	cpc	r0, r25
    18bc:	08 95       	ret

000018be <__fp_pscB>:
    18be:	00 24       	eor	r0, r0
    18c0:	0a 94       	dec	r0
    18c2:	12 16       	cp	r1, r18
    18c4:	13 06       	cpc	r1, r19
    18c6:	14 06       	cpc	r1, r20
    18c8:	05 06       	cpc	r0, r21
    18ca:	08 95       	ret

000018cc <.L0^B1>:
    18cc:	0c 94 2e 0c 	jmp	0x185c	; 0x185c <__fp_nan>

000018d0 <__fp_rempio2>:
    18d0:	0e 94 be 0c 	call	0x197c	; 0x197c <__fp_splitA>
    18d4:	d8 f3       	brcs	.-10     	; 0x18cc <.L0^B1>
    18d6:	e8 94       	clt
    18d8:	e0 e0       	ldi	r30, 0x00	; 0
    18da:	bb 27       	eor	r27, r27
    18dc:	9f 57       	subi	r25, 0x7F	; 127
    18de:	f0 f0       	brcs	.+60     	; 0x191c <.L5^B1>
    18e0:	2a ed       	ldi	r18, 0xDA	; 218
    18e2:	3f e0       	ldi	r19, 0x0F	; 15
    18e4:	49 ec       	ldi	r20, 0xC9	; 201
    18e6:	06 c0       	rjmp	.+12     	; 0x18f4 <.L1^B1>

000018e8 <.Loop>:
    18e8:	ee 0f       	add	r30, r30
    18ea:	bb 0f       	add	r27, r27
    18ec:	66 1f       	adc	r22, r22
    18ee:	77 1f       	adc	r23, r23
    18f0:	88 1f       	adc	r24, r24
    18f2:	28 f0       	brcs	.+10     	; 0x18fe <.L2^B1>

000018f4 <.L1^B1>:
    18f4:	b2 3a       	cpi	r27, 0xA2	; 162
    18f6:	62 07       	cpc	r22, r18
    18f8:	73 07       	cpc	r23, r19
    18fa:	84 07       	cpc	r24, r20
    18fc:	28 f0       	brcs	.+10     	; 0x1908 <.L3^B1>

000018fe <.L2^B1>:
    18fe:	b2 5a       	subi	r27, 0xA2	; 162
    1900:	62 0b       	sbc	r22, r18
    1902:	73 0b       	sbc	r23, r19
    1904:	84 0b       	sbc	r24, r20
    1906:	e3 95       	inc	r30

00001908 <.L3^B1>:
    1908:	9a 95       	dec	r25
    190a:	72 f7       	brpl	.-36     	; 0x18e8 <.Loop>
    190c:	80 38       	cpi	r24, 0x80	; 128
    190e:	30 f4       	brcc	.+12     	; 0x191c <.L5^B1>

00001910 <.L4^B1>:
    1910:	9a 95       	dec	r25
    1912:	bb 0f       	add	r27, r27
    1914:	66 1f       	adc	r22, r22
    1916:	77 1f       	adc	r23, r23
    1918:	88 1f       	adc	r24, r24
    191a:	d2 f7       	brpl	.-12     	; 0x1910 <.L4^B1>

0000191c <.L5^B1>:
    191c:	90 48       	sbci	r25, 0x80	; 128
    191e:	0c 94 22 0c 	jmp	0x1844	; 0x1844 <__fp_mpack_finite>

00001922 <__fp_round>:
    1922:	09 2e       	mov	r0, r25
    1924:	03 94       	inc	r0
    1926:	00 0c       	add	r0, r0
    1928:	11 f4       	brne	.+4      	; 0x192e <.L1^B1>
    192a:	88 23       	and	r24, r24
    192c:	52 f0       	brmi	.+20     	; 0x1942 <.L3^B1>

0000192e <.L1^B1>:
    192e:	bb 0f       	add	r27, r27
    1930:	40 f4       	brcc	.+16     	; 0x1942 <.L3^B1>
    1932:	bf 2b       	or	r27, r31
    1934:	11 f4       	brne	.+4      	; 0x193a <.L2^B1>
    1936:	60 ff       	sbrs	r22, 0
    1938:	04 c0       	rjmp	.+8      	; 0x1942 <.L3^B1>

0000193a <.L2^B1>:
    193a:	6f 5f       	subi	r22, 0xFF	; 255
    193c:	7f 4f       	sbci	r23, 0xFF	; 255
    193e:	8f 4f       	sbci	r24, 0xFF	; 255
    1940:	9f 4f       	sbci	r25, 0xFF	; 255

00001942 <.L3^B1>:
    1942:	08 95       	ret

00001944 <__fp_sinus>:
    1944:	ef 93       	push	r30
    1946:	e0 ff       	sbrs	r30, 0
    1948:	07 c0       	rjmp	.+14     	; 0x1958 <.L1^B1>
    194a:	a2 ea       	ldi	r26, 0xA2	; 162
    194c:	2a ed       	ldi	r18, 0xDA	; 218
    194e:	3f e0       	ldi	r19, 0x0F	; 15
    1950:	49 ec       	ldi	r20, 0xC9	; 201
    1952:	5f eb       	ldi	r21, 0xBF	; 191
    1954:	0e 94 79 0e 	call	0x1cf2	; 0x1cf2 <__addsf3x>

00001958 <.L1^B1>:
    1958:	0e 94 91 0c 	call	0x1922	; 0x1922 <__fp_round>
    195c:	0f 90       	pop	r0
    195e:	03 94       	inc	r0
    1960:	01 fc       	sbrc	r0, 1
    1962:	90 58       	subi	r25, 0x80	; 128
    1964:	e7 ee       	ldi	r30, 0xE7	; 231
    1966:	f3 e2       	ldi	r31, 0x23	; 35
    1968:	0c 94 16 0f 	jmp	0x1e2c	; 0x1e2c <__fp_powsodd>

0000196c <__fp_split3>:
    196c:	57 fd       	sbrc	r21, 7
    196e:	90 58       	subi	r25, 0x80	; 128
    1970:	44 0f       	add	r20, r20
    1972:	55 1f       	adc	r21, r21
    1974:	59 f0       	breq	.+22     	; 0x198c <.L4^B1>
    1976:	5f 3f       	cpi	r21, 0xFF	; 255
    1978:	71 f0       	breq	.+28     	; 0x1996 <.L5^B1>

0000197a <.L1^B1>:
    197a:	47 95       	ror	r20

0000197c <__fp_splitA>:
    197c:	88 0f       	add	r24, r24
    197e:	97 fb       	bst	r25, 7
    1980:	99 1f       	adc	r25, r25
    1982:	61 f0       	breq	.+24     	; 0x199c <.L6^B1>
    1984:	9f 3f       	cpi	r25, 0xFF	; 255
    1986:	79 f0       	breq	.+30     	; 0x19a6 <.L7^B1>

00001988 <.L3^B1>:
    1988:	87 95       	ror	r24
    198a:	08 95       	ret

0000198c <.L4^B1>:
    198c:	12 16       	cp	r1, r18
    198e:	13 06       	cpc	r1, r19
    1990:	14 06       	cpc	r1, r20
    1992:	55 1f       	adc	r21, r21
    1994:	f2 cf       	rjmp	.-28     	; 0x197a <.L1^B1>

00001996 <.L5^B1>:
    1996:	46 95       	lsr	r20
    1998:	f1 df       	rcall	.-30     	; 0x197c <__fp_splitA>
    199a:	08 c0       	rjmp	.+16     	; 0x19ac <.L8^B1>

0000199c <.L6^B1>:
    199c:	16 16       	cp	r1, r22
    199e:	17 06       	cpc	r1, r23
    19a0:	18 06       	cpc	r1, r24
    19a2:	99 1f       	adc	r25, r25
    19a4:	f1 cf       	rjmp	.-30     	; 0x1988 <.L3^B1>

000019a6 <.L7^B1>:
    19a6:	86 95       	lsr	r24
    19a8:	71 05       	cpc	r23, r1
    19aa:	61 05       	cpc	r22, r1

000019ac <.L8^B1>:
    19ac:	08 94       	sec
    19ae:	08 95       	ret

000019b0 <__fp_trunc>:
    19b0:	0e 94 be 0c 	call	0x197c	; 0x197c <__fp_splitA>
    19b4:	a0 f0       	brcs	.+40     	; 0x19de <.L9^B1>
    19b6:	be e7       	ldi	r27, 0x7E	; 126
    19b8:	b9 17       	cp	r27, r25
    19ba:	88 f4       	brcc	.+34     	; 0x19de <.L9^B1>
    19bc:	bb 27       	eor	r27, r27

000019be <.L3^B1>:
    19be:	9f 38       	cpi	r25, 0x8F	; 143
    19c0:	60 f4       	brcc	.+24     	; 0x19da <.L5^B1>
    19c2:	16 16       	cp	r1, r22
    19c4:	b1 1d       	adc	r27, r1
    19c6:	67 2f       	mov	r22, r23
    19c8:	78 2f       	mov	r23, r24
    19ca:	88 27       	eor	r24, r24
    19cc:	98 5f       	subi	r25, 0xF8	; 248
    19ce:	f7 cf       	rjmp	.-18     	; 0x19be <.L3^B1>

000019d0 <.L4^B1>:
    19d0:	86 95       	lsr	r24
    19d2:	77 95       	ror	r23
    19d4:	67 95       	ror	r22
    19d6:	b1 1d       	adc	r27, r1
    19d8:	93 95       	inc	r25

000019da <.L5^B1>:
    19da:	96 39       	cpi	r25, 0x96	; 150
    19dc:	c8 f3       	brcs	.-14     	; 0x19d0 <.L4^B1>

000019de <.L9^B1>:
    19de:	08 95       	ret

000019e0 <__fp_zero>:
    19e0:	e8 94       	clt

000019e2 <__fp_szero>:
    19e2:	bb 27       	eor	r27, r27
    19e4:	66 27       	eor	r22, r22
    19e6:	77 27       	eor	r23, r23
    19e8:	cb 01       	movw	r24, r22
    19ea:	97 f9       	bld	r25, 7
    19ec:	08 95       	ret

000019ee <__inversef>:
    19ee:	9b 01       	movw	r18, r22
    19f0:	ac 01       	movw	r20, r24
    19f2:	60 e0       	ldi	r22, 0x00	; 0
    19f4:	70 e0       	ldi	r23, 0x00	; 0
    19f6:	80 e8       	ldi	r24, 0x80	; 128
    19f8:	9f e3       	ldi	r25, 0x3F	; 63
    19fa:	0c 94 ce 0e 	jmp	0x1d9c	; 0x1d9c <__divsf3>

000019fe <.L_nf>:
    19fe:	16 f0       	brts	.+4      	; 0x1a04 <.L_nan>
    1a00:	0c 94 20 0c 	jmp	0x1840	; 0x1840 <__fp_mpack>

00001a04 <.L_nan>:
    1a04:	0c 94 2e 0c 	jmp	0x185c	; 0x185c <__fp_nan>

00001a08 <.L_min>:
    1a08:	68 94       	set
    1a0a:	0c 94 ff 0b 	jmp	0x17fe	; 0x17fe <__fp_inf>

00001a0e <logf>:
    1a0e:	0e 94 be 0c 	call	0x197c	; 0x197c <__fp_splitA>
    1a12:	a8 f3       	brcs	.-22     	; 0x19fe <.L_nf>
    1a14:	99 23       	and	r25, r25
    1a16:	c1 f3       	breq	.-16     	; 0x1a08 <.L_min>
    1a18:	ae f3       	brts	.-22     	; 0x1a04 <.L_nan>
    1a1a:	df 93       	push	r29
    1a1c:	cf 93       	push	r28
    1a1e:	1f 93       	push	r17
    1a20:	0f 93       	push	r16
    1a22:	ff 92       	push	r15
    1a24:	c9 2f       	mov	r28, r25
    1a26:	dd 27       	eor	r29, r29
    1a28:	88 23       	and	r24, r24
    1a2a:	2a f0       	brmi	.+10     	; 0x1a36 <.L2^B1>

00001a2c <.L1^B1>:
    1a2c:	21 97       	sbiw	r28, 0x01	; 1
    1a2e:	66 0f       	add	r22, r22
    1a30:	77 1f       	adc	r23, r23
    1a32:	88 1f       	adc	r24, r24
    1a34:	da f7       	brpl	.-10     	; 0x1a2c <.L1^B1>

00001a36 <.L2^B1>:
    1a36:	20 e0       	ldi	r18, 0x00	; 0
    1a38:	30 e0       	ldi	r19, 0x00	; 0
    1a3a:	40 e8       	ldi	r20, 0x80	; 128
    1a3c:	5f eb       	ldi	r21, 0xBF	; 191
    1a3e:	9f e3       	ldi	r25, 0x3F	; 63
    1a40:	88 39       	cpi	r24, 0x98	; 152
    1a42:	20 f0       	brcs	.+8      	; 0x1a4c <.L3^B1>
    1a44:	80 3e       	cpi	r24, 0xE0	; 224
    1a46:	38 f0       	brcs	.+14     	; 0x1a56 <.L4^B1>
    1a48:	21 96       	adiw	r28, 0x01	; 1
    1a4a:	8f 77       	andi	r24, 0x7F	; 127

00001a4c <.L3^B1>:
    1a4c:	0e 94 62 0e 	call	0x1cc4	; 0x1cc4 <__addsf3>
    1a50:	e5 e0       	ldi	r30, 0x05	; 5
    1a52:	f4 e2       	ldi	r31, 0x24	; 36
    1a54:	04 c0       	rjmp	.+8      	; 0x1a5e <.L5^B1>

00001a56 <.L4^B1>:
    1a56:	0e 94 62 0e 	call	0x1cc4	; 0x1cc4 <__addsf3>
    1a5a:	e2 e3       	ldi	r30, 0x32	; 50
    1a5c:	f4 e2       	ldi	r31, 0x24	; 36

00001a5e <.L5^B1>:
    1a5e:	0e 94 31 0c 	call	0x1862	; 0x1862 <__fp_powser>
    1a62:	8b 01       	movw	r16, r22
    1a64:	be 01       	movw	r22, r28
    1a66:	ec 01       	movw	r28, r24
    1a68:	fb 2e       	mov	r15, r27
    1a6a:	6f 57       	subi	r22, 0x7F	; 127
    1a6c:	71 09       	sbc	r23, r1
    1a6e:	75 95       	asr	r23
    1a70:	77 1f       	adc	r23, r23
    1a72:	88 0b       	sbc	r24, r24
    1a74:	99 0b       	sbc	r25, r25
    1a76:	0e 94 d4 0e 	call	0x1da8	; 0x1da8 <__floatsisf>
    1a7a:	28 e1       	ldi	r18, 0x18	; 24
    1a7c:	32 e7       	ldi	r19, 0x72	; 114
    1a7e:	41 e3       	ldi	r20, 0x31	; 49
    1a80:	5f e3       	ldi	r21, 0x3F	; 63
    1a82:	0e 94 91 0d 	call	0x1b22	; 0x1b22 <__mulsf3x>
    1a86:	af 2d       	mov	r26, r15
    1a88:	98 01       	movw	r18, r16
    1a8a:	ae 01       	movw	r20, r28
    1a8c:	ff 90       	pop	r15
    1a8e:	0f 91       	pop	r16
    1a90:	1f 91       	pop	r17
    1a92:	cf 91       	pop	r28
    1a94:	df 91       	pop	r29
    1a96:	0e 94 79 0e 	call	0x1cf2	; 0x1cf2 <__addsf3x>
    1a9a:	0c 94 91 0c 	jmp	0x1922	; 0x1922 <__fp_round>

00001a9e <lroundf>:
    1a9e:	0e 94 be 0c 	call	0x197c	; 0x197c <__fp_splitA>
    1aa2:	58 f1       	brcs	.+86     	; 0x1afa <.L_err>
    1aa4:	9e 57       	subi	r25, 0x7E	; 126
    1aa6:	60 f1       	brcs	.+88     	; 0x1b00 <.L_zr>
    1aa8:	98 51       	subi	r25, 0x18	; 24
    1aaa:	a0 f0       	brcs	.+40     	; 0x1ad4 <.L2^B1>
    1aac:	e9 f0       	breq	.+58     	; 0x1ae8 <.L_sign>
    1aae:	98 30       	cpi	r25, 0x08	; 8
    1ab0:	20 f5       	brcc	.+72     	; 0x1afa <.L_err>
    1ab2:	09 2e       	mov	r0, r25
    1ab4:	99 27       	eor	r25, r25

00001ab6 <.L1^B1>:
    1ab6:	66 0f       	add	r22, r22
    1ab8:	77 1f       	adc	r23, r23
    1aba:	88 1f       	adc	r24, r24
    1abc:	99 1f       	adc	r25, r25
    1abe:	0a 94       	dec	r0
    1ac0:	d1 f7       	brne	.-12     	; 0x1ab6 <.L1^B1>
    1ac2:	12 c0       	rjmp	.+36     	; 0x1ae8 <.L_sign>

00001ac4 <.L5^B1>:
    1ac4:	06 2e       	mov	r0, r22
    1ac6:	67 2f       	mov	r22, r23
    1ac8:	78 2f       	mov	r23, r24
    1aca:	88 27       	eor	r24, r24
    1acc:	98 5f       	subi	r25, 0xF8	; 248
    1ace:	11 f4       	brne	.+4      	; 0x1ad4 <.L2^B1>
    1ad0:	00 0c       	add	r0, r0
    1ad2:	07 c0       	rjmp	.+14     	; 0x1ae2 <.L4^B1>

00001ad4 <.L2^B1>:
    1ad4:	99 3f       	cpi	r25, 0xF9	; 249
    1ad6:	b4 f3       	brlt	.-20     	; 0x1ac4 <.L5^B1>

00001ad8 <.L3^B1>:
    1ad8:	86 95       	lsr	r24
    1ada:	77 95       	ror	r23
    1adc:	67 95       	ror	r22
    1ade:	93 95       	inc	r25
    1ae0:	d9 f7       	brne	.-10     	; 0x1ad8 <.L3^B1>

00001ae2 <.L4^B1>:
    1ae2:	61 1d       	adc	r22, r1
    1ae4:	71 1d       	adc	r23, r1
    1ae6:	81 1d       	adc	r24, r1

00001ae8 <.L_sign>:
    1ae8:	3e f4       	brtc	.+14     	; 0x1af8 <.L6^B1>
    1aea:	90 95       	com	r25
    1aec:	80 95       	com	r24
    1aee:	70 95       	com	r23
    1af0:	61 95       	neg	r22
    1af2:	7f 4f       	sbci	r23, 0xFF	; 255
    1af4:	8f 4f       	sbci	r24, 0xFF	; 255
    1af6:	9f 4f       	sbci	r25, 0xFF	; 255

00001af8 <.L6^B1>:
    1af8:	08 95       	ret

00001afa <.L_err>:
    1afa:	68 94       	set
    1afc:	0c 94 f1 0c 	jmp	0x19e2	; 0x19e2 <__fp_szero>

00001b00 <.L_zr>:
    1b00:	0c 94 f0 0c 	jmp	0x19e0	; 0x19e0 <__fp_zero>

00001b04 <.L0^B1>:
    1b04:	0e 94 58 0c 	call	0x18b0	; 0x18b0 <__fp_pscA>
    1b08:	38 f0       	brcs	.+14     	; 0x1b18 <.L1^B1>
    1b0a:	0e 94 5f 0c 	call	0x18be	; 0x18be <__fp_pscB>
    1b0e:	20 f0       	brcs	.+8      	; 0x1b18 <.L1^B1>
    1b10:	95 23       	and	r25, r21
    1b12:	11 f0       	breq	.+4      	; 0x1b18 <.L1^B1>
    1b14:	0c 94 ff 0b 	jmp	0x17fe	; 0x17fe <__fp_inf>

00001b18 <.L1^B1>:
    1b18:	0c 94 2e 0c 	jmp	0x185c	; 0x185c <__fp_nan>

00001b1c <.L2^B1>:
    1b1c:	11 24       	eor	r1, r1
    1b1e:	0c 94 f1 0c 	jmp	0x19e2	; 0x19e2 <__fp_szero>

00001b22 <__mulsf3x>:
    1b22:	0e 94 b6 0c 	call	0x196c	; 0x196c <__fp_split3>
    1b26:	70 f3       	brcs	.-36     	; 0x1b04 <.L0^B1>

00001b28 <__mulsf3_pse>:
    1b28:	95 9f       	mul	r25, r21
    1b2a:	c1 f3       	breq	.-16     	; 0x1b1c <.L2^B1>
    1b2c:	95 0f       	add	r25, r21
    1b2e:	50 e0       	ldi	r21, 0x00	; 0
    1b30:	55 1f       	adc	r21, r21
    1b32:	62 9f       	mul	r22, r18
    1b34:	f0 01       	movw	r30, r0
    1b36:	72 9f       	mul	r23, r18
    1b38:	bb 27       	eor	r27, r27
    1b3a:	f0 0d       	add	r31, r0
    1b3c:	b1 1d       	adc	r27, r1
    1b3e:	63 9f       	mul	r22, r19
    1b40:	aa 27       	eor	r26, r26
    1b42:	f0 0d       	add	r31, r0
    1b44:	b1 1d       	adc	r27, r1
    1b46:	aa 1f       	adc	r26, r26
    1b48:	64 9f       	mul	r22, r20
    1b4a:	66 27       	eor	r22, r22
    1b4c:	b0 0d       	add	r27, r0
    1b4e:	a1 1d       	adc	r26, r1
    1b50:	66 1f       	adc	r22, r22
    1b52:	82 9f       	mul	r24, r18
    1b54:	22 27       	eor	r18, r18
    1b56:	b0 0d       	add	r27, r0
    1b58:	a1 1d       	adc	r26, r1
    1b5a:	62 1f       	adc	r22, r18
    1b5c:	73 9f       	mul	r23, r19
    1b5e:	b0 0d       	add	r27, r0
    1b60:	a1 1d       	adc	r26, r1
    1b62:	62 1f       	adc	r22, r18
    1b64:	83 9f       	mul	r24, r19
    1b66:	a0 0d       	add	r26, r0
    1b68:	61 1d       	adc	r22, r1
    1b6a:	22 1f       	adc	r18, r18
    1b6c:	74 9f       	mul	r23, r20
    1b6e:	33 27       	eor	r19, r19
    1b70:	a0 0d       	add	r26, r0
    1b72:	61 1d       	adc	r22, r1
    1b74:	23 1f       	adc	r18, r19
    1b76:	84 9f       	mul	r24, r20
    1b78:	60 0d       	add	r22, r0
    1b7a:	21 1d       	adc	r18, r1
    1b7c:	82 2f       	mov	r24, r18
    1b7e:	76 2f       	mov	r23, r22
    1b80:	6a 2f       	mov	r22, r26
    1b82:	11 24       	eor	r1, r1
    1b84:	9f 57       	subi	r25, 0x7F	; 127
    1b86:	50 40       	sbci	r21, 0x00	; 0
    1b88:	9a f0       	brmi	.+38     	; 0x1bb0 <.L13^B1>
    1b8a:	f1 f0       	breq	.+60     	; 0x1bc8 <.L15^B1>

00001b8c <.L10^B1>:
    1b8c:	88 23       	and	r24, r24
    1b8e:	4a f0       	brmi	.+18     	; 0x1ba2 <.L11^B1>
    1b90:	ee 0f       	add	r30, r30
    1b92:	ff 1f       	adc	r31, r31
    1b94:	bb 1f       	adc	r27, r27
    1b96:	66 1f       	adc	r22, r22
    1b98:	77 1f       	adc	r23, r23
    1b9a:	88 1f       	adc	r24, r24
    1b9c:	91 50       	subi	r25, 0x01	; 1
    1b9e:	50 40       	sbci	r21, 0x00	; 0
    1ba0:	a9 f7       	brne	.-22     	; 0x1b8c <.L10^B1>

00001ba2 <.L11^B1>:
    1ba2:	9e 3f       	cpi	r25, 0xFE	; 254
    1ba4:	51 05       	cpc	r21, r1
    1ba6:	80 f0       	brcs	.+32     	; 0x1bc8 <.L15^B1>
    1ba8:	0c 94 ff 0b 	jmp	0x17fe	; 0x17fe <__fp_inf>

00001bac <.L12^B1>:
    1bac:	0c 94 f1 0c 	jmp	0x19e2	; 0x19e2 <__fp_szero>

00001bb0 <.L13^B1>:
    1bb0:	5f 3f       	cpi	r21, 0xFF	; 255
    1bb2:	e4 f3       	brlt	.-8      	; 0x1bac <.L12^B1>
    1bb4:	98 3e       	cpi	r25, 0xE8	; 232
    1bb6:	d4 f3       	brlt	.-12     	; 0x1bac <.L12^B1>

00001bb8 <.L14^B1>:
    1bb8:	86 95       	lsr	r24
    1bba:	77 95       	ror	r23
    1bbc:	67 95       	ror	r22
    1bbe:	b7 95       	ror	r27
    1bc0:	f7 95       	ror	r31
    1bc2:	e7 95       	ror	r30
    1bc4:	9f 5f       	subi	r25, 0xFF	; 255
    1bc6:	c1 f7       	brne	.-16     	; 0x1bb8 <.L14^B1>

00001bc8 <.L15^B1>:
    1bc8:	fe 2b       	or	r31, r30
    1bca:	88 0f       	add	r24, r24
    1bcc:	91 1d       	adc	r25, r1
    1bce:	96 95       	lsr	r25
    1bd0:	87 95       	ror	r24
    1bd2:	97 f9       	bld	r25, 7
    1bd4:	08 95       	ret

00001bd6 <roundf>:
    1bd6:	0e 94 be 0c 	call	0x197c	; 0x197c <__fp_splitA>
    1bda:	e8 f0       	brcs	.+58     	; 0x1c16 <.L_nf>
    1bdc:	9e 37       	cpi	r25, 0x7E	; 126
    1bde:	e8 f0       	brcs	.+58     	; 0x1c1a <.L_zr>
    1be0:	96 39       	cpi	r25, 0x96	; 150
    1be2:	b8 f4       	brcc	.+46     	; 0x1c12 <.L4^B1>

00001be4 <.L1^B1>:
    1be4:	9e 38       	cpi	r25, 0x8E	; 142
    1be6:	48 f4       	brcc	.+18     	; 0x1bfa <.L3^B1>
    1be8:	67 2f       	mov	r22, r23
    1bea:	78 2f       	mov	r23, r24
    1bec:	88 27       	eor	r24, r24
    1bee:	98 5f       	subi	r25, 0xF8	; 248
    1bf0:	f9 cf       	rjmp	.-14     	; 0x1be4 <.L1^B1>

00001bf2 <.L2^B1>:
    1bf2:	86 95       	lsr	r24
    1bf4:	77 95       	ror	r23
    1bf6:	67 95       	ror	r22
    1bf8:	93 95       	inc	r25

00001bfa <.L3^B1>:
    1bfa:	95 39       	cpi	r25, 0x95	; 149
    1bfc:	d0 f3       	brcs	.-12     	; 0x1bf2 <.L2^B1>
    1bfe:	b6 2f       	mov	r27, r22
    1c00:	b1 70       	andi	r27, 0x01	; 1
    1c02:	6b 0f       	add	r22, r27
    1c04:	71 1d       	adc	r23, r1
    1c06:	81 1d       	adc	r24, r1
    1c08:	20 f4       	brcc	.+8      	; 0x1c12 <.L4^B1>
    1c0a:	87 95       	ror	r24
    1c0c:	77 95       	ror	r23
    1c0e:	67 95       	ror	r22
    1c10:	93 95       	inc	r25

00001c12 <.L4^B1>:
    1c12:	0c 94 05 0c 	jmp	0x180a	; 0x180a <__fp_mintl>

00001c16 <.L_nf>:
    1c16:	0c 94 20 0c 	jmp	0x1840	; 0x1840 <__fp_mpack>

00001c1a <.L_zr>:
    1c1a:	0c 94 f1 0c 	jmp	0x19e2	; 0x19e2 <__fp_szero>

00001c1e <sinf>:
    1c1e:	9f 93       	push	r25
    1c20:	0e 94 68 0c 	call	0x18d0	; 0x18d0 <__fp_rempio2>
    1c24:	0f 90       	pop	r0
    1c26:	07 fc       	sbrc	r0, 7
    1c28:	ee 5f       	subi	r30, 0xFE	; 254
    1c2a:	0c 94 a2 0c 	jmp	0x1944	; 0x1944 <__fp_sinus>

00001c2e <.L_nf>:
    1c2e:	19 f4       	brne	.+6      	; 0x1c36 <.L_pk>
    1c30:	16 f4       	brtc	.+4      	; 0x1c36 <.L_pk>

00001c32 <.L_nan>:
    1c32:	0c 94 2e 0c 	jmp	0x185c	; 0x185c <__fp_nan>

00001c36 <.L_pk>:
    1c36:	0c 94 20 0c 	jmp	0x1840	; 0x1840 <__fp_mpack>

00001c3a <sqrtf>:
    1c3a:	0e 94 be 0c 	call	0x197c	; 0x197c <__fp_splitA>
    1c3e:	b8 f3       	brcs	.-18     	; 0x1c2e <.L_nf>
    1c40:	99 23       	and	r25, r25
    1c42:	c9 f3       	breq	.-14     	; 0x1c36 <.L_pk>
    1c44:	b6 f3       	brts	.-20     	; 0x1c32 <.L_nan>
    1c46:	9f 57       	subi	r25, 0x7F	; 127
    1c48:	55 0b       	sbc	r21, r21
    1c4a:	87 ff       	sbrs	r24, 7
    1c4c:	0e 94 0f 0f 	call	0x1e1e	; 0x1e1e <__fp_norm2>
    1c50:	00 24       	eor	r0, r0
    1c52:	a0 e6       	ldi	r26, 0x60	; 96
    1c54:	40 ea       	ldi	r20, 0xA0	; 160
    1c56:	90 01       	movw	r18, r0
    1c58:	80 58       	subi	r24, 0x80	; 128
    1c5a:	56 95       	lsr	r21
    1c5c:	97 95       	ror	r25
    1c5e:	28 f4       	brcc	.+10     	; 0x1c6a <.L1^B1>
    1c60:	80 5c       	subi	r24, 0xC0	; 192

00001c62 <.Loop>:
    1c62:	66 0f       	add	r22, r22
    1c64:	77 1f       	adc	r23, r23
    1c66:	88 1f       	adc	r24, r24
    1c68:	20 f0       	brcs	.+8      	; 0x1c72 <.L2^B1>

00001c6a <.L1^B1>:
    1c6a:	26 17       	cp	r18, r22
    1c6c:	37 07       	cpc	r19, r23
    1c6e:	48 07       	cpc	r20, r24
    1c70:	30 f4       	brcc	.+12     	; 0x1c7e <.L3^B1>

00001c72 <.L2^B1>:
    1c72:	62 1b       	sub	r22, r18
    1c74:	73 0b       	sbc	r23, r19
    1c76:	84 0b       	sbc	r24, r20
    1c78:	20 29       	or	r18, r0
    1c7a:	31 29       	or	r19, r1
    1c7c:	4a 2b       	or	r20, r26

00001c7e <.L3^B1>:
    1c7e:	a6 95       	lsr	r26
    1c80:	17 94       	ror	r1
    1c82:	07 94       	ror	r0
    1c84:	20 25       	eor	r18, r0
    1c86:	31 25       	eor	r19, r1
    1c88:	4a 27       	eor	r20, r26
    1c8a:	58 f7       	brcc	.-42     	; 0x1c62 <.Loop>

00001c8c <.Loop1>:
    1c8c:	66 0f       	add	r22, r22
    1c8e:	77 1f       	adc	r23, r23
    1c90:	88 1f       	adc	r24, r24
    1c92:	20 f0       	brcs	.+8      	; 0x1c9c <.L4^B1>
    1c94:	26 17       	cp	r18, r22
    1c96:	37 07       	cpc	r19, r23
    1c98:	48 07       	cpc	r20, r24
    1c9a:	30 f4       	brcc	.+12     	; 0x1ca8 <.L5^B1>

00001c9c <.L4^B1>:
    1c9c:	62 0b       	sbc	r22, r18
    1c9e:	73 0b       	sbc	r23, r19
    1ca0:	84 0b       	sbc	r24, r20
    1ca2:	20 0d       	add	r18, r0
    1ca4:	31 1d       	adc	r19, r1
    1ca6:	41 1d       	adc	r20, r1

00001ca8 <.L5^B1>:
    1ca8:	a0 95       	com	r26
    1caa:	81 f7       	brne	.-32     	; 0x1c8c <.Loop1>
    1cac:	b9 01       	movw	r22, r18
    1cae:	84 2f       	mov	r24, r20
    1cb0:	91 58       	subi	r25, 0x81	; 129
    1cb2:	88 0f       	add	r24, r24
    1cb4:	96 95       	lsr	r25
    1cb6:	87 95       	ror	r24
    1cb8:	08 95       	ret

00001cba <squaref>:
    1cba:	9b 01       	movw	r18, r22
    1cbc:	ac 01       	movw	r20, r24
    1cbe:	0c 94 2a 0f 	jmp	0x1e54	; 0x1e54 <__mulsf3>

00001cc2 <__subsf3>:
    1cc2:	50 58       	subi	r21, 0x80	; 128

00001cc4 <__addsf3>:
    1cc4:	bb 27       	eor	r27, r27
    1cc6:	aa 27       	eor	r26, r26
    1cc8:	0e 94 79 0e 	call	0x1cf2	; 0x1cf2 <__addsf3x>
    1ccc:	0c 94 91 0c 	jmp	0x1922	; 0x1922 <__fp_round>

00001cd0 <.L0^B1>:
    1cd0:	0e 94 58 0c 	call	0x18b0	; 0x18b0 <__fp_pscA>
    1cd4:	38 f0       	brcs	.+14     	; 0x1ce4 <.L_nan>
    1cd6:	0e 94 5f 0c 	call	0x18be	; 0x18be <__fp_pscB>
    1cda:	20 f0       	brcs	.+8      	; 0x1ce4 <.L_nan>
    1cdc:	39 f4       	brne	.+14     	; 0x1cec <.L_inf>
    1cde:	9f 3f       	cpi	r25, 0xFF	; 255
    1ce0:	19 f4       	brne	.+6      	; 0x1ce8 <.L_infB>
    1ce2:	26 f4       	brtc	.+8      	; 0x1cec <.L_inf>

00001ce4 <.L_nan>:
    1ce4:	0c 94 2e 0c 	jmp	0x185c	; 0x185c <__fp_nan>

00001ce8 <.L_infB>:
    1ce8:	0e f4       	brtc	.+2      	; 0x1cec <.L_inf>
    1cea:	e0 95       	com	r30

00001cec <.L_inf>:
    1cec:	e7 fb       	bst	r30, 7
    1cee:	0c 94 ff 0b 	jmp	0x17fe	; 0x17fe <__fp_inf>

00001cf2 <__addsf3x>:
    1cf2:	e9 2f       	mov	r30, r25
    1cf4:	0e 94 b6 0c 	call	0x196c	; 0x196c <__fp_split3>
    1cf8:	58 f3       	brcs	.-42     	; 0x1cd0 <.L0^B1>
    1cfa:	ba 17       	cp	r27, r26
    1cfc:	62 07       	cpc	r22, r18
    1cfe:	73 07       	cpc	r23, r19
    1d00:	84 07       	cpc	r24, r20
    1d02:	95 07       	cpc	r25, r21
    1d04:	20 f0       	brcs	.+8      	; 0x1d0e <.L2^B1>
    1d06:	79 f4       	brne	.+30     	; 0x1d26 <.L4^B1>
    1d08:	a6 f5       	brtc	.+104    	; 0x1d72 <.L_add>
    1d0a:	0c 94 f0 0c 	jmp	0x19e0	; 0x19e0 <__fp_zero>

00001d0e <.L2^B1>:
    1d0e:	0e f4       	brtc	.+2      	; 0x1d12 <.L3^B1>
    1d10:	e0 95       	com	r30

00001d12 <.L3^B1>:
    1d12:	0b 2e       	mov	r0, r27
    1d14:	ba 2f       	mov	r27, r26
    1d16:	a0 2d       	mov	r26, r0
    1d18:	0b 01       	movw	r0, r22
    1d1a:	b9 01       	movw	r22, r18
    1d1c:	90 01       	movw	r18, r0
    1d1e:	0c 01       	movw	r0, r24
    1d20:	ca 01       	movw	r24, r20
    1d22:	a0 01       	movw	r20, r0
    1d24:	11 24       	eor	r1, r1

00001d26 <.L4^B1>:
    1d26:	ff 27       	eor	r31, r31
    1d28:	59 1b       	sub	r21, r25

00001d2a <.L5^B1>:
    1d2a:	99 f0       	breq	.+38     	; 0x1d52 <.L7^B1>
    1d2c:	59 3f       	cpi	r21, 0xF9	; 249
    1d2e:	50 f4       	brcc	.+20     	; 0x1d44 <.L6^B1>
    1d30:	50 3e       	cpi	r21, 0xE0	; 224
    1d32:	68 f1       	brcs	.+90     	; 0x1d8e <.L_ret>
    1d34:	1a 16       	cp	r1, r26
    1d36:	f0 40       	sbci	r31, 0x00	; 0
    1d38:	a2 2f       	mov	r26, r18
    1d3a:	23 2f       	mov	r18, r19
    1d3c:	34 2f       	mov	r19, r20
    1d3e:	44 27       	eor	r20, r20
    1d40:	58 5f       	subi	r21, 0xF8	; 248
    1d42:	f3 cf       	rjmp	.-26     	; 0x1d2a <.L5^B1>

00001d44 <.L6^B1>:
    1d44:	46 95       	lsr	r20
    1d46:	37 95       	ror	r19
    1d48:	27 95       	ror	r18
    1d4a:	a7 95       	ror	r26
    1d4c:	f0 40       	sbci	r31, 0x00	; 0
    1d4e:	53 95       	inc	r21
    1d50:	c9 f7       	brne	.-14     	; 0x1d44 <.L6^B1>

00001d52 <.L7^B1>:
    1d52:	7e f4       	brtc	.+30     	; 0x1d72 <.L_add>
    1d54:	1f 16       	cp	r1, r31
    1d56:	ba 0b       	sbc	r27, r26
    1d58:	62 0b       	sbc	r22, r18
    1d5a:	73 0b       	sbc	r23, r19
    1d5c:	84 0b       	sbc	r24, r20
    1d5e:	ba f0       	brmi	.+46     	; 0x1d8e <.L_ret>

00001d60 <.L8^B1>:
    1d60:	91 50       	subi	r25, 0x01	; 1
    1d62:	a1 f0       	breq	.+40     	; 0x1d8c <.L9^B1>
    1d64:	ff 0f       	add	r31, r31
    1d66:	bb 1f       	adc	r27, r27
    1d68:	66 1f       	adc	r22, r22
    1d6a:	77 1f       	adc	r23, r23
    1d6c:	88 1f       	adc	r24, r24
    1d6e:	c2 f7       	brpl	.-16     	; 0x1d60 <.L8^B1>
    1d70:	0e c0       	rjmp	.+28     	; 0x1d8e <.L_ret>

00001d72 <.L_add>:
    1d72:	ba 0f       	add	r27, r26
    1d74:	62 1f       	adc	r22, r18
    1d76:	73 1f       	adc	r23, r19
    1d78:	84 1f       	adc	r24, r20
    1d7a:	48 f4       	brcc	.+18     	; 0x1d8e <.L_ret>
    1d7c:	87 95       	ror	r24
    1d7e:	77 95       	ror	r23
    1d80:	67 95       	ror	r22
    1d82:	b7 95       	ror	r27
    1d84:	f7 95       	ror	r31
    1d86:	9e 3f       	cpi	r25, 0xFE	; 254
    1d88:	08 f0       	brcs	.+2      	; 0x1d8c <.L9^B1>
    1d8a:	b0 cf       	rjmp	.-160    	; 0x1cec <.L_inf>

00001d8c <.L9^B1>:
    1d8c:	93 95       	inc	r25

00001d8e <.L_ret>:
    1d8e:	88 0f       	add	r24, r24
    1d90:	08 f0       	brcs	.+2      	; 0x1d94 <.L1^B1>
    1d92:	99 27       	eor	r25, r25

00001d94 <.L1^B1>:
    1d94:	ee 0f       	add	r30, r30
    1d96:	97 95       	ror	r25
    1d98:	87 95       	ror	r24
    1d9a:	08 95       	ret

00001d9c <__divsf3>:
    1d9c:	0e 94 8a 0b 	call	0x1714	; 0x1714 <__divsf3x>
    1da0:	0c 94 91 0c 	jmp	0x1922	; 0x1922 <__fp_round>

00001da4 <__floatunsisf>:
    1da4:	e8 94       	clt
    1da6:	09 c0       	rjmp	.+18     	; 0x1dba <.L1^B1>

00001da8 <__floatsisf>:
    1da8:	97 fb       	bst	r25, 7
    1daa:	3e f4       	brtc	.+14     	; 0x1dba <.L1^B1>
    1dac:	90 95       	com	r25
    1dae:	80 95       	com	r24
    1db0:	70 95       	com	r23
    1db2:	61 95       	neg	r22
    1db4:	7f 4f       	sbci	r23, 0xFF	; 255
    1db6:	8f 4f       	sbci	r24, 0xFF	; 255
    1db8:	9f 4f       	sbci	r25, 0xFF	; 255

00001dba <.L1^B1>:
    1dba:	99 23       	and	r25, r25
    1dbc:	a9 f0       	breq	.+42     	; 0x1de8 <.L4^B1>
    1dbe:	f9 2f       	mov	r31, r25
    1dc0:	96 e9       	ldi	r25, 0x96	; 150
    1dc2:	bb 27       	eor	r27, r27

00001dc4 <.L2^B1>:
    1dc4:	93 95       	inc	r25
    1dc6:	f6 95       	lsr	r31
    1dc8:	87 95       	ror	r24
    1dca:	77 95       	ror	r23
    1dcc:	67 95       	ror	r22
    1dce:	b7 95       	ror	r27
    1dd0:	f1 11       	cpse	r31, r1
    1dd2:	f8 cf       	rjmp	.-16     	; 0x1dc4 <.L2^B1>
    1dd4:	fa f4       	brpl	.+62     	; 0x1e14 <.L_pack>
    1dd6:	bb 0f       	add	r27, r27
    1dd8:	11 f4       	brne	.+4      	; 0x1dde <.L3^B1>
    1dda:	60 ff       	sbrs	r22, 0
    1ddc:	1b c0       	rjmp	.+54     	; 0x1e14 <.L_pack>

00001dde <.L3^B1>:
    1dde:	6f 5f       	subi	r22, 0xFF	; 255
    1de0:	7f 4f       	sbci	r23, 0xFF	; 255
    1de2:	8f 4f       	sbci	r24, 0xFF	; 255
    1de4:	9f 4f       	sbci	r25, 0xFF	; 255
    1de6:	16 c0       	rjmp	.+44     	; 0x1e14 <.L_pack>

00001de8 <.L4^B1>:
    1de8:	88 23       	and	r24, r24
    1dea:	11 f0       	breq	.+4      	; 0x1df0 <.L5^B1>
    1dec:	96 e9       	ldi	r25, 0x96	; 150
    1dee:	11 c0       	rjmp	.+34     	; 0x1e12 <.L8^B1>

00001df0 <.L5^B1>:
    1df0:	77 23       	and	r23, r23
    1df2:	21 f0       	breq	.+8      	; 0x1dfc <.L6^B1>
    1df4:	9e e8       	ldi	r25, 0x8E	; 142
    1df6:	87 2f       	mov	r24, r23
    1df8:	76 2f       	mov	r23, r22
    1dfa:	05 c0       	rjmp	.+10     	; 0x1e06 <.L7^B1>

00001dfc <.L6^B1>:
    1dfc:	66 23       	and	r22, r22
    1dfe:	71 f0       	breq	.+28     	; 0x1e1c <.L9^B1>
    1e00:	96 e8       	ldi	r25, 0x86	; 134
    1e02:	86 2f       	mov	r24, r22
    1e04:	70 e0       	ldi	r23, 0x00	; 0

00001e06 <.L7^B1>:
    1e06:	60 e0       	ldi	r22, 0x00	; 0
    1e08:	2a f0       	brmi	.+10     	; 0x1e14 <.L_pack>

00001e0a <.L10^B1>:
    1e0a:	9a 95       	dec	r25
    1e0c:	66 0f       	add	r22, r22
    1e0e:	77 1f       	adc	r23, r23
    1e10:	88 1f       	adc	r24, r24

00001e12 <.L8^B1>:
    1e12:	da f7       	brpl	.-10     	; 0x1e0a <.L10^B1>

00001e14 <.L_pack>:
    1e14:	88 0f       	add	r24, r24
    1e16:	96 95       	lsr	r25
    1e18:	87 95       	ror	r24
    1e1a:	97 f9       	bld	r25, 7

00001e1c <.L9^B1>:
    1e1c:	08 95       	ret

00001e1e <__fp_norm2>:
    1e1e:	91 50       	subi	r25, 0x01	; 1
    1e20:	50 40       	sbci	r21, 0x00	; 0
    1e22:	66 0f       	add	r22, r22
    1e24:	77 1f       	adc	r23, r23
    1e26:	88 1f       	adc	r24, r24
    1e28:	d2 f7       	brpl	.-12     	; 0x1e1e <__fp_norm2>
    1e2a:	08 95       	ret

00001e2c <__fp_powsodd>:
    1e2c:	9f 93       	push	r25
    1e2e:	8f 93       	push	r24
    1e30:	7f 93       	push	r23
    1e32:	6f 93       	push	r22
    1e34:	ff 93       	push	r31
    1e36:	ef 93       	push	r30
    1e38:	9b 01       	movw	r18, r22
    1e3a:	ac 01       	movw	r20, r24
    1e3c:	0e 94 2a 0f 	call	0x1e54	; 0x1e54 <__mulsf3>
    1e40:	ef 91       	pop	r30
    1e42:	ff 91       	pop	r31
    1e44:	0e 94 31 0c 	call	0x1862	; 0x1862 <__fp_powser>
    1e48:	2f 91       	pop	r18
    1e4a:	3f 91       	pop	r19
    1e4c:	4f 91       	pop	r20
    1e4e:	5f 91       	pop	r21
    1e50:	0c 94 2a 0f 	jmp	0x1e54	; 0x1e54 <__mulsf3>

00001e54 <__mulsf3>:
    1e54:	0e 94 91 0d 	call	0x1b22	; 0x1b22 <__mulsf3x>
    1e58:	0c 94 91 0c 	jmp	0x1922	; 0x1922 <__fp_round>

00001e5c <__cmpsf2>:
    1e5c:	0e 94 69 0f 	call	0x1ed2	; 0x1ed2 <__fp_cmp>
    1e60:	08 f4       	brcc	.+2      	; 0x1e64 <.L1^B1>
    1e62:	81 e0       	ldi	r24, 0x01	; 1

00001e64 <.L1^B1>:
    1e64:	08 95       	ret

00001e66 <__fixsfsi>:
    1e66:	0e 94 3a 0f 	call	0x1e74	; 0x1e74 <__fixunssfsi>
    1e6a:	68 94       	set
    1e6c:	b1 11       	cpse	r27, r1
    1e6e:	0c 94 f1 0c 	jmp	0x19e2	; 0x19e2 <__fp_szero>
    1e72:	08 95       	ret

00001e74 <__fixunssfsi>:
    1e74:	0e 94 be 0c 	call	0x197c	; 0x197c <__fp_splitA>
    1e78:	88 f0       	brcs	.+34     	; 0x1e9c <.L_err>
    1e7a:	9f 57       	subi	r25, 0x7F	; 127
    1e7c:	98 f0       	brcs	.+38     	; 0x1ea4 <.L_zr>
    1e7e:	b9 2f       	mov	r27, r25
    1e80:	99 27       	eor	r25, r25
    1e82:	b7 51       	subi	r27, 0x17	; 23
    1e84:	b0 f0       	brcs	.+44     	; 0x1eb2 <.L4^B1>
    1e86:	e1 f0       	breq	.+56     	; 0x1ec0 <.L_sign>

00001e88 <.L1^B1>:
    1e88:	66 0f       	add	r22, r22
    1e8a:	77 1f       	adc	r23, r23
    1e8c:	88 1f       	adc	r24, r24
    1e8e:	99 1f       	adc	r25, r25
    1e90:	1a f0       	brmi	.+6      	; 0x1e98 <.L2^B1>
    1e92:	ba 95       	dec	r27
    1e94:	c9 f7       	brne	.-14     	; 0x1e88 <.L1^B1>
    1e96:	14 c0       	rjmp	.+40     	; 0x1ec0 <.L_sign>

00001e98 <.L2^B1>:
    1e98:	b1 30       	cpi	r27, 0x01	; 1
    1e9a:	91 f0       	breq	.+36     	; 0x1ec0 <.L_sign>

00001e9c <.L_err>:
    1e9c:	0e 94 f0 0c 	call	0x19e0	; 0x19e0 <__fp_zero>
    1ea0:	b1 e0       	ldi	r27, 0x01	; 1
    1ea2:	08 95       	ret

00001ea4 <.L_zr>:
    1ea4:	0c 94 f0 0c 	jmp	0x19e0	; 0x19e0 <__fp_zero>

00001ea8 <.L3^B1>:
    1ea8:	67 2f       	mov	r22, r23
    1eaa:	78 2f       	mov	r23, r24
    1eac:	88 27       	eor	r24, r24
    1eae:	b8 5f       	subi	r27, 0xF8	; 248
    1eb0:	39 f0       	breq	.+14     	; 0x1ec0 <.L_sign>

00001eb2 <.L4^B1>:
    1eb2:	b9 3f       	cpi	r27, 0xF9	; 249
    1eb4:	cc f3       	brlt	.-14     	; 0x1ea8 <.L3^B1>

00001eb6 <.L5^B1>:
    1eb6:	86 95       	lsr	r24
    1eb8:	77 95       	ror	r23
    1eba:	67 95       	ror	r22
    1ebc:	b3 95       	inc	r27
    1ebe:	d9 f7       	brne	.-10     	; 0x1eb6 <.L5^B1>

00001ec0 <.L_sign>:
    1ec0:	3e f4       	brtc	.+14     	; 0x1ed0 <.L6^B1>
    1ec2:	90 95       	com	r25
    1ec4:	80 95       	com	r24
    1ec6:	70 95       	com	r23
    1ec8:	61 95       	neg	r22
    1eca:	7f 4f       	sbci	r23, 0xFF	; 255
    1ecc:	8f 4f       	sbci	r24, 0xFF	; 255
    1ece:	9f 4f       	sbci	r25, 0xFF	; 255

00001ed0 <.L6^B1>:
    1ed0:	08 95       	ret

00001ed2 <__fp_cmp>:
    1ed2:	99 0f       	add	r25, r25
    1ed4:	00 08       	sbc	r0, r0
    1ed6:	55 0f       	add	r21, r21
    1ed8:	aa 0b       	sbc	r26, r26
    1eda:	e0 e8       	ldi	r30, 0x80	; 128
    1edc:	fe ef       	ldi	r31, 0xFE	; 254
    1ede:	16 16       	cp	r1, r22
    1ee0:	17 06       	cpc	r1, r23
    1ee2:	e8 07       	cpc	r30, r24
    1ee4:	f9 07       	cpc	r31, r25
    1ee6:	c0 f0       	brcs	.+48     	; 0x1f18 <.L9^B1>
    1ee8:	12 16       	cp	r1, r18
    1eea:	13 06       	cpc	r1, r19
    1eec:	e4 07       	cpc	r30, r20
    1eee:	f5 07       	cpc	r31, r21
    1ef0:	98 f0       	brcs	.+38     	; 0x1f18 <.L9^B1>
    1ef2:	62 1b       	sub	r22, r18
    1ef4:	73 0b       	sbc	r23, r19
    1ef6:	84 0b       	sbc	r24, r20
    1ef8:	95 0b       	sbc	r25, r21
    1efa:	39 f4       	brne	.+14     	; 0x1f0a <.L1^B1>
    1efc:	0a 26       	eor	r0, r26
    1efe:	61 f0       	breq	.+24     	; 0x1f18 <.L9^B1>
    1f00:	23 2b       	or	r18, r19
    1f02:	24 2b       	or	r18, r20
    1f04:	25 2b       	or	r18, r21
    1f06:	21 f4       	brne	.+8      	; 0x1f10 <.L2^B1>
    1f08:	08 95       	ret

00001f0a <.L1^B1>:
    1f0a:	0a 26       	eor	r0, r26
    1f0c:	09 f4       	brne	.+2      	; 0x1f10 <.L2^B1>
    1f0e:	a1 40       	sbci	r26, 0x01	; 1

00001f10 <.L2^B1>:
    1f10:	a6 95       	lsr	r26
    1f12:	8f ef       	ldi	r24, 0xFF	; 255
    1f14:	81 1d       	adc	r24, r1
    1f16:	81 1d       	adc	r24, r1

00001f18 <.L9^B1>:
    1f18:	08 95       	ret

00001f1a <__gesf2>:
    1f1a:	0e 94 69 0f 	call	0x1ed2	; 0x1ed2 <__fp_cmp>
    1f1e:	08 f4       	brcc	.+2      	; 0x1f22 <.L1^B1>
    1f20:	8f ef       	ldi	r24, 0xFF	; 255

00001f22 <.L1^B1>:
    1f22:	08 95       	ret

00001f24 <__mulhisi3>:
    1f24:	0e 94 9a 0f 	call	0x1f34	; 0x1f34 <__umulhisi3>

00001f28 <.Loc.1>:
    1f28:	33 23       	and	r19, r19

00001f2a <.Loc.2>:
    1f2a:	12 f4       	brpl	.+4      	; 0x1f30 <.L1^B1>

00001f2c <.Loc.3>:
    1f2c:	8a 1b       	sub	r24, r26

00001f2e <.Loc.4>:
    1f2e:	9b 0b       	sbc	r25, r27

00001f30 <.L1^B1>:
    1f30:	0c 94 24 10 	jmp	0x2048	; 0x2048 <__usmulhisi3_tail>

00001f34 <__umulhisi3>:
    1f34:	a2 9f       	mul	r26, r18

00001f36 <.Loc.1>:
    1f36:	b0 01       	movw	r22, r0

00001f38 <.Loc.2>:
    1f38:	b3 9f       	mul	r27, r19

00001f3a <.Loc.3>:
    1f3a:	c0 01       	movw	r24, r0

00001f3c <.Loc.4>:
    1f3c:	a3 9f       	mul	r26, r19

00001f3e <.Loc.5>:
    1f3e:	70 0d       	add	r23, r0

00001f40 <.Loc.6>:
    1f40:	81 1d       	adc	r24, r1

00001f42 <.Loc.7>:
    1f42:	11 24       	eor	r1, r1

00001f44 <.Loc.8>:
    1f44:	91 1d       	adc	r25, r1

00001f46 <.Loc.9>:
    1f46:	b2 9f       	mul	r27, r18

00001f48 <.Loc.10>:
    1f48:	70 0d       	add	r23, r0

00001f4a <.Loc.11>:
    1f4a:	81 1d       	adc	r24, r1

00001f4c <.Loc.12>:
    1f4c:	11 24       	eor	r1, r1

00001f4e <.Loc.13>:
    1f4e:	91 1d       	adc	r25, r1

00001f50 <.Loc.14>:
    1f50:	08 95       	ret

00001f52 <__mulsi3>:
    1f52:	db 01       	movw	r26, r22

00001f54 <.Loc.1>:
    1f54:	8f 93       	push	r24

00001f56 <.Loc.2>:
    1f56:	9f 93       	push	r25

00001f58 <.Loc.3>:
    1f58:	0e 94 29 10 	call	0x2052	; 0x2052 <__muluhisi3>

00001f5c <.Loc.4>:
    1f5c:	bf 91       	pop	r27

00001f5e <.Loc.5>:
    1f5e:	af 91       	pop	r26

00001f60 <.Loc.6>:
    1f60:	a2 9f       	mul	r26, r18

00001f62 <.Loc.7>:
    1f62:	80 0d       	add	r24, r0

00001f64 <.Loc.8>:
    1f64:	91 1d       	adc	r25, r1

00001f66 <.Loc.9>:
    1f66:	a3 9f       	mul	r26, r19

00001f68 <.Loc.10>:
    1f68:	90 0d       	add	r25, r0

00001f6a <.Loc.11>:
    1f6a:	b2 9f       	mul	r27, r18

00001f6c <.Loc.12>:
    1f6c:	90 0d       	add	r25, r0

00001f6e <.Loc.13>:
    1f6e:	11 24       	eor	r1, r1

00001f70 <.Loc.14>:
    1f70:	08 95       	ret

00001f72 <__udivmodhi4>:
    1f72:	aa 1b       	sub	r26, r26

00001f74 <.Loc.1>:
    1f74:	bb 1b       	sub	r27, r27

00001f76 <.Loc.2>:
    1f76:	51 e1       	ldi	r21, 0x11	; 17

00001f78 <.Loc.3>:
    1f78:	07 c0       	rjmp	.+14     	; 0x1f88 <__udivmodhi4_ep>

00001f7a <__udivmodhi4_loop>:
    1f7a:	aa 1f       	adc	r26, r26

00001f7c <.Loc.5>:
    1f7c:	bb 1f       	adc	r27, r27

00001f7e <.Loc.6>:
    1f7e:	a6 17       	cp	r26, r22

00001f80 <.Loc.7>:
    1f80:	b7 07       	cpc	r27, r23

00001f82 <.Loc.8>:
    1f82:	10 f0       	brcs	.+4      	; 0x1f88 <__udivmodhi4_ep>

00001f84 <.Loc.9>:
    1f84:	a6 1b       	sub	r26, r22

00001f86 <.Loc.10>:
    1f86:	b7 0b       	sbc	r27, r23

00001f88 <__udivmodhi4_ep>:
    1f88:	88 1f       	adc	r24, r24

00001f8a <.Loc.12>:
    1f8a:	99 1f       	adc	r25, r25

00001f8c <.Loc.13>:
    1f8c:	5a 95       	dec	r21

00001f8e <.Loc.14>:
    1f8e:	a9 f7       	brne	.-22     	; 0x1f7a <__udivmodhi4_loop>

00001f90 <.Loc.15>:
    1f90:	80 95       	com	r24

00001f92 <.Loc.16>:
    1f92:	90 95       	com	r25

00001f94 <.Loc.17>:
    1f94:	bc 01       	movw	r22, r24

00001f96 <.Loc.18>:
    1f96:	cd 01       	movw	r24, r26

00001f98 <.Loc.19>:
    1f98:	08 95       	ret

00001f9a <__divmodhi4>:
    1f9a:	97 fb       	bst	r25, 7

00001f9c <.Loc.1>:
    1f9c:	07 2e       	mov	r0, r23

00001f9e <.Loc.2>:
    1f9e:	16 f4       	brtc	.+4      	; 0x1fa4 <.L0^B1>

00001fa0 <.Loc.3>:
    1fa0:	00 94       	com	r0

00001fa2 <.Loc.4>:
    1fa2:	07 d0       	rcall	.+14     	; 0x1fb2 <__divmodhi4_neg1>

00001fa4 <.L0^B1>:
    1fa4:	77 fd       	sbrc	r23, 7

00001fa6 <.Loc.6>:
    1fa6:	09 d0       	rcall	.+18     	; 0x1fba <__divmodhi4_neg2>

00001fa8 <.Loc.7>:
    1fa8:	0e 94 b9 0f 	call	0x1f72	; 0x1f72 <__udivmodhi4>

00001fac <.Loc.8>:
    1fac:	07 fc       	sbrc	r0, 7

00001fae <.Loc.9>:
    1fae:	05 d0       	rcall	.+10     	; 0x1fba <__divmodhi4_neg2>

00001fb0 <.Loc.10>:
    1fb0:	3e f4       	brtc	.+14     	; 0x1fc0 <__divmodhi4_exit>

00001fb2 <__divmodhi4_neg1>:
    1fb2:	90 95       	com	r25

00001fb4 <.Loc.12>:
    1fb4:	81 95       	neg	r24

00001fb6 <.Loc.13>:
    1fb6:	9f 4f       	sbci	r25, 0xFF	; 255

00001fb8 <.Loc.14>:
    1fb8:	08 95       	ret

00001fba <__divmodhi4_neg2>:
    1fba:	70 95       	com	r23

00001fbc <.Loc.16>:
    1fbc:	61 95       	neg	r22

00001fbe <.Loc.17>:
    1fbe:	7f 4f       	sbci	r23, 0xFF	; 255

00001fc0 <__divmodhi4_exit>:
    1fc0:	08 95       	ret

00001fc2 <__udivmodsi4>:
    1fc2:	a1 e2       	ldi	r26, 0x21	; 33

00001fc4 <.Loc.1>:
    1fc4:	1a 2e       	mov	r1, r26

00001fc6 <.Loc.2>:
    1fc6:	aa 1b       	sub	r26, r26

00001fc8 <.Loc.3>:
    1fc8:	bb 1b       	sub	r27, r27

00001fca <.Loc.4>:
    1fca:	fd 01       	movw	r30, r26

00001fcc <.Loc.5>:
    1fcc:	0d c0       	rjmp	.+26     	; 0x1fe8 <__udivmodsi4_ep>

00001fce <__udivmodsi4_loop>:
    1fce:	aa 1f       	adc	r26, r26

00001fd0 <.Loc.7>:
    1fd0:	bb 1f       	adc	r27, r27

00001fd2 <.Loc.8>:
    1fd2:	ee 1f       	adc	r30, r30

00001fd4 <.Loc.9>:
    1fd4:	ff 1f       	adc	r31, r31

00001fd6 <.Loc.10>:
    1fd6:	a2 17       	cp	r26, r18

00001fd8 <.Loc.11>:
    1fd8:	b3 07       	cpc	r27, r19

00001fda <.Loc.12>:
    1fda:	e4 07       	cpc	r30, r20

00001fdc <.Loc.13>:
    1fdc:	f5 07       	cpc	r31, r21

00001fde <.Loc.14>:
    1fde:	20 f0       	brcs	.+8      	; 0x1fe8 <__udivmodsi4_ep>

00001fe0 <.Loc.15>:
    1fe0:	a2 1b       	sub	r26, r18

00001fe2 <.Loc.16>:
    1fe2:	b3 0b       	sbc	r27, r19

00001fe4 <.Loc.17>:
    1fe4:	e4 0b       	sbc	r30, r20

00001fe6 <.Loc.18>:
    1fe6:	f5 0b       	sbc	r31, r21

00001fe8 <__udivmodsi4_ep>:
    1fe8:	66 1f       	adc	r22, r22

00001fea <.Loc.20>:
    1fea:	77 1f       	adc	r23, r23

00001fec <.Loc.21>:
    1fec:	88 1f       	adc	r24, r24

00001fee <.Loc.22>:
    1fee:	99 1f       	adc	r25, r25

00001ff0 <.Loc.23>:
    1ff0:	1a 94       	dec	r1

00001ff2 <.Loc.24>:
    1ff2:	69 f7       	brne	.-38     	; 0x1fce <__udivmodsi4_loop>

00001ff4 <.Loc.25>:
    1ff4:	60 95       	com	r22

00001ff6 <.Loc.26>:
    1ff6:	70 95       	com	r23

00001ff8 <.Loc.27>:
    1ff8:	80 95       	com	r24

00001ffa <.Loc.28>:
    1ffa:	90 95       	com	r25

00001ffc <.Loc.29>:
    1ffc:	9b 01       	movw	r18, r22

00001ffe <.Loc.30>:
    1ffe:	ac 01       	movw	r20, r24

00002000 <.Loc.31>:
    2000:	bd 01       	movw	r22, r26

00002002 <.Loc.32>:
    2002:	cf 01       	movw	r24, r30

00002004 <.Loc.33>:
    2004:	08 95       	ret

00002006 <__divmodsi4>:
    2006:	05 2e       	mov	r0, r21

00002008 <.Loc.1>:
    2008:	97 fb       	bst	r25, 7

0000200a <.Loc.2>:
    200a:	1e f4       	brtc	.+6      	; 0x2012 <.L0^B1>

0000200c <.Loc.3>:
    200c:	00 94       	com	r0

0000200e <.Loc.4>:
    200e:	0e 94 1a 10 	call	0x2034	; 0x2034 <__negsi2>

00002012 <.L0^B1>:
    2012:	57 fd       	sbrc	r21, 7

00002014 <.Loc.6>:
    2014:	07 d0       	rcall	.+14     	; 0x2024 <__divmodsi4_neg2>

00002016 <.Loc.7>:
    2016:	0e 94 e1 0f 	call	0x1fc2	; 0x1fc2 <__udivmodsi4>

0000201a <.Loc.8>:
    201a:	07 fc       	sbrc	r0, 7

0000201c <.Loc.9>:
    201c:	03 d0       	rcall	.+6      	; 0x2024 <__divmodsi4_neg2>

0000201e <.Loc.10>:
    201e:	4e f4       	brtc	.+18     	; 0x2032 <__divmodsi4_exit>

00002020 <.Loc.11>:
    2020:	0c 94 1a 10 	jmp	0x2034	; 0x2034 <__negsi2>

00002024 <__divmodsi4_neg2>:
    2024:	50 95       	com	r21

00002026 <.Loc.13>:
    2026:	40 95       	com	r20

00002028 <.Loc.14>:
    2028:	30 95       	com	r19

0000202a <.Loc.15>:
    202a:	21 95       	neg	r18

0000202c <.Loc.16>:
    202c:	3f 4f       	sbci	r19, 0xFF	; 255

0000202e <.Loc.17>:
    202e:	4f 4f       	sbci	r20, 0xFF	; 255

00002030 <.Loc.18>:
    2030:	5f 4f       	sbci	r21, 0xFF	; 255

00002032 <__divmodsi4_exit>:
    2032:	08 95       	ret

00002034 <__negsi2>:
    2034:	90 95       	com	r25
    2036:	80 95       	com	r24
    2038:	70 95       	com	r23
    203a:	61 95       	neg	r22
    203c:	7f 4f       	sbci	r23, 0xFF	; 255
    203e:	8f 4f       	sbci	r24, 0xFF	; 255
    2040:	9f 4f       	sbci	r25, 0xFF	; 255

00002042 <.Loc.1>:
    2042:	08 95       	ret

00002044 <__usmulhisi3>:
    2044:	0e 94 9a 0f 	call	0x1f34	; 0x1f34 <__umulhisi3>

00002048 <__usmulhisi3_tail>:
    2048:	b7 ff       	sbrs	r27, 7

0000204a <.Loc.2>:
    204a:	08 95       	ret

0000204c <.Loc.3>:
    204c:	82 1b       	sub	r24, r18

0000204e <.Loc.4>:
    204e:	93 0b       	sbc	r25, r19

00002050 <.Loc.5>:
    2050:	08 95       	ret

00002052 <__muluhisi3>:
    2052:	0e 94 9a 0f 	call	0x1f34	; 0x1f34 <__umulhisi3>

00002056 <.Loc.1>:
    2056:	a5 9f       	mul	r26, r21

00002058 <.Loc.2>:
    2058:	90 0d       	add	r25, r0

0000205a <.Loc.3>:
    205a:	b4 9f       	mul	r27, r20

0000205c <.Loc.4>:
    205c:	90 0d       	add	r25, r0

0000205e <.Loc.5>:
    205e:	a4 9f       	mul	r26, r20

00002060 <.Loc.6>:
    2060:	80 0d       	add	r24, r0

00002062 <.Loc.7>:
    2062:	91 1d       	adc	r25, r1

00002064 <.Loc.8>:
    2064:	11 24       	eor	r1, r1

00002066 <.Loc.9>:
    2066:	08 95       	ret

00002068 <__muldi3>:
    2068:	df 93       	push	r29

0000206a <.Loc.1>:
    206a:	cf 93       	push	r28

0000206c <.Loc.2>:
    206c:	1f 93       	push	r17

0000206e <.Loc.3>:
    206e:	0f 93       	push	r16

00002070 <.Loc.4>:
    2070:	9a 9d       	mul	r25, r10
    2072:	f0 2d       	mov	r31, r0

00002074 <.Loc.5>:
    2074:	21 9f       	mul	r18, r17
    2076:	f0 0d       	add	r31, r0

00002078 <.Loc.6>:
    2078:	8b 9d       	mul	r24, r11
    207a:	f0 0d       	add	r31, r0

0000207c <.Loc.7>:
    207c:	8a 9d       	mul	r24, r10
    207e:	e0 2d       	mov	r30, r0
    2080:	f1 0d       	add	r31, r1

00002082 <.Loc.8>:
    2082:	03 9f       	mul	r16, r19
    2084:	f0 0d       	add	r31, r0

00002086 <.Loc.9>:
    2086:	02 9f       	mul	r16, r18
    2088:	e0 0d       	add	r30, r0
    208a:	f1 1d       	adc	r31, r1

0000208c <.Loc.10>:
    208c:	4e 9d       	mul	r20, r14
    208e:	e0 0d       	add	r30, r0
    2090:	f1 1d       	adc	r31, r1

00002092 <.Loc.11>:
    2092:	5e 9d       	mul	r21, r14
    2094:	f0 0d       	add	r31, r0

00002096 <.Loc.12>:
    2096:	4f 9d       	mul	r20, r15
    2098:	f0 0d       	add	r31, r0

0000209a <.Loc.13>:
    209a:	7f 93       	push	r23

0000209c <.Loc.14>:
    209c:	6f 93       	push	r22

0000209e <.Loc.15>:
    209e:	bf 92       	push	r11

000020a0 <.Loc.16>:
    20a0:	af 92       	push	r10

000020a2 <.Loc.17>:
    20a2:	5f 93       	push	r21

000020a4 <.Loc.18>:
    20a4:	4f 93       	push	r20

000020a6 <.Loc.19>:
    20a6:	d5 01       	movw	r26, r10

000020a8 <.Loc.20>:
    20a8:	0e 94 9a 0f 	call	0x1f34	; 0x1f34 <__umulhisi3>

000020ac <.Loc.21>:
    20ac:	8b 01       	movw	r16, r22

000020ae <.Loc.22>:
    20ae:	ac 01       	movw	r20, r24

000020b0 <.Loc.23>:
    20b0:	d7 01       	movw	r26, r14

000020b2 <.Loc.24>:
    20b2:	0e 94 9a 0f 	call	0x1f34	; 0x1f34 <__umulhisi3>
    20b6:	eb 01       	movw	r28, r22
    20b8:	e8 0f       	add	r30, r24
    20ba:	f9 1f       	adc	r31, r25

000020bc <.Loc.25>:
    20bc:	d6 01       	movw	r26, r12

000020be <.Loc.26>:
    20be:	0e 94 83 10 	call	0x2106	; 0x2106 <__muldi3_6>

000020c2 <.Loc.27>:
    20c2:	2f 91       	pop	r18

000020c4 <.Loc.28>:
    20c4:	3f 91       	pop	r19

000020c6 <.Loc.29>:
    20c6:	d6 01       	movw	r26, r12

000020c8 <.Loc.30>:
    20c8:	0e 94 9a 0f 	call	0x1f34	; 0x1f34 <__umulhisi3>
    20cc:	c6 0f       	add	r28, r22
    20ce:	d7 1f       	adc	r29, r23
    20d0:	e8 1f       	adc	r30, r24
    20d2:	f9 1f       	adc	r31, r25

000020d4 <.Loc.31>:
    20d4:	af 91       	pop	r26

000020d6 <.Loc.32>:
    20d6:	bf 91       	pop	r27

000020d8 <.Loc.33>:
    20d8:	0e 94 83 10 	call	0x2106	; 0x2106 <__muldi3_6>

000020dc <.Loc.34>:
    20dc:	2f 91       	pop	r18

000020de <.Loc.35>:
    20de:	3f 91       	pop	r19

000020e0 <.Loc.36>:
    20e0:	0e 94 9a 0f 	call	0x1f34	; 0x1f34 <__umulhisi3>
    20e4:	c6 0f       	add	r28, r22
    20e6:	d7 1f       	adc	r29, r23
    20e8:	e8 1f       	adc	r30, r24
    20ea:	f9 1f       	adc	r31, r25

000020ec <.Loc.37>:
    20ec:	d6 01       	movw	r26, r12

000020ee <.Loc.38>:
    20ee:	0e 94 9a 0f 	call	0x1f34	; 0x1f34 <__umulhisi3>
    20f2:	e6 0f       	add	r30, r22
    20f4:	f7 1f       	adc	r31, r23

000020f6 <.Loc.39>:
    20f6:	98 01       	movw	r18, r16

000020f8 <.Loc.40>:
    20f8:	be 01       	movw	r22, r28

000020fa <.Loc.41>:
    20fa:	cf 01       	movw	r24, r30

000020fc <.Loc.42>:
    20fc:	0f 91       	pop	r16

000020fe <.Loc.43>:
    20fe:	1f 91       	pop	r17

00002100 <.Loc.44>:
    2100:	cf 91       	pop	r28

00002102 <.Loc.45>:
    2102:	df 91       	pop	r29

00002104 <.Loc.46>:
    2104:	08 95       	ret

00002106 <__muldi3_6>:
    2106:	0e 94 9a 0f 	call	0x1f34	; 0x1f34 <__umulhisi3>

0000210a <.Loc.1>:
    210a:	46 0f       	add	r20, r22

0000210c <.Loc.2>:
    210c:	57 1f       	adc	r21, r23

0000210e <.Loc.3>:
    210e:	c8 1f       	adc	r28, r24

00002110 <.Loc.4>:
    2110:	d9 1f       	adc	r29, r25

00002112 <.Loc.5>:
    2112:	08 f4       	brcc	.+2      	; 0x2116 <.L0^B1>

00002114 <.Loc.6>:
    2114:	31 96       	adiw	r30, 0x01	; 1

00002116 <.L0^B1>:
    2116:	08 95       	ret

00002118 <__mulsidi3>:
    2118:	97 fb       	bst	r25, 7

0000211a <.Loc.1>:
    211a:	57 ff       	sbrs	r21, 7

0000211c <.Loc.2>:
    211c:	0c 94 9c 10 	jmp	0x2138	; 0x2138 <__umulsidi3_helper>

00002120 <.Loc.3>:
    2120:	9f 93       	push	r25

00002122 <.Loc.4>:
    2122:	8f 93       	push	r24

00002124 <.Loc.5>:
    2124:	0e 94 9c 10 	call	0x2138	; 0x2138 <__umulsidi3_helper>

00002128 <.Loc.6>:
    2128:	6e 1b       	sub	r22, r30

0000212a <.Loc.7>:
    212a:	7f 0b       	sbc	r23, r31

0000212c <.Loc.8>:
    212c:	af 91       	pop	r26

0000212e <.Loc.9>:
    212e:	bf 91       	pop	r27

00002130 <.Loc.10>:
    2130:	8a 0b       	sbc	r24, r26

00002132 <.Loc.11>:
    2132:	9b 0b       	sbc	r25, r27

00002134 <.Loc.12>:
    2134:	08 95       	ret

00002136 <__umulsidi3>:
    2136:	e8 94       	clt

00002138 <__umulsidi3_helper>:
    2138:	df 93       	push	r29
    213a:	cf 93       	push	r28

0000213c <.Loc.2>:
    213c:	fc 01       	movw	r30, r24

0000213e <.Loc.3>:
    213e:	db 01       	movw	r26, r22

00002140 <.Loc.4>:
    2140:	0e 94 9a 0f 	call	0x1f34	; 0x1f34 <__umulhisi3>

00002144 <.Loc.5>:
    2144:	7f 93       	push	r23
    2146:	6f 93       	push	r22

00002148 <.Loc.6>:
    2148:	e9 01       	movw	r28, r18

0000214a <.Loc.7>:
    214a:	9a 01       	movw	r18, r20

0000214c <.Loc.8>:
    214c:	ac 01       	movw	r20, r24

0000214e <.Loc.9>:
    214e:	bf 93       	push	r27
    2150:	af 93       	push	r26

00002152 <.Loc.10>:
    2152:	3f 93       	push	r19
    2154:	2f 93       	push	r18

00002156 <.Loc.11>:
    2156:	df 01       	movw	r26, r30

00002158 <.Loc.12>:
    2158:	0e 94 9a 0f 	call	0x1f34	; 0x1f34 <__umulhisi3>

0000215c <.Loc.13>:
    215c:	26 f4       	brtc	.+8      	; 0x2166 <.L0^B1>

0000215e <.Loc.14>:
    215e:	6c 1b       	sub	r22, r28

00002160 <.Loc.15>:
    2160:	7d 0b       	sbc	r23, r29

00002162 <.Loc.16>:
    2162:	82 0b       	sbc	r24, r18

00002164 <.Loc.17>:
    2164:	93 0b       	sbc	r25, r19

00002166 <.L0^B1>:
    2166:	9e 01       	movw	r18, r28

00002168 <.Loc.19>:
    2168:	eb 01       	movw	r28, r22

0000216a <.Loc.20>:
    216a:	fc 01       	movw	r30, r24

0000216c <.Loc.21>:
    216c:	0e 94 83 10 	call	0x2106	; 0x2106 <__muldi3_6>

00002170 <.Loc.22>:
    2170:	af 91       	pop	r26
    2172:	bf 91       	pop	r27

00002174 <.Loc.23>:
    2174:	2f 91       	pop	r18
    2176:	3f 91       	pop	r19

00002178 <.Loc.24>:
    2178:	0e 94 83 10 	call	0x2106	; 0x2106 <__muldi3_6>

0000217c <.Loc.25>:
    217c:	be 01       	movw	r22, r28

0000217e <.Loc.26>:
    217e:	cf 01       	movw	r24, r30

00002180 <.Loc.27>:
    2180:	f9 01       	movw	r30, r18

00002182 <.Loc.28>:
    2182:	2f 91       	pop	r18
    2184:	3f 91       	pop	r19

00002186 <.Loc.29>:
    2186:	cf 91       	pop	r28
    2188:	df 91       	pop	r29

0000218a <.Loc.30>:
    218a:	08 95       	ret

0000218c <__moddi3>:
    218c:	68 94       	set

0000218e <.Loc.1>:
    218e:	01 c0       	rjmp	.+2      	; 0x2192 <__divdi3_moddi3>

00002190 <__divdi3>:
    2190:	e8 94       	clt

00002192 <__divdi3_moddi3>:
    2192:	f9 2f       	mov	r31, r25

00002194 <.Loc.4>:
    2194:	f1 2b       	or	r31, r17

00002196 <.Loc.5>:
    2196:	12 f0       	brmi	.+4      	; 0x219c <.L0^B1>

00002198 <.Loc.6>:
    2198:	0c 94 fa 10 	jmp	0x21f4	; 0x21f4 <__udivdi3_umoddi3>

0000219c <.L0^B1>:
    219c:	a0 e0       	ldi	r26, 0x00	; 0
    219e:	b0 e0       	ldi	r27, 0x00	; 0
    21a0:	e4 ed       	ldi	r30, 0xD4	; 212
    21a2:	f0 e1       	ldi	r31, 0x10	; 16
    21a4:	0c 94 6c 11 	jmp	0x22d8	; 0x22d8 <.Loc.6>

000021a8 <.L_prologue_saves.5>:
    21a8:	09 2e       	mov	r0, r25

000021aa <.Loc.9>:
    21aa:	05 94       	asr	r0

000021ac <.Loc.10>:
    21ac:	22 f4       	brpl	.+8      	; 0x21b6 <.L22^B1>

000021ae <.Loc.11>:
    21ae:	0e 94 56 11 	call	0x22ac	; 0x22ac <__negdi2>

000021b2 <.Loc.12>:
    21b2:	11 23       	and	r17, r17

000021b4 <.Loc.13>:
    21b4:	92 f4       	brpl	.+36     	; 0x21da <.L3^B1>

000021b6 <.L22^B1>:
    21b6:	f0 e8       	ldi	r31, 0x80	; 128

000021b8 <.Loc.15>:
    21b8:	0f 26       	eor	r0, r31

000021ba <.Loc.16>:
    21ba:	ff ef       	ldi	r31, 0xFF	; 255

000021bc <.Loc.17>:
    21bc:	e0 94       	com	r14
    21be:	f0 94       	com	r15
    21c0:	00 95       	com	r16
    21c2:	10 95       	com	r17

000021c4 <.Loc.18>:
    21c4:	b0 94       	com	r11
    21c6:	c0 94       	com	r12
    21c8:	d0 94       	com	r13

000021ca <.Loc.19>:
    21ca:	a1 94       	neg	r10

000021cc <.Loc.20>:
    21cc:	bf 0a       	sbc	r11, r31
    21ce:	cf 0a       	sbc	r12, r31
    21d0:	df 0a       	sbc	r13, r31

000021d2 <.Loc.21>:
    21d2:	ef 0a       	sbc	r14, r31
    21d4:	ff 0a       	sbc	r15, r31
    21d6:	0f 0b       	sbc	r16, r31
    21d8:	1f 0b       	sbc	r17, r31

000021da <.L3^B1>:
    21da:	0e 94 05 11 	call	0x220a	; 0x220a <__udivmod64>

000021de <.Loc.23>:
    21de:	07 fc       	sbrc	r0, 7

000021e0 <.Loc.24>:
    21e0:	0e 94 56 11 	call	0x22ac	; 0x22ac <__negdi2>

000021e4 <.Loc.25>:
    21e4:	cd b7       	in	r28, 0x3d	; 61
    21e6:	de b7       	in	r29, 0x3e	; 62
    21e8:	ec e0       	ldi	r30, 0x0C	; 12
    21ea:	0c 94 85 11 	jmp	0x230a	; 0x230a <.Loc.6>

000021ee <__umoddi3>:
    21ee:	68 94       	set

000021f0 <.Loc.1>:
    21f0:	01 c0       	rjmp	.+2      	; 0x21f4 <__udivdi3_umoddi3>

000021f2 <__udivdi3>:
    21f2:	e8 94       	clt

000021f4 <__udivdi3_umoddi3>:
    21f4:	8f 92       	push	r8

000021f6 <.Loc.4>:
    21f6:	9f 92       	push	r9

000021f8 <.Loc.5>:
    21f8:	cf 93       	push	r28

000021fa <.Loc.6>:
    21fa:	df 93       	push	r29

000021fc <.Loc.7>:
    21fc:	0e 94 05 11 	call	0x220a	; 0x220a <__udivmod64>

00002200 <.Loc.8>:
    2200:	df 91       	pop	r29

00002202 <.Loc.9>:
    2202:	cf 91       	pop	r28

00002204 <.Loc.10>:
    2204:	9f 90       	pop	r9

00002206 <.Loc.11>:
    2206:	8f 90       	pop	r8

00002208 <.Loc.12>:
    2208:	08 95       	ret

0000220a <__udivmod64>:
    220a:	88 24       	eor	r8, r8

0000220c <.Loc.1>:
    220c:	99 24       	eor	r9, r9

0000220e <.Loc.2>:
    220e:	f4 01       	movw	r30, r8

00002210 <.Loc.3>:
    2210:	e4 01       	movw	r28, r8

00002212 <.Loc.4>:
    2212:	b0 e4       	ldi	r27, 0x40	; 64

00002214 <.Loc.5>:
    2214:	9f 93       	push	r25

00002216 <.Loc.6>:
    2216:	aa 27       	eor	r26, r26

00002218 <.L1^B1>:
    2218:	9a 15       	cp	r25, r10
    221a:	8b 04       	cpc	r8, r11
    221c:	9c 04       	cpc	r9, r12
    221e:	ed 05       	cpc	r30, r13

00002220 <.Loc.8>:
    2220:	fe 05       	cpc	r31, r14
    2222:	cf 05       	cpc	r28, r15
    2224:	d0 07       	cpc	r29, r16
    2226:	a1 07       	cpc	r26, r17

00002228 <.Loc.9>:
    2228:	98 f4       	brcc	.+38     	; 0x2250 <.L2^B1>

0000222a <.Loc.10>:
    222a:	ad 2f       	mov	r26, r29
    222c:	dc 2f       	mov	r29, r28
    222e:	cf 2f       	mov	r28, r31

00002230 <.Loc.11>:
    2230:	fe 2f       	mov	r31, r30
    2232:	e9 2d       	mov	r30, r9
    2234:	98 2c       	mov	r9, r8
    2236:	89 2e       	mov	r8, r25

00002238 <.Loc.12>:
    2238:	98 2f       	mov	r25, r24
    223a:	87 2f       	mov	r24, r23
    223c:	76 2f       	mov	r23, r22
    223e:	65 2f       	mov	r22, r21

00002240 <.Loc.13>:
    2240:	54 2f       	mov	r21, r20
    2242:	43 2f       	mov	r20, r19
    2244:	32 2f       	mov	r19, r18
    2246:	22 27       	eor	r18, r18

00002248 <.Loc.14>:
    2248:	b8 50       	subi	r27, 0x08	; 8

0000224a <.Loc.15>:
    224a:	31 f7       	brne	.-52     	; 0x2218 <.L1^B1>

0000224c <.Loc.16>:
    224c:	bf 91       	pop	r27

0000224e <.Loc.17>:
    224e:	27 c0       	rjmp	.+78     	; 0x229e <.L5^B1>

00002250 <.L2^B1>:
    2250:	1b 2e       	mov	r1, r27

00002252 <.Loc.19>:
    2252:	bf 91       	pop	r27

00002254 <.Loc.20>:
    2254:	bb 27       	eor	r27, r27

00002256 <.L3^B1>:
    2256:	22 0f       	add	r18, r18
    2258:	33 1f       	adc	r19, r19
    225a:	44 1f       	adc	r20, r20
    225c:	55 1f       	adc	r21, r21

0000225e <.Loc.22>:
    225e:	66 1f       	adc	r22, r22
    2260:	77 1f       	adc	r23, r23
    2262:	88 1f       	adc	r24, r24
    2264:	99 1f       	adc	r25, r25

00002266 <.Loc.23>:
    2266:	88 1c       	adc	r8, r8
    2268:	99 1c       	adc	r9, r9
    226a:	ee 1f       	adc	r30, r30
    226c:	ff 1f       	adc	r31, r31

0000226e <.Loc.24>:
    226e:	cc 1f       	adc	r28, r28
    2270:	dd 1f       	adc	r29, r29
    2272:	aa 1f       	adc	r26, r26
    2274:	bb 1f       	adc	r27, r27

00002276 <.Loc.25>:
    2276:	8a 14       	cp	r8, r10
    2278:	9b 04       	cpc	r9, r11
    227a:	ec 05       	cpc	r30, r12
    227c:	fd 05       	cpc	r31, r13

0000227e <.Loc.26>:
    227e:	ce 05       	cpc	r28, r14
    2280:	df 05       	cpc	r29, r15
    2282:	a0 07       	cpc	r26, r16
    2284:	b1 07       	cpc	r27, r17

00002286 <.Loc.27>:
    2286:	48 f0       	brcs	.+18     	; 0x229a <.L4^B1>

00002288 <.Loc.28>:
    2288:	8a 18       	sub	r8, r10
    228a:	9b 08       	sbc	r9, r11
    228c:	ec 09       	sbc	r30, r12
    228e:	fd 09       	sbc	r31, r13

00002290 <.Loc.29>:
    2290:	ce 09       	sbc	r28, r14
    2292:	df 09       	sbc	r29, r15
    2294:	a0 0b       	sbc	r26, r16
    2296:	b1 0b       	sbc	r27, r17

00002298 <.Loc.30>:
    2298:	21 60       	ori	r18, 0x01	; 1

0000229a <.L4^B1>:
    229a:	1a 94       	dec	r1

0000229c <.Loc.32>:
    229c:	e1 f6       	brne	.-72     	; 0x2256 <.L3^B1>

0000229e <.L5^B1>:
    229e:	2e f4       	brtc	.+10     	; 0x22aa <.L6^B1>

000022a0 <.Loc.34>:
    22a0:	94 01       	movw	r18, r8

000022a2 <.Loc.35>:
    22a2:	af 01       	movw	r20, r30

000022a4 <.Loc.36>:
    22a4:	be 01       	movw	r22, r28

000022a6 <.Loc.37>:
    22a6:	cd 01       	movw	r24, r26

000022a8 <.Loc.38>:
    22a8:	00 0c       	add	r0, r0

000022aa <.L6^B1>:
    22aa:	08 95       	ret

000022ac <__negdi2>:
    22ac:	60 95       	com	r22
    22ae:	70 95       	com	r23
    22b0:	80 95       	com	r24
    22b2:	90 95       	com	r25

000022b4 <.Loc.1>:
    22b4:	30 95       	com	r19
    22b6:	40 95       	com	r20
    22b8:	50 95       	com	r21

000022ba <.Loc.2>:
    22ba:	21 95       	neg	r18

000022bc <.Loc.3>:
    22bc:	3f 4f       	sbci	r19, 0xFF	; 255
    22be:	4f 4f       	sbci	r20, 0xFF	; 255
    22c0:	5f 4f       	sbci	r21, 0xFF	; 255

000022c2 <.Loc.4>:
    22c2:	6f 4f       	sbci	r22, 0xFF	; 255
    22c4:	7f 4f       	sbci	r23, 0xFF	; 255
    22c6:	8f 4f       	sbci	r24, 0xFF	; 255
    22c8:	9f 4f       	sbci	r25, 0xFF	; 255

000022ca <.Loc.5>:
    22ca:	08 95       	ret

000022cc <__prologue_saves__>:
    22cc:	2f 92       	push	r2

000022ce <.Loc.1>:
    22ce:	3f 92       	push	r3

000022d0 <.Loc.2>:
    22d0:	4f 92       	push	r4

000022d2 <.Loc.3>:
    22d2:	5f 92       	push	r5

000022d4 <.Loc.4>:
    22d4:	6f 92       	push	r6

000022d6 <.Loc.5>:
    22d6:	7f 92       	push	r7

000022d8 <.Loc.6>:
    22d8:	8f 92       	push	r8

000022da <.Loc.7>:
    22da:	9f 92       	push	r9

000022dc <.Loc.8>:
    22dc:	af 92       	push	r10

000022de <.Loc.9>:
    22de:	bf 92       	push	r11

000022e0 <.Loc.10>:
    22e0:	cf 92       	push	r12

000022e2 <.Loc.11>:
    22e2:	df 92       	push	r13

000022e4 <.Loc.12>:
    22e4:	ef 92       	push	r14

000022e6 <.Loc.13>:
    22e6:	ff 92       	push	r15

000022e8 <.Loc.14>:
    22e8:	0f 93       	push	r16

000022ea <.Loc.15>:
    22ea:	1f 93       	push	r17

000022ec <.Loc.16>:
    22ec:	cf 93       	push	r28

000022ee <.Loc.17>:
    22ee:	df 93       	push	r29

000022f0 <.Loc.18>:
    22f0:	cd b7       	in	r28, 0x3d	; 61

000022f2 <.Loc.19>:
    22f2:	de b7       	in	r29, 0x3e	; 62

000022f4 <.Loc.20>:
    22f4:	ca 1b       	sub	r28, r26

000022f6 <.Loc.21>:
    22f6:	db 0b       	sbc	r29, r27

000022f8 <.Loc.22>:
    22f8:	cd bf       	out	0x3d, r28	; 61

000022fa <.Loc.23>:
    22fa:	de bf       	out	0x3e, r29	; 62

000022fc <.Loc.24>:
    22fc:	09 94       	ijmp

000022fe <__epilogue_restores__>:
    22fe:	2a 88       	ldd	r2, Y+18	; 0x12

00002300 <.Loc.1>:
    2300:	39 88       	ldd	r3, Y+17	; 0x11

00002302 <.Loc.2>:
    2302:	48 88       	ldd	r4, Y+16	; 0x10

00002304 <.Loc.3>:
    2304:	5f 84       	ldd	r5, Y+15	; 0x0f

00002306 <.Loc.4>:
    2306:	6e 84       	ldd	r6, Y+14	; 0x0e

00002308 <.Loc.5>:
    2308:	7d 84       	ldd	r7, Y+13	; 0x0d

0000230a <.Loc.6>:
    230a:	8c 84       	ldd	r8, Y+12	; 0x0c

0000230c <.Loc.7>:
    230c:	9b 84       	ldd	r9, Y+11	; 0x0b

0000230e <.Loc.8>:
    230e:	aa 84       	ldd	r10, Y+10	; 0x0a

00002310 <.Loc.9>:
    2310:	b9 84       	ldd	r11, Y+9	; 0x09

00002312 <.Loc.10>:
    2312:	c8 84       	ldd	r12, Y+8	; 0x08

00002314 <.Loc.11>:
    2314:	df 80       	ldd	r13, Y+7	; 0x07

00002316 <.Loc.12>:
    2316:	ee 80       	ldd	r14, Y+6	; 0x06

00002318 <.Loc.13>:
    2318:	fd 80       	ldd	r15, Y+5	; 0x05

0000231a <.Loc.14>:
    231a:	0c 81       	ldd	r16, Y+4	; 0x04

0000231c <.Loc.15>:
    231c:	1b 81       	ldd	r17, Y+3	; 0x03

0000231e <.Loc.16>:
    231e:	aa 81       	ldd	r26, Y+2	; 0x02

00002320 <.Loc.17>:
    2320:	b9 81       	ldd	r27, Y+1	; 0x01

00002322 <.Loc.18>:
    2322:	ce 0f       	add	r28, r30

00002324 <.Loc.19>:
    2324:	d1 1d       	adc	r29, r1

00002326 <.Loc.20>:
    2326:	cd bf       	out	0x3d, r28	; 61

00002328 <.Loc.21>:
    2328:	de bf       	out	0x3e, r29	; 62

0000232a <.Loc.22>:
    232a:	ed 01       	movw	r28, r26

0000232c <.Loc.23>:
    232c:	08 95       	ret

0000232e <eeprom_read_block>:
    232e:	60 50       	subi	r22, 0x00	; 0
    2330:	7c 4e       	sbci	r23, 0xEC	; 236
    2332:	0c 94 d2 11 	jmp	0x23a4	; 0x23a4 <memcpy>

00002336 <eeprom_update_block>:
    2336:	dc 01       	movw	r26, r24
    2338:	a4 0f       	add	r26, r20
    233a:	b5 1f       	adc	r27, r21
    233c:	41 50       	subi	r20, 0x01	; 1
    233e:	50 40       	sbci	r21, 0x00	; 0
    2340:	48 f0       	brcs	.+18     	; 0x2354 <.L3^B1>
    2342:	cb 01       	movw	r24, r22
    2344:	84 0f       	add	r24, r20
    2346:	95 1f       	adc	r25, r21

00002348 <.L1^B1>:
    2348:	2e 91       	ld	r18, -X
    234a:	0e 94 ac 11 	call	0x2358	; 0x2358 <eeprom_update_r18>
    234e:	41 50       	subi	r20, 0x01	; 1
    2350:	50 40       	sbci	r21, 0x00	; 0
    2352:	d0 f7       	brcc	.-12     	; 0x2348 <.L1^B1>

00002354 <.L3^B1>:
    2354:	08 95       	ret

00002356 <eeprom_update_byte>:
    2356:	26 2f       	mov	r18, r22

00002358 <eeprom_update_r18>:
    2358:	0e 94 ce 11 	call	0x239c	; 0x239c <eeprom_mapen>
    235c:	00 80       	ld	r0, Z
    235e:	02 16       	cp	r0, r18
    2360:	19 f0       	breq	.+6      	; 0x2368 <.L1^B1>
    2362:	0e 94 b7 11 	call	0x236e	; 0x236e <eeprom_write_r18>
    2366:	01 97       	sbiw	r24, 0x01	; 1

00002368 <.L1^B1>:
    2368:	01 97       	sbiw	r24, 0x01	; 1
    236a:	08 95       	ret

0000236c <eeprom_write_byte>:
    236c:	26 2f       	mov	r18, r22

0000236e <eeprom_write_r18>:
    236e:	af 93       	push	r26
    2370:	bf 93       	push	r27
    2372:	e0 e0       	ldi	r30, 0x00	; 0
    2374:	f0 e1       	ldi	r31, 0x10	; 16

00002376 <.L1^B1>:
    2376:	32 81       	ldd	r19, Z+2	; 0x02
    2378:	31 fd       	sbrc	r19, 1
    237a:	fd cf       	rjmp	.-6      	; 0x2376 <.L1^B1>
    237c:	dc 01       	movw	r26, r24
    237e:	a0 50       	subi	r26, 0x00	; 0
    2380:	bc 4e       	sbci	r27, 0xEC	; 236
    2382:	2c 93       	st	X, r18
    2384:	2d e9       	ldi	r18, 0x9D	; 157
    2386:	24 bf       	out	0x34, r18	; 52
    2388:	23 e0       	ldi	r18, 0x03	; 3
    238a:	20 83       	st	Z, r18
    238c:	01 96       	adiw	r24, 0x01	; 1
    238e:	bf 91       	pop	r27
    2390:	af 91       	pop	r26
    2392:	08 95       	ret

00002394 <eeprom_read_byte>:
    2394:	03 d0       	rcall	.+6      	; 0x239c <eeprom_mapen>
    2396:	80 81       	ld	r24, Z
    2398:	99 27       	eor	r25, r25
    239a:	08 95       	ret

0000239c <eeprom_mapen>:
    239c:	fc 01       	movw	r30, r24
    239e:	e0 50       	subi	r30, 0x00	; 0
    23a0:	fc 4e       	sbci	r31, 0xEC	; 236
    23a2:	08 95       	ret

000023a4 <memcpy>:
    23a4:	fb 01       	movw	r30, r22
    23a6:	dc 01       	movw	r26, r24
    23a8:	02 c0       	rjmp	.+4      	; 0x23ae <.L_memcpy_start>

000023aa <.L_memcpy_loop>:
    23aa:	01 90       	ld	r0, Z+
    23ac:	0d 92       	st	X+, r0

000023ae <.L_memcpy_start>:
    23ae:	41 50       	subi	r20, 0x01	; 1
    23b0:	50 40       	sbci	r21, 0x00	; 0
    23b2:	d8 f7       	brcc	.-10     	; 0x23aa <.L_memcpy_loop>
    23b4:	08 95       	ret

000023b6 <_exit>:
    23b6:	f8 94       	cli

000023b8 <__stop_program>:
    23b8:	ff cf       	rjmp	.-2      	; 0x23b8 <__stop_program>

000023ba <L0^A>:
    23ba:	08 4a       	sbci	r16, 0xA8	; 168
    23bc:	d7 3b       	cpi	r29, 0xB7	; 183
    23be:	3b ce       	rjmp	.-906    	; 0x2036 <__negsi2+0x2>
    23c0:	01 6e       	ori	r16, 0xE1	; 225
    23c2:	84 bc       	out	0x24, r8	; 36
    23c4:	bf fd       	.word	0xfdbf	; ????
    23c6:	c1 2f       	mov	r28, r17
    23c8:	3d 6c       	ori	r19, 0xCD	; 205
    23ca:	74 31       	cpi	r23, 0x14	; 20
    23cc:	9a bd       	out	0x2a, r25	; 42
    23ce:	56 83       	std	Z+6, r21	; 0x06
    23d0:	3d da       	rcall	.-2950   	; 0x184c <__fp_mpack_finite+0x8>
    23d2:	3d 00       	.word	0x003d	; ????
    23d4:	c7 7f       	andi	r28, 0xF7	; 247
    23d6:	11 be       	out	0x31, r1	; 49
    23d8:	d9 e4       	ldi	r29, 0x49	; 73
    23da:	bb 4c       	sbci	r27, 0xCB	; 203
    23dc:	3e 91       	ld	r19, -X
    23de:	6b aa       	std	Y+51, r6	; 0x33
    23e0:	aa be       	out	0x3a, r10	; 58
    23e2:	00 00       	nop
    23e4:	00 80       	ld	r0, Z
    23e6:	Address 0x23e6 is out of bounds.


000023e7 <.L_table>:
    23e7:	05 a8       	ldd	r0, Z+53	; 0x35
    23e9:	4c cd       	rjmp	.-1384   	; 0x1e83 <__fixunssfsi+0xf>
    23eb:	b2 d4       	rcall	.+2404   	; 0x2d51 <__data_load_end+0x793>
    23ed:	4e b9       	out	0x0e, r20	; 14
    23ef:	38 36       	cpi	r19, 0x68	; 104
    23f1:	a9 02       	muls	r26, r25
    23f3:	0c 50       	subi	r16, 0x0C	; 12
    23f5:	b9 91       	ld	r27, Y+
    23f7:	86 88       	ldd	r8, Z+22	; 0x16
    23f9:	08 3c       	cpi	r16, 0xC8	; 200
    23fb:	a6 aa       	std	Z+54, r10	; 0x36
    23fd:	aa 2a       	or	r10, r26
    23ff:	be 00       	.word	0x00be	; ????
    2401:	00 00       	nop
    2403:	80 3f       	cpi	r24, 0xF0	; 240

00002405 <.L_tlow>:
    2405:	08 00       	.word	0x0008	; ????
    2407:	00 00       	nop
    2409:	be 92       	st	-X, r11
    240b:	24 49       	sbci	r18, 0x94	; 148
    240d:	12 3e       	cpi	r17, 0xE2	; 226
    240f:	ab aa       	std	Y+51, r10	; 0x33
    2411:	aa 2a       	or	r10, r26
    2413:	be cd       	rjmp	.-1156   	; 0x1f91 <.Loc.15+0x1>
    2415:	cc cc       	rjmp	.-1640   	; 0x1daf <__floatsisf+0x7>
    2417:	4c 3e       	cpi	r20, 0xEC	; 236
    2419:	00 00       	nop
    241b:	00 80       	ld	r0, Z
    241d:	be ab       	std	Y+54, r27	; 0x36
    241f:	aa aa       	std	Y+50, r10	; 0x32
    2421:	aa 3e       	cpi	r26, 0xEA	; 234
    2423:	00 00       	nop
    2425:	00 00       	nop
    2427:	bf 00       	.word	0x00bf	; ????
    2429:	00 00       	nop
    242b:	80 3f       	cpi	r24, 0xF0	; 240
    242d:	00 00       	nop
    242f:	00 00       	nop
	...

00002432 <.L_thigh>:
    2432:	08 41       	sbci	r16, 0x18	; 24
    2434:	78 d3       	rcall	.+1776   	; 0x2b26 <__data_load_end+0x568>
    2436:	bb 43       	sbci	r27, 0x3B	; 59
    2438:	87 d1       	rcall	.+782    	; 0x2748 <__data_load_end+0x18a>
    243a:	13 3d       	cpi	r17, 0xD3	; 211
    243c:	19 0e       	add	r1, r25
    243e:	3c c3       	rjmp	.+1656   	; 0x2ab8 <__data_load_end+0x4fa>
    2440:	bd 42       	sbci	r27, 0x2D	; 45
    2442:	82 ad       	ldd	r24, Z+58	; 0x3a
    2444:	2b 3e       	cpi	r18, 0xEB	; 235
    2446:	68 ec       	ldi	r22, 0xC8	; 200
    2448:	82 76       	andi	r24, 0x62	; 98
    244a:	be d9       	rcall	.-3204   	; 0x17c8 <.L2^B2>
    244c:	8f e1       	ldi	r24, 0x1F	; 31
    244e:	a9 3e       	cpi	r26, 0xE9	; 233
    2450:	4c 80       	ldd	r4, Y+4	; 0x04
    2452:	ef ff       	.word	0xffef	; ????
    2454:	be 01       	movw	r22, r28
    2456:	c4 ff       	sbrs	r28, 4
    2458:	7f 3f       	cpi	r23, 0xFF	; 255
    245a:	00 00       	nop
    245c:	00 00       	nop
	...
