
main.elf:     file format elf32-avr

Sections:
Idx Name          Size      VMA       LMA       File off  Algn
  0 .data         00000000  00803800  00803800  00001f99  2**0
                  CONTENTS, ALLOC, LOAD, DATA
  1 .text         00001e8c  00000000  00000000  00000094  2**1
                  CONTENTS, ALLOC, LOAD, READONLY, CODE
  2 .rodata       00000079  00009e8c  00001e8c  00001f20  2**0
                  CONTENTS, ALLOC, LOAD, READONLY, DATA
  3 .bss          00000153  00803800  00803800  00001f99  2**0
                  ALLOC
  4 .comment      00000012  00000000  00000000  00001f99  2**0
                  CONTENTS, READONLY
  5 .note.gnu.avr.deviceinfo 00000040  00000000  00000000  00001fac  2**2
                  CONTENTS, READONLY, OCTETS
  6 .debug_aranges 00000280  00000000  00000000  00001ff0  2**3
                  CONTENTS, READONLY, DEBUGGING, OCTETS
  7 .debug_info   00001fca  00000000  00000000  00002270  2**0
                  CONTENTS, READONLY, DEBUGGING, OCTETS
  8 .debug_abbrev 00001cfa  00000000  00000000  0000423a  2**0
                  CONTENTS, READONLY, DEBUGGING, OCTETS
  9 .debug_line   00000e27  00000000  00000000  00005f34  2**0
                  CONTENTS, READONLY, DEBUGGING, OCTETS
 10 .debug_str    00000c4e  00000000  00000000  00006d5b  2**0
                  CONTENTS, READONLY, DEBUGGING, OCTETS
 11 .debug_line_str 00000061  00000000  00000000  000079a9  2**0
                  CONTENTS, READONLY, DEBUGGING, OCTETS

Disassembly of section .text:

00000000 <__vectors>:
       0:	0c 94 3e 00 	jmp	0x7c	; 0x7c <__ctors_end>
       4:	0c 94 50 00 	jmp	0xa0	; 0xa0 <__bad_interrupt>
       8:	0c 94 50 00 	jmp	0xa0	; 0xa0 <__bad_interrupt>
       c:	0c 94 50 00 	jmp	0xa0	; 0xa0 <__bad_interrupt>
      10:	0c 94 50 00 	jmp	0xa0	; 0xa0 <__bad_interrupt>
      14:	0c 94 50 00 	jmp	0xa0	; 0xa0 <__bad_interrupt>
      18:	0c 94 50 00 	jmp	0xa0	; 0xa0 <__bad_interrupt>
      1c:	0c 94 ac 03 	jmp	0x758	; 0x758 <__vector_7>
      20:	0c 94 50 00 	jmp	0xa0	; 0xa0 <__bad_interrupt>
      24:	0c 94 50 00 	jmp	0xa0	; 0xa0 <__bad_interrupt>
      28:	0c 94 50 00 	jmp	0xa0	; 0xa0 <__bad_interrupt>
      2c:	0c 94 50 00 	jmp	0xa0	; 0xa0 <__bad_interrupt>
      30:	0c 94 50 00 	jmp	0xa0	; 0xa0 <__bad_interrupt>
      34:	0c 94 50 00 	jmp	0xa0	; 0xa0 <__bad_interrupt>
      38:	0c 94 50 00 	jmp	0xa0	; 0xa0 <__bad_interrupt>
      3c:	0c 94 50 00 	jmp	0xa0	; 0xa0 <__bad_interrupt>
      40:	0c 94 50 00 	jmp	0xa0	; 0xa0 <__bad_interrupt>
      44:	0c 94 50 00 	jmp	0xa0	; 0xa0 <__bad_interrupt>
      48:	0c 94 50 00 	jmp	0xa0	; 0xa0 <__bad_interrupt>
      4c:	0c 94 50 00 	jmp	0xa0	; 0xa0 <__bad_interrupt>
      50:	0c 94 50 00 	jmp	0xa0	; 0xa0 <__bad_interrupt>
      54:	0c 94 50 00 	jmp	0xa0	; 0xa0 <__bad_interrupt>
      58:	0c 94 50 00 	jmp	0xa0	; 0xa0 <__bad_interrupt>
      5c:	0c 94 50 00 	jmp	0xa0	; 0xa0 <__bad_interrupt>
      60:	0c 94 50 00 	jmp	0xa0	; 0xa0 <__bad_interrupt>
      64:	0c 94 50 00 	jmp	0xa0	; 0xa0 <__bad_interrupt>
      68:	0c 94 50 00 	jmp	0xa0	; 0xa0 <__bad_interrupt>
      6c:	0c 94 50 00 	jmp	0xa0	; 0xa0 <__bad_interrupt>
      70:	0c 94 50 00 	jmp	0xa0	; 0xa0 <__bad_interrupt>
      74:	0c 94 50 00 	jmp	0xa0	; 0xa0 <__bad_interrupt>
      78:	0c 94 50 00 	jmp	0xa0	; 0xa0 <__bad_interrupt>

0000007c <__ctors_end>:
      7c:	11 24       	eor	r1, r1
      7e:	1f be       	out	0x3f, r1	; 63
      80:	cf ef       	ldi	r28, 0xFF	; 255
      82:	cd bf       	out	0x3d, r28	; 61
      84:	df e3       	ldi	r29, 0x3F	; 63
      86:	de bf       	out	0x3e, r29	; 62

00000088 <__do_clear_bss>:
      88:	29 e3       	ldi	r18, 0x39	; 57

0000008a <.Loc.1>:
      8a:	a0 e0       	ldi	r26, 0x00	; 0

0000008c <.Loc.2>:
      8c:	b8 e3       	ldi	r27, 0x38	; 56

0000008e <.Loc.3>:
      8e:	01 c0       	rjmp	.+2      	; 0x92 <.Loc.5>

00000090 <.Loc.4>:
      90:	1d 92       	st	X+, r1

00000092 <.Loc.5>:
      92:	a3 35       	cpi	r26, 0x53	; 83

00000094 <.Loc.6>:
      94:	b2 07       	cpc	r27, r18

00000096 <.Loc.7>:
      96:	e1 f7       	brne	.-8      	; 0x90 <.Loc.4>

00000098 <L0^A>:
      98:	0e 94 b2 03 	call	0x764	; 0x764 <main>
      9c:	0c 94 f1 0e 	jmp	0x1de2	; 0x1de2 <_exit>

000000a0 <__bad_interrupt>:
      a0:	0c 94 00 00 	jmp	0	; 0x0 <__vectors>

000000a4 <usart_putc>:
      a4:	90 91 04 08 	lds	r25, 0x0804	; 0x800804 <__RODATA_PM_OFFSET__+0x7f8804>
      a8:	95 ff       	sbrs	r25, 5
      aa:	fc cf       	rjmp	.-8      	; 0xa4 <usart_putc>
      ac:	80 93 02 08 	sts	0x0802, r24	; 0x800802 <__RODATA_PM_OFFSET__+0x7f8802>
      b0:	08 95       	ret

000000b2 <usart_print>:
      b2:	cf 93       	push	r28
      b4:	df 93       	push	r29
      b6:	ec 01       	movw	r28, r24

000000b8 <.L6>:
      b8:	88 81       	ld	r24, Y
      ba:	81 11       	cpse	r24, r1
      bc:	03 c0       	rjmp	.+6      	; 0xc4 <.L7>
      be:	df 91       	pop	r29
      c0:	cf 91       	pop	r28
      c2:	08 95       	ret

000000c4 <.L7>:
      c4:	21 96       	adiw	r28, 0x01	; 1
      c6:	0e 94 52 00 	call	0xa4	; 0xa4 <usart_putc>
      ca:	f6 cf       	rjmp	.-20     	; 0xb8 <.L6>

000000cc <usart_print_u16>:
      cc:	ff 92       	push	r15
      ce:	0f 93       	push	r16
      d0:	1f 93       	push	r17
      d2:	cf 93       	push	r28
      d4:	df 93       	push	r29
      d6:	00 d0       	rcall	.+0      	; 0xd8 <L0^A>

000000d8 <L0^A>:
      d8:	00 d0       	rcall	.+0      	; 0xda <L0^A>

000000da <L0^A>:
      da:	00 d0       	rcall	.+0      	; 0xdc <L0^A>

000000dc <L0^A>:
      dc:	cd b7       	in	r28, 0x3d	; 61
      de:	de b7       	in	r29, 0x3e	; 62
      e0:	9c 01       	movw	r18, r24
      e2:	89 2b       	or	r24, r25
      e4:	59 f4       	brne	.+22     	; 0xfc <.L9>
      e6:	80 e3       	ldi	r24, 0x30	; 48
      e8:	26 96       	adiw	r28, 0x06	; 6
      ea:	cd bf       	out	0x3d, r28	; 61
      ec:	de bf       	out	0x3e, r29	; 62
      ee:	df 91       	pop	r29
      f0:	cf 91       	pop	r28
      f2:	1f 91       	pop	r17
      f4:	0f 91       	pop	r16
      f6:	ff 90       	pop	r15
      f8:	0c 94 52 00 	jmp	0xa4	; 0xa4 <usart_putc>

000000fc <.L9>:
      fc:	fe 01       	movw	r30, r28
      fe:	31 96       	adiw	r30, 0x01	; 1
     100:	40 e0       	ldi	r20, 0x00	; 0
     102:	8f 01       	movw	r16, r30

00000104 <.L11>:
     104:	c9 01       	movw	r24, r18
     106:	6a e0       	ldi	r22, 0x0A	; 10
     108:	70 e0       	ldi	r23, 0x00	; 0
     10a:	0e 94 13 0d 	call	0x1a26	; 0x1a26 <__udivmodhi4>
     10e:	f4 2e       	mov	r15, r20
     110:	80 5d       	subi	r24, 0xD0	; 208
     112:	80 83       	st	Z, r24
     114:	2a 30       	cpi	r18, 0x0A	; 10
     116:	31 05       	cpc	r19, r1
     118:	38 f0       	brcs	.+14     	; 0x128 <.L12>
     11a:	41 e0       	ldi	r20, 0x01	; 1
     11c:	4f 0d       	add	r20, r15
     11e:	31 96       	adiw	r30, 0x01	; 1
     120:	9b 01       	movw	r18, r22
     122:	84 e0       	ldi	r24, 0x04	; 4
     124:	f8 12       	cpse	r15, r24
     126:	ee cf       	rjmp	.-36     	; 0x104 <.L11>

00000128 <.L12>:
     128:	f8 01       	movw	r30, r16
     12a:	ef 0d       	add	r30, r15
     12c:	f1 1d       	adc	r31, r1
     12e:	80 81       	ld	r24, Z
     130:	0e 94 52 00 	call	0xa4	; 0xa4 <usart_putc>
     134:	fa 94       	dec	r15
     136:	8f ef       	ldi	r24, 0xFF	; 255
     138:	f8 12       	cpse	r15, r24
     13a:	f6 cf       	rjmp	.-20     	; 0x128 <.L12>
     13c:	26 96       	adiw	r28, 0x06	; 6
     13e:	cd bf       	out	0x3d, r28	; 61
     140:	de bf       	out	0x3e, r29	; 62
     142:	df 91       	pop	r29
     144:	cf 91       	pop	r28
     146:	1f 91       	pop	r17
     148:	0f 91       	pop	r16
     14a:	ff 90       	pop	r15
     14c:	08 95       	ret

0000014e <usart_print_temp_dC>:
     14e:	cf 93       	push	r28
     150:	df 93       	push	r29
     152:	ec 01       	movw	r28, r24
     154:	97 ff       	sbrs	r25, 7
     156:	06 c0       	rjmp	.+12     	; 0x164 <.L16>
     158:	8d e2       	ldi	r24, 0x2D	; 45
     15a:	0e 94 52 00 	call	0xa4	; 0xa4 <usart_putc>
     15e:	d1 95       	neg	r29
     160:	c1 95       	neg	r28
     162:	d1 09       	sbc	r29, r1

00000164 <.L16>:
     164:	ce 01       	movw	r24, r28
     166:	6a e0       	ldi	r22, 0x0A	; 10
     168:	70 e0       	ldi	r23, 0x00	; 0
     16a:	0e 94 27 0d 	call	0x1a4e	; 0x1a4e <__divmodhi4>
     16e:	c8 2f       	mov	r28, r24
     170:	cb 01       	movw	r24, r22
     172:	0e 94 66 00 	call	0xcc	; 0xcc <usart_print_u16>
     176:	8e e2       	ldi	r24, 0x2E	; 46
     178:	0e 94 52 00 	call	0xa4	; 0xa4 <usart_putc>
     17c:	80 e3       	ldi	r24, 0x30	; 48
     17e:	8c 0f       	add	r24, r28
     180:	df 91       	pop	r29
     182:	cf 91       	pop	r28
     184:	0c 94 52 00 	jmp	0xa4	; 0xa4 <usart_putc>

00000188 <adc_read>:
     188:	80 93 06 06 	sts	0x0606, r24	; 0x800606 <__RODATA_PM_OFFSET__+0x7f8606>
     18c:	81 e0       	ldi	r24, 0x01	; 1
     18e:	80 93 0b 06 	sts	0x060B, r24	; 0x80060b <__RODATA_PM_OFFSET__+0x7f860b>
     192:	80 93 08 06 	sts	0x0608, r24	; 0x800608 <__RODATA_PM_OFFSET__+0x7f8608>

00000196 <.L18>:
     196:	80 91 0b 06 	lds	r24, 0x060B	; 0x80060b <__RODATA_PM_OFFSET__+0x7f860b>
     19a:	80 ff       	sbrs	r24, 0
     19c:	fc cf       	rjmp	.-8      	; 0x196 <.L18>
     19e:	80 91 10 06 	lds	r24, 0x0610	; 0x800610 <__RODATA_PM_OFFSET__+0x7f8610>
     1a2:	90 91 11 06 	lds	r25, 0x0611	; 0x800611 <__RODATA_PM_OFFSET__+0x7f8611>
     1a6:	08 95       	ret

000001a8 <measure_once_ticks>:
     1a8:	2f 92       	push	r2
     1aa:	3f 92       	push	r3
     1ac:	4f 92       	push	r4
     1ae:	5f 92       	push	r5
     1b0:	6f 92       	push	r6
     1b2:	7f 92       	push	r7
     1b4:	8f 92       	push	r8
     1b6:	9f 92       	push	r9
     1b8:	af 92       	push	r10
     1ba:	bf 92       	push	r11
     1bc:	cf 92       	push	r12
     1be:	df 92       	push	r13
     1c0:	ef 92       	push	r14
     1c2:	ff 92       	push	r15
     1c4:	0f 93       	push	r16
     1c6:	1f 93       	push	r17
     1c8:	cf 93       	push	r28
     1ca:	df 93       	push	r29
     1cc:	cd b7       	in	r28, 0x3d	; 61
     1ce:	de b7       	in	r29, 0x3e	; 62
     1d0:	a5 97       	sbiw	r28, 0x25	; 37
     1d2:	cd bf       	out	0x3d, r28	; 61
     1d4:	de bf       	out	0x3e, r29	; 62
     1d6:	89 83       	std	Y+1, r24	; 0x01
     1d8:	81 e5       	ldi	r24, 0x51	; 81
     1da:	80 93 02 06 	sts	0x0602, r24	; 0x800602 <__RODATA_PM_OFFSET__+0x7f8602>
     1de:	10 92 03 06 	sts	0x0603, r1	; 0x800603 <__RODATA_PM_OFFSET__+0x7f8603>
     1e2:	80 91 00 06 	lds	r24, 0x0600	; 0x800600 <__RODATA_PM_OFFSET__+0x7f8600>
     1e6:	84 60       	ori	r24, 0x04	; 4
     1e8:	80 93 00 06 	sts	0x0600, r24	; 0x800600 <__RODATA_PM_OFFSET__+0x7f8600>
     1ec:	89 e0       	ldi	r24, 0x09	; 9
     1ee:	0e 94 c4 00 	call	0x188	; 0x188 <adc_read>
     1f2:	80 93 51 39 	sts	0x3951, r24	; 0x803951 <echo_baseline>
     1f6:	90 93 52 39 	sts	0x3952, r25	; 0x803952 <echo_baseline+0x1>
     1fa:	81 e0       	ldi	r24, 0x01	; 1
     1fc:	80 93 26 04 	sts	0x0426, r24	; 0x800426 <__RODATA_PM_OFFSET__+0x7f8426>
     200:	10 92 4a 0a 	sts	0x0A4A, r1	; 0x800a4a <__RODATA_PM_OFFSET__+0x7f8a4a>
     204:	10 92 4b 0a 	sts	0x0A4B, r1	; 0x800a4b <__RODATA_PM_OFFSET__+0x7f8a4b>

00000208 <.L22>:
     208:	29 81       	ldd	r18, Y+1	; 0x01
     20a:	21 50       	subi	r18, 0x01	; 1
     20c:	29 83       	std	Y+1, r18	; 0x01
     20e:	80 93 25 04 	sts	0x0425, r24	; 0x800425 <__RODATA_PM_OFFSET__+0x7f8425>
     212:	49 e2       	ldi	r20, 0x29	; 41

00000214 <.L1^B1>:
     214:	4a 95       	dec	r20
     216:	f1 f7       	brne	.-4      	; 0x214 <.L1^B1>
     218:	00 c0       	rjmp	.+0      	; 0x21a <L0^A>

0000021a <L0^A>:
     21a:	80 93 26 04 	sts	0x0426, r24	; 0x800426 <__RODATA_PM_OFFSET__+0x7f8426>
     21e:	59 e2       	ldi	r21, 0x29	; 41

00000220 <.L1^B2>:
     220:	5a 95       	dec	r21
     222:	f1 f7       	brne	.-4      	; 0x220 <.L1^B2>
     224:	00 c0       	rjmp	.+0      	; 0x226 <L0^A>

00000226 <L0^A>:
     226:	21 11       	cpse	r18, r1
     228:	ef cf       	rjmp	.-34     	; 0x208 <.L22>
     22a:	80 93 26 04 	sts	0x0426, r24	; 0x800426 <__RODATA_PM_OFFSET__+0x7f8426>
     22e:	8d ee       	ldi	r24, 0xED	; 237
     230:	92 e0       	ldi	r25, 0x02	; 2

00000232 <.L1^B3>:
     232:	01 97       	sbiw	r24, 0x01	; 1
     234:	f1 f7       	brne	.-4      	; 0x232 <.L1^B3>
     236:	00 c0       	rjmp	.+0      	; 0x238 <L0^A>

00000238 <L0^A>:
     238:	00 00       	nop
     23a:	89 e0       	ldi	r24, 0x09	; 9
     23c:	80 93 06 06 	sts	0x0606, r24	; 0x800606 <__RODATA_PM_OFFSET__+0x7f8606>
     240:	a0 90 4a 0a 	lds	r10, 0x0A4A	; 0x800a4a <__RODATA_PM_OFFSET__+0x7f8a4a>
     244:	b0 90 4b 0a 	lds	r11, 0x0A4B	; 0x800a4b <__RODATA_PM_OFFSET__+0x7f8a4b>
     248:	21 e5       	ldi	r18, 0x51	; 81
     24a:	39 e3       	ldi	r19, 0x39	; 57
     24c:	e1 e1       	ldi	r30, 0x11	; 17
     24e:	f8 e3       	ldi	r31, 0x38	; 56
     250:	81 e0       	ldi	r24, 0x01	; 1

00000252 <.L24>:
     252:	80 93 0b 06 	sts	0x060B, r24	; 0x80060b <__RODATA_PM_OFFSET__+0x7f860b>
     256:	80 93 08 06 	sts	0x0608, r24	; 0x800608 <__RODATA_PM_OFFSET__+0x7f8608>

0000025a <.L23>:
     25a:	90 91 0b 06 	lds	r25, 0x060B	; 0x80060b <__RODATA_PM_OFFSET__+0x7f860b>
     25e:	90 ff       	sbrs	r25, 0
     260:	fc cf       	rjmp	.-8      	; 0x25a <.L23>
     262:	40 91 10 06 	lds	r20, 0x0610	; 0x800610 <__RODATA_PM_OFFSET__+0x7f8610>
     266:	50 91 11 06 	lds	r21, 0x0611	; 0x800611 <__RODATA_PM_OFFSET__+0x7f8611>
     26a:	41 93       	st	Z+, r20
     26c:	2e 17       	cp	r18, r30
     26e:	3f 07       	cpc	r19, r31
     270:	81 f7       	brne	.-32     	; 0x252 <.L24>
     272:	80 90 4a 0a 	lds	r8, 0x0A4A	; 0x800a4a <__RODATA_PM_OFFSET__+0x7f8a4a>
     276:	90 90 4b 0a 	lds	r9, 0x0A4B	; 0x800a4b <__RODATA_PM_OFFSET__+0x7f8a4b>
     27a:	a0 92 0f 38 	sts	0x380F, r10	; 0x80380f <echo_start_ticks>
     27e:	b0 92 10 38 	sts	0x3810, r11	; 0x803810 <echo_start_ticks+0x1>
     282:	8a 18       	sub	r8, r10
     284:	9b 08       	sbc	r9, r11
     286:	80 92 0d 38 	sts	0x380D, r8	; 0x80380d <echo_total_ticks>
     28a:	90 92 0e 38 	sts	0x380E, r9	; 0x80380e <echo_total_ticks+0x1>
     28e:	10 92 0c 38 	sts	0x380C, r1	; 0x80380c <g_phase_ok>
     292:	20 90 51 39 	lds	r2, 0x3951	; 0x803951 <echo_baseline>
     296:	30 90 52 39 	lds	r3, 0x3952	; 0x803952 <echo_baseline+0x1>
     29a:	e1 e1       	ldi	r30, 0x11	; 17
     29c:	f8 e3       	ldi	r31, 0x38	; 56
     29e:	80 e0       	ldi	r24, 0x00	; 0
     2a0:	90 e0       	ldi	r25, 0x00	; 0
     2a2:	7c 01       	movw	r14, r24
     2a4:	97 01       	movw	r18, r14

000002a6 <.L27>:
     2a6:	61 91       	ld	r22, Z+
     2a8:	70 e0       	ldi	r23, 0x00	; 0
     2aa:	ab 01       	movw	r20, r22
     2ac:	42 19       	sub	r20, r2
     2ae:	53 09       	sbc	r21, r3
     2b0:	1a f4       	brpl	.+6      	; 0x2b8 <.L25>
     2b2:	a1 01       	movw	r20, r2
     2b4:	46 1b       	sub	r20, r22
     2b6:	57 0b       	sbc	r21, r23

000002b8 <.L25>:
     2b8:	24 17       	cp	r18, r20
     2ba:	35 07       	cpc	r19, r21
     2bc:	14 f4       	brge	.+4      	; 0x2c2 <.L26>
     2be:	9a 01       	movw	r18, r20
     2c0:	7c 01       	movw	r14, r24

000002c2 <.L26>:
     2c2:	01 96       	adiw	r24, 0x01	; 1
     2c4:	80 34       	cpi	r24, 0x40	; 64
     2c6:	41 e0       	ldi	r20, 0x01	; 1
     2c8:	94 07       	cpc	r25, r20
     2ca:	69 f7       	brne	.-38     	; 0x2a6 <.L27>
     2cc:	e0 92 0a 38 	sts	0x380A, r14	; 0x80380a <echo_peak_idx>
     2d0:	f0 92 0b 38 	sts	0x380B, r15	; 0x80380b <echo_peak_idx+0x1>
     2d4:	20 93 08 38 	sts	0x3808, r18	; 0x803808 <diag_peak>
     2d8:	30 93 09 38 	sts	0x3809, r19	; 0x803809 <diag_peak+0x1>
     2dc:	26 30       	cpi	r18, 0x06	; 6
     2de:	31 05       	cpc	r19, r1
     2e0:	08 f4       	brcc	.+2      	; 0x2e4 <L0^A+0x2>

000002e2 <L0^A>:
     2e2:	2b c2       	rjmp	.+1110   	; 0x73a <.L45>
     2e4:	a8 e2       	ldi	r26, 0x28	; 40
     2e6:	b0 e0       	ldi	r27, 0x00	; 0
     2e8:	0e 94 04 0d 	call	0x1a08	; 0x1a08 <__umulhisi3>
     2ec:	24 e6       	ldi	r18, 0x64	; 100
     2ee:	30 e0       	ldi	r19, 0x00	; 0
     2f0:	40 e0       	ldi	r20, 0x00	; 0
     2f2:	50 e0       	ldi	r21, 0x00	; 0
     2f4:	0e 94 3b 0d 	call	0x1a76	; 0x1a76 <__udivmodsi4>
     2f8:	25 30       	cpi	r18, 0x05	; 5
     2fa:	31 05       	cpc	r19, r1
     2fc:	14 f4       	brge	.+4      	; 0x302 <.L29>
     2fe:	25 e0       	ldi	r18, 0x05	; 5
     300:	30 e0       	ldi	r19, 0x00	; 0

00000302 <.L29>:
     302:	e1 e1       	ldi	r30, 0x11	; 17
     304:	f8 e3       	ldi	r31, 0x38	; 56
     306:	00 e0       	ldi	r16, 0x00	; 0
     308:	10 e0       	ldi	r17, 0x00	; 0
     30a:	c8 01       	movw	r24, r16

0000030c <.L37>:
     30c:	6c 01       	movw	r12, r24
     30e:	80 81       	ld	r24, Z
     310:	90 e0       	ldi	r25, 0x00	; 0
     312:	ac 01       	movw	r20, r24
     314:	42 19       	sub	r20, r2
     316:	53 09       	sbc	r21, r3
     318:	4d 83       	std	Y+5, r20	; 0x05
     31a:	5e 83       	std	Y+6, r21	; 0x06
     31c:	57 ff       	sbrs	r21, 7
     31e:	05 c0       	rjmp	.+10     	; 0x32a <.L30>
     320:	a1 01       	movw	r20, r2
     322:	48 1b       	sub	r20, r24
     324:	59 0b       	sbc	r21, r25
     326:	4d 83       	std	Y+5, r20	; 0x05
     328:	5e 83       	std	Y+6, r21	; 0x06

0000032a <.L30>:
     32a:	8d 81       	ldd	r24, Y+5	; 0x05
     32c:	9e 81       	ldd	r25, Y+6	; 0x06
     32e:	4d 81       	ldd	r20, Y+5	; 0x05
     330:	5e 81       	ldd	r21, Y+6	; 0x06
     332:	42 17       	cp	r20, r18
     334:	53 07       	cpc	r21, r19
     336:	0c f4       	brge	.+2      	; 0x33a <L0^A+0x2>

00000338 <L0^A>:
     338:	f9 c1       	rjmp	.+1010   	; 0x72c <.L31>
     33a:	01 15       	cp	r16, r1
     33c:	11 05       	cpc	r17, r1
     33e:	09 f4       	brne	.+2      	; 0x342 <L0^A+0x2>

00000340 <L0^A>:
     340:	f0 c1       	rjmp	.+992    	; 0x722 <.L44>
     342:	c4 16       	cp	r12, r20
     344:	d5 06       	cpc	r13, r21
     346:	0c f0       	brlt	.+2      	; 0x34a <L0^A+0x2>

00000348 <L0^A>:
     348:	ec c1       	rjmp	.+984    	; 0x722 <.L44>
     34a:	b9 01       	movw	r22, r18
     34c:	6c 19       	sub	r22, r12
     34e:	7d 09       	sbc	r23, r13
     350:	87 2f       	mov	r24, r23
     352:	88 0f       	add	r24, r24
     354:	88 0b       	sbc	r24, r24
     356:	98 2f       	mov	r25, r24
     358:	0e 94 46 0c 	call	0x188c	; 0x188c <__floatsisf>
     35c:	69 83       	std	Y+1, r22	; 0x01
     35e:	7a 83       	std	Y+2, r23	; 0x02
     360:	8b 83       	std	Y+3, r24	; 0x03
     362:	9c 83       	std	Y+4, r25	; 0x04
     364:	6d 81       	ldd	r22, Y+5	; 0x05
     366:	7e 81       	ldd	r23, Y+6	; 0x06
     368:	6c 19       	sub	r22, r12
     36a:	7d 09       	sbc	r23, r13
     36c:	87 2f       	mov	r24, r23
     36e:	88 0f       	add	r24, r24
     370:	88 0b       	sbc	r24, r24
     372:	98 2f       	mov	r25, r24
     374:	0e 94 46 0c 	call	0x188c	; 0x188c <__floatsisf>
     378:	9b 01       	movw	r18, r22
     37a:	ac 01       	movw	r20, r24
     37c:	69 81       	ldd	r22, Y+1	; 0x01
     37e:	7a 81       	ldd	r23, Y+2	; 0x02
     380:	8b 81       	ldd	r24, Y+3	; 0x03
     382:	9c 81       	ldd	r25, Y+4	; 0x04
     384:	0e 94 40 0c 	call	0x1880	; 0x1880 <__divsf3>
     388:	6b 01       	movw	r12, r22
     38a:	8d 83       	std	Y+5, r24	; 0x05
     38c:	99 83       	std	Y+1, r25	; 0x01

0000038e <.L32>:
     38e:	b8 01       	movw	r22, r16
     390:	61 50       	subi	r22, 0x01	; 1
     392:	71 09       	sbc	r23, r1
     394:	87 2f       	mov	r24, r23
     396:	88 0f       	add	r24, r24
     398:	88 0b       	sbc	r24, r24
     39a:	98 2f       	mov	r25, r24
     39c:	0e 94 46 0c 	call	0x188c	; 0x188c <__floatsisf>
     3a0:	96 01       	movw	r18, r12
     3a2:	4d 81       	ldd	r20, Y+5	; 0x05
     3a4:	59 81       	ldd	r21, Y+1	; 0x01
     3a6:	0e 94 d4 0b 	call	0x17a8	; 0x17a8 <__addsf3>
     3aa:	8b 01       	movw	r16, r22
     3ac:	89 87       	std	Y+9, r24	; 0x09
     3ae:	9d 83       	std	Y+5, r25	; 0x05
     3b0:	b4 01       	movw	r22, r8
     3b2:	80 e0       	ldi	r24, 0x00	; 0
     3b4:	90 e0       	ldi	r25, 0x00	; 0
     3b6:	0e 94 44 0c 	call	0x1888	; 0x1888 <__floatunsisf>
     3ba:	69 83       	std	Y+1, r22	; 0x01
     3bc:	7a 83       	std	Y+2, r23	; 0x02
     3be:	8b 83       	std	Y+3, r24	; 0x03
     3c0:	9c 83       	std	Y+4, r25	; 0x04
     3c2:	20 e0       	ldi	r18, 0x00	; 0
     3c4:	30 e0       	ldi	r19, 0x00	; 0
     3c6:	40 ea       	ldi	r20, 0xA0	; 160
     3c8:	53 e4       	ldi	r21, 0x43	; 67
     3ca:	0e 94 40 0c 	call	0x1880	; 0x1880 <__divsf3>
     3ce:	69 8b       	std	Y+17, r22	; 0x11
     3d0:	7a 8b       	std	Y+18, r23	; 0x12
     3d2:	8b 8b       	std	Y+19, r24	; 0x13
     3d4:	9c 8b       	std	Y+20, r25	; 0x14
     3d6:	40 e0       	ldi	r20, 0x00	; 0
     3d8:	50 e0       	ldi	r21, 0x00	; 0
     3da:	9a 01       	movw	r18, r20
     3dc:	b8 01       	movw	r22, r16
     3de:	89 85       	ldd	r24, Y+9	; 0x09
     3e0:	9d 81       	ldd	r25, Y+5	; 0x05
     3e2:	0e 94 a0 0c 	call	0x1940	; 0x1940 <__cmpsf2>
     3e6:	87 ff       	sbrs	r24, 7
     3e8:	04 c0       	rjmp	.+8      	; 0x3f2 <.L34>
     3ea:	00 e0       	ldi	r16, 0x00	; 0
     3ec:	10 e0       	ldi	r17, 0x00	; 0
     3ee:	19 86       	std	Y+9, r1	; 0x09
     3f0:	1d 82       	std	Y+5, r1	; 0x05

000003f2 <.L34>:
     3f2:	29 89       	ldd	r18, Y+17	; 0x11
     3f4:	3a 89       	ldd	r19, Y+18	; 0x12
     3f6:	4b 89       	ldd	r20, Y+19	; 0x13
     3f8:	5c 89       	ldd	r21, Y+20	; 0x14
     3fa:	b8 01       	movw	r22, r16
     3fc:	89 85       	ldd	r24, Y+9	; 0x09
     3fe:	9d 81       	ldd	r25, Y+5	; 0x05
     400:	0e 94 9c 0c 	call	0x1938	; 0x1938 <__mulsf3>
     404:	20 e0       	ldi	r18, 0x00	; 0
     406:	30 e0       	ldi	r19, 0x00	; 0
     408:	40 e0       	ldi	r20, 0x00	; 0
     40a:	5f e3       	ldi	r21, 0x3F	; 63
     40c:	0e 94 d4 0b 	call	0x17a8	; 0x17a8 <__addsf3>
     410:	0e 94 ac 0c 	call	0x1958	; 0x1958 <__fixunssfsi>
     414:	85 01       	movw	r16, r10
     416:	20 e0       	ldi	r18, 0x00	; 0
     418:	30 e0       	ldi	r19, 0x00	; 0
     41a:	dc 01       	movw	r26, r24
     41c:	cb 01       	movw	r24, r22
     41e:	8a 0d       	add	r24, r10
     420:	9b 1d       	adc	r25, r11
     422:	a1 1d       	adc	r26, r1
     424:	b1 1d       	adc	r27, r1
     426:	2c 01       	movw	r4, r24
     428:	3d 01       	movw	r6, r26
     42a:	58 eb       	ldi	r21, 0xB8	; 184
     42c:	45 1a       	sub	r4, r21
     42e:	5b e0       	ldi	r21, 0x0B	; 11
     430:	55 0a       	sbc	r5, r21
     432:	61 08       	sbc	r6, r1
     434:	71 08       	sbc	r7, r1
     436:	a8 a2       	std	Y+32, r10	; 0x20
     438:	19 a3       	std	Y+33, r17	; 0x21
     43a:	1a a2       	std	Y+34, r1	; 0x22
     43c:	1b a2       	std	Y+35, r1	; 0x23
     43e:	e9 e8       	ldi	r30, 0x89	; 137
     440:	4e 16       	cp	r4, r30
     442:	e0 e9       	ldi	r30, 0x90	; 144
     444:	5e 06       	cpc	r5, r30
     446:	61 04       	cpc	r6, r1
     448:	71 04       	cpc	r7, r1
     44a:	08 f0       	brcs	.+2      	; 0x44e <.Lname141>

0000044c <L0^A>:
     44c:	76 c1       	rjmp	.+748    	; 0x73a <.L45>
     44e:	5c 01       	movw	r10, r24
     450:	89 28       	or	r8, r9
     452:	09 f4       	brne	.+2      	; 0x456 <.Lname142+0x1>

00000454 <L0^A>:
     454:	4f c1       	rjmp	.+670    	; 0x6f4 <.L21>
     456:	40 e2       	ldi	r20, 0x20	; 32
     458:	51 e4       	ldi	r21, 0x41	; 65
     45a:	69 81       	ldd	r22, Y+1	; 0x01
     45c:	7a 81       	ldd	r23, Y+2	; 0x02
     45e:	8b 81       	ldd	r24, Y+3	; 0x03
     460:	9c 81       	ldd	r25, Y+4	; 0x04
     462:	0e 94 40 0c 	call	0x1880	; 0x1880 <__divsf3>
     466:	20 e0       	ldi	r18, 0x00	; 0
     468:	30 e0       	ldi	r19, 0x00	; 0
     46a:	40 ea       	ldi	r20, 0xA0	; 160
     46c:	53 e4       	ldi	r21, 0x43	; 67
     46e:	0e 94 40 0c 	call	0x1880	; 0x1880 <__divsf3>
     472:	69 83       	std	Y+1, r22	; 0x01
     474:	7a 83       	std	Y+2, r23	; 0x02
     476:	8b 83       	std	Y+3, r24	; 0x03
     478:	9c 83       	std	Y+4, r25	; 0x04
     47a:	20 e0       	ldi	r18, 0x00	; 0
     47c:	30 e0       	ldi	r19, 0x00	; 0
     47e:	40 e8       	ldi	r20, 0x80	; 128
     480:	5f e3       	ldi	r21, 0x3F	; 63
     482:	0e 94 a0 0c 	call	0x1940	; 0x1940 <__cmpsf2>
     486:	87 fd       	sbrc	r24, 7
     488:	35 c1       	rjmp	.+618    	; 0x6f4 <.L21>
     48a:	2b ed       	ldi	r18, 0xDB	; 219
     48c:	3f e6       	ldi	r19, 0x6F	; 111
     48e:	45 e7       	ldi	r20, 0x75	; 117
     490:	58 e4       	ldi	r21, 0x48	; 72
     492:	69 81       	ldd	r22, Y+1	; 0x01
     494:	7a 81       	ldd	r23, Y+2	; 0x02
     496:	8b 81       	ldd	r24, Y+3	; 0x03
     498:	9c 81       	ldd	r25, Y+4	; 0x04
     49a:	0e 94 9c 0c 	call	0x1938	; 0x1938 <__mulsf3>
     49e:	2d eb       	ldi	r18, 0xBD	; 189
     4a0:	37 e3       	ldi	r19, 0x37	; 55
     4a2:	46 e8       	ldi	r20, 0x86	; 134
     4a4:	55 e3       	ldi	r21, 0x35	; 53
     4a6:	0e 94 9c 0c 	call	0x1938	; 0x1938 <__mulsf3>
     4aa:	69 83       	std	Y+1, r22	; 0x01
     4ac:	7a 83       	std	Y+2, r23	; 0x02
     4ae:	8b 83       	std	Y+3, r24	; 0x03
     4b0:	9c 83       	std	Y+4, r25	; 0x04
     4b2:	28 ea       	ldi	r18, 0xA8	; 168
     4b4:	3c ed       	ldi	r19, 0xDC	; 220
     4b6:	45 ec       	ldi	r20, 0xC5	; 197
     4b8:	50 e4       	ldi	r21, 0x40	; 64
     4ba:	0e 94 ff 0c 	call	0x19fe	; 0x19fe <__gesf2>
     4be:	18 16       	cp	r1, r24
     4c0:	0c f4       	brge	.+2      	; 0x4c4 <L0^A+0x2>

000004c2 <L0^A>:
     4c2:	18 c1       	rjmp	.+560    	; 0x6f4 <.L21>
     4c4:	27 01       	movw	r4, r14
     4c6:	61 2c       	mov	r6, r1
     4c8:	71 2c       	mov	r7, r1
     4ca:	f8 e1       	ldi	r31, 0x18	; 24
     4cc:	4f 1a       	sub	r4, r31
     4ce:	51 08       	sbc	r5, r1
     4d0:	61 08       	sbc	r6, r1
     4d2:	71 08       	sbc	r7, r1
     4d4:	21 e1       	ldi	r18, 0x11	; 17
     4d6:	42 16       	cp	r4, r18
     4d8:	21 e0       	ldi	r18, 0x01	; 1
     4da:	52 06       	cpc	r5, r18
     4dc:	61 04       	cpc	r6, r1
     4de:	71 04       	cpc	r7, r1
     4e0:	0c f4       	brge	.+2      	; 0x4e4 <L0^A+0x2>

000004e2 <L0^A>:
     4e2:	2e c1       	rjmp	.+604    	; 0x740 <.L39>
     4e4:	80 e1       	ldi	r24, 0x10	; 16
     4e6:	48 2e       	mov	r4, r24
     4e8:	81 e0       	ldi	r24, 0x01	; 1
     4ea:	58 2e       	mov	r5, r24
     4ec:	61 2c       	mov	r6, r1
     4ee:	71 2c       	mov	r7, r1

000004f0 <.L40>:
     4f0:	69 81       	ldd	r22, Y+1	; 0x01
     4f2:	7a 81       	ldd	r23, Y+2	; 0x02
     4f4:	8b 81       	ldd	r24, Y+3	; 0x03
     4f6:	9c 81       	ldd	r25, Y+4	; 0x04
     4f8:	0e 94 e7 08 	call	0x11ce	; 0x11ce <cosf>
     4fc:	6d 87       	std	Y+13, r22	; 0x0d
     4fe:	7e 87       	std	Y+14, r23	; 0x0e
     500:	8f 87       	std	Y+15, r24	; 0x0f
     502:	98 8b       	std	Y+16, r25	; 0x10
     504:	69 81       	ldd	r22, Y+1	; 0x01
     506:	7a 81       	ldd	r23, Y+2	; 0x02
     508:	8b 81       	ldd	r24, Y+3	; 0x03
     50a:	9c 81       	ldd	r25, Y+4	; 0x04
     50c:	0e 94 81 0b 	call	0x1702	; 0x1702 <sinf>
     510:	68 8f       	std	Y+24, r22	; 0x18
     512:	79 8f       	std	Y+25, r23	; 0x19
     514:	8a 8f       	std	Y+26, r24	; 0x1a
     516:	9b 8f       	std	Y+27, r25	; 0x1b
     518:	2d 85       	ldd	r18, Y+13	; 0x0d
     51a:	3e 85       	ldd	r19, Y+14	; 0x0e
     51c:	4f 85       	ldd	r20, Y+15	; 0x0f
     51e:	58 89       	ldd	r21, Y+16	; 0x10
     520:	b9 01       	movw	r22, r18
     522:	ca 01       	movw	r24, r20
     524:	0e 94 d4 0b 	call	0x17a8	; 0x17a8 <__addsf3>
     528:	6c 8f       	std	Y+28, r22	; 0x1c
     52a:	7d 8f       	std	Y+29, r23	; 0x1d
     52c:	8e 8f       	std	Y+30, r24	; 0x1e
     52e:	9f 8f       	std	Y+31, r25	; 0x1f
     530:	a2 01       	movw	r20, r4
     532:	4f 5e       	subi	r20, 0xEF	; 239
     534:	57 4c       	sbci	r21, 0xC7	; 199
     536:	4d 8b       	std	Y+21, r20	; 0x15
     538:	5e 8b       	std	Y+22, r21	; 0x16
     53a:	00 e0       	ldi	r16, 0x00	; 0
     53c:	10 e0       	ldi	r17, 0x00	; 0
     53e:	1d a2       	std	Y+37, r1	; 0x25
     540:	1c a2       	std	Y+36, r1	; 0x24
     542:	48 01       	movw	r8, r16
     544:	19 82       	std	Y+1, r1	; 0x01
     546:	1d 82       	std	Y+5, r1	; 0x05
     548:	74 01       	movw	r14, r8

0000054a <.L41>:
     54a:	ed 89       	ldd	r30, Y+21	; 0x15
     54c:	fe 89       	ldd	r31, Y+22	; 0x16
     54e:	61 91       	ld	r22, Z+
     550:	ed 8b       	std	Y+21, r30	; 0x15
     552:	fe 8b       	std	Y+22, r31	; 0x16
     554:	70 e0       	ldi	r23, 0x00	; 0
     556:	62 19       	sub	r22, r2
     558:	73 09       	sbc	r23, r3
     55a:	87 2f       	mov	r24, r23
     55c:	88 0f       	add	r24, r24
     55e:	88 0b       	sbc	r24, r24
     560:	98 2f       	mov	r25, r24
     562:	0e 94 46 0c 	call	0x188c	; 0x188c <__floatsisf>
     566:	69 87       	std	Y+9, r22	; 0x09
     568:	7a 87       	std	Y+10, r23	; 0x0a
     56a:	8b 87       	std	Y+11, r24	; 0x0b
     56c:	9c 87       	std	Y+12, r25	; 0x0c
     56e:	94 01       	movw	r18, r8
     570:	49 81       	ldd	r20, Y+1	; 0x01
     572:	5d 81       	ldd	r21, Y+5	; 0x05
     574:	6c 8d       	ldd	r22, Y+28	; 0x1c
     576:	7d 8d       	ldd	r23, Y+29	; 0x1d
     578:	8e 8d       	ldd	r24, Y+30	; 0x1e
     57a:	9f 8d       	ldd	r25, Y+31	; 0x1f
     57c:	0e 94 9c 0c 	call	0x1938	; 0x1938 <__mulsf3>
     580:	9b 01       	movw	r18, r22
     582:	ac 01       	movw	r20, r24
     584:	69 85       	ldd	r22, Y+9	; 0x09
     586:	7a 85       	ldd	r23, Y+10	; 0x0a
     588:	8b 85       	ldd	r24, Y+11	; 0x0b
     58a:	9c 85       	ldd	r25, Y+12	; 0x0c
     58c:	0e 94 d4 0b 	call	0x17a8	; 0x17a8 <__addsf3>
     590:	98 01       	movw	r18, r16
     592:	4d a1       	ldd	r20, Y+37	; 0x25
     594:	5c a1       	ldd	r21, Y+36	; 0x24
     596:	0e 94 d3 0b 	call	0x17a6	; 0x17a6 <__subsf3>
     59a:	6b 01       	movw	r12, r22
     59c:	89 87       	std	Y+9, r24	; 0x09
     59e:	9f 8b       	std	Y+23, r25	; 0x17
     5a0:	ff ef       	ldi	r31, 0xFF	; 255
     5a2:	ef 1a       	sub	r14, r31
     5a4:	ff 0a       	sbc	r15, r31
     5a6:	84 01       	movw	r16, r8
     5a8:	29 81       	ldd	r18, Y+1	; 0x01
     5aa:	2d a3       	std	Y+37, r18	; 0x25
     5ac:	4d 81       	ldd	r20, Y+5	; 0x05
     5ae:	4c a3       	std	Y+36, r20	; 0x24
     5b0:	50 e3       	ldi	r21, 0x30	; 48
     5b2:	e5 16       	cp	r14, r21
     5b4:	f1 04       	cpc	r15, r1
     5b6:	09 f0       	breq	.+2      	; 0x5ba <L0^A+0x2>

000005b8 <L0^A>:
     5b8:	c9 c0       	rjmp	.+402    	; 0x74c <.L46>
     5ba:	2c 8f       	std	Y+28, r18	; 0x1c
     5bc:	4d 8b       	std	Y+21, r20	; 0x15
     5be:	94 01       	movw	r18, r8
     5c0:	4c 8d       	ldd	r20, Y+28	; 0x1c
     5c2:	5d 89       	ldd	r21, Y+21	; 0x15
     5c4:	6d 85       	ldd	r22, Y+13	; 0x0d
     5c6:	7e 85       	ldd	r23, Y+14	; 0x0e
     5c8:	8f 85       	ldd	r24, Y+15	; 0x0f
     5ca:	98 89       	ldd	r25, Y+16	; 0x10
     5cc:	0e 94 9c 0c 	call	0x1938	; 0x1938 <__mulsf3>
     5d0:	9b 01       	movw	r18, r22
     5d2:	ac 01       	movw	r20, r24
     5d4:	b6 01       	movw	r22, r12
     5d6:	89 85       	ldd	r24, Y+9	; 0x09
     5d8:	9f 89       	ldd	r25, Y+23	; 0x17
     5da:	0e 94 d3 0b 	call	0x17a6	; 0x17a6 <__subsf3>
     5de:	6b 01       	movw	r12, r22
     5e0:	7c 01       	movw	r14, r24
     5e2:	94 01       	movw	r18, r8
     5e4:	4c 8d       	ldd	r20, Y+28	; 0x1c
     5e6:	5d 89       	ldd	r21, Y+21	; 0x15
     5e8:	68 8d       	ldd	r22, Y+24	; 0x18
     5ea:	79 8d       	ldd	r23, Y+25	; 0x19
     5ec:	8a 8d       	ldd	r24, Y+26	; 0x1a
     5ee:	9b 8d       	ldd	r25, Y+27	; 0x1b
     5f0:	0e 94 9c 0c 	call	0x1938	; 0x1938 <__mulsf3>
     5f4:	96 01       	movw	r18, r12
     5f6:	a7 01       	movw	r20, r14
     5f8:	0e 94 88 08 	call	0x1110	; 0x1110 <atan2f>
     5fc:	69 83       	std	Y+1, r22	; 0x01
     5fe:	7a 83       	std	Y+2, r23	; 0x02
     600:	8b 83       	std	Y+3, r24	; 0x03
     602:	9c 83       	std	Y+4, r25	; 0x04
     604:	b2 01       	movw	r22, r4
     606:	c3 01       	movw	r24, r6
     608:	0e 94 46 0c 	call	0x188c	; 0x188c <__floatsisf>
     60c:	29 89       	ldd	r18, Y+17	; 0x11
     60e:	3a 89       	ldd	r19, Y+18	; 0x12
     610:	4b 89       	ldd	r20, Y+19	; 0x13
     612:	5c 89       	ldd	r21, Y+20	; 0x14
     614:	0e 94 9c 0c 	call	0x1938	; 0x1938 <__mulsf3>
     618:	6d 83       	std	Y+5, r22	; 0x05
     61a:	7e 83       	std	Y+6, r23	; 0x06
     61c:	8f 83       	std	Y+7, r24	; 0x07
     61e:	98 87       	std	Y+8, r25	; 0x08
     620:	68 a1       	ldd	r22, Y+32	; 0x20
     622:	79 a1       	ldd	r23, Y+33	; 0x21
     624:	8a a1       	ldd	r24, Y+34	; 0x22
     626:	9b a1       	ldd	r25, Y+35	; 0x23
     628:	0e 94 44 0c 	call	0x1888	; 0x1888 <__floatunsisf>
     62c:	9b 01       	movw	r18, r22
     62e:	ac 01       	movw	r20, r24
     630:	6d 81       	ldd	r22, Y+5	; 0x05
     632:	7e 81       	ldd	r23, Y+6	; 0x06
     634:	8f 81       	ldd	r24, Y+7	; 0x07
     636:	98 85       	ldd	r25, Y+8	; 0x08
     638:	0e 94 d4 0b 	call	0x17a8	; 0x17a8 <__addsf3>
     63c:	20 e0       	ldi	r18, 0x00	; 0
     63e:	30 e0       	ldi	r19, 0x00	; 0
     640:	40 e2       	ldi	r20, 0x20	; 32
     642:	51 e4       	ldi	r21, 0x41	; 65
     644:	0e 94 40 0c 	call	0x1880	; 0x1880 <__divsf3>
     648:	20 e0       	ldi	r18, 0x00	; 0
     64a:	30 e4       	ldi	r19, 0x40	; 64
     64c:	4c e1       	ldi	r20, 0x1C	; 28
     64e:	57 e4       	ldi	r21, 0x47	; 71
     650:	0e 94 9c 0c 	call	0x1938	; 0x1938 <__mulsf3>
     654:	2d eb       	ldi	r18, 0xBD	; 189
     656:	37 e3       	ldi	r19, 0x37	; 55
     658:	46 e8       	ldi	r20, 0x86	; 134
     65a:	55 e3       	ldi	r21, 0x35	; 53
     65c:	0e 94 9c 0c 	call	0x1938	; 0x1938 <__mulsf3>
     660:	6d 83       	std	Y+5, r22	; 0x05
     662:	7e 83       	std	Y+6, r23	; 0x06
     664:	8f 83       	std	Y+7, r24	; 0x07
     666:	98 87       	std	Y+8, r25	; 0x08
     668:	2b ed       	ldi	r18, 0xDB	; 219
     66a:	3f e0       	ldi	r19, 0x0F	; 15
     66c:	49 ec       	ldi	r20, 0xC9	; 201
     66e:	50 e4       	ldi	r21, 0x40	; 64
     670:	69 81       	ldd	r22, Y+1	; 0x01
     672:	7a 81       	ldd	r23, Y+2	; 0x02
     674:	8b 81       	ldd	r24, Y+3	; 0x03
     676:	9c 81       	ldd	r25, Y+4	; 0x04
     678:	0e 94 40 0c 	call	0x1880	; 0x1880 <__divsf3>
     67c:	9b 01       	movw	r18, r22
     67e:	ac 01       	movw	r20, r24
     680:	6d 81       	ldd	r22, Y+5	; 0x05
     682:	7e 81       	ldd	r23, Y+6	; 0x06
     684:	8f 81       	ldd	r24, Y+7	; 0x07
     686:	98 85       	ldd	r25, Y+8	; 0x08
     688:	0e 94 d3 0b 	call	0x17a6	; 0x17a6 <__subsf3>
     68c:	40 e0       	ldi	r20, 0x00	; 0
     68e:	50 e0       	ldi	r21, 0x00	; 0
     690:	9a 01       	movw	r18, r20
     692:	0e 94 d4 0b 	call	0x17a8	; 0x17a8 <__addsf3>
     696:	6b 01       	movw	r12, r22
     698:	7c 01       	movw	r14, r24
     69a:	0e 94 5a 09 	call	0x12b4	; 0x12b4 <floorf>
     69e:	9b 01       	movw	r18, r22
     6a0:	ac 01       	movw	r20, r24
     6a2:	b6 01       	movw	r22, r12
     6a4:	c7 01       	movw	r24, r14
     6a6:	0e 94 d3 0b 	call	0x17a6	; 0x17a6 <__subsf3>
     6aa:	2b ed       	ldi	r18, 0xDB	; 219
     6ac:	3f e0       	ldi	r19, 0x0F	; 15
     6ae:	49 ec       	ldi	r20, 0xC9	; 201
     6b0:	50 e4       	ldi	r21, 0x40	; 64
     6b2:	0e 94 9c 0c 	call	0x1938	; 0x1938 <__mulsf3>
     6b6:	69 83       	std	Y+1, r22	; 0x01
     6b8:	7a 83       	std	Y+2, r23	; 0x02
     6ba:	8b 83       	std	Y+3, r24	; 0x03
     6bc:	9c 83       	std	Y+4, r25	; 0x04
     6be:	0e 94 e7 08 	call	0x11ce	; 0x11ce <cosf>
     6c2:	60 93 04 38 	sts	0x3804, r22	; 0x803804 <g_pcos>
     6c6:	70 93 05 38 	sts	0x3805, r23	; 0x803805 <g_pcos+0x1>
     6ca:	80 93 06 38 	sts	0x3806, r24	; 0x803806 <g_pcos+0x2>
     6ce:	90 93 07 38 	sts	0x3807, r25	; 0x803807 <g_pcos+0x3>
     6d2:	69 81       	ldd	r22, Y+1	; 0x01
     6d4:	7a 81       	ldd	r23, Y+2	; 0x02
     6d6:	8b 81       	ldd	r24, Y+3	; 0x03
     6d8:	9c 81       	ldd	r25, Y+4	; 0x04
     6da:	0e 94 81 0b 	call	0x1702	; 0x1702 <sinf>
     6de:	60 93 00 38 	sts	0x3800, r22	; 0x803800 <g_psin>
     6e2:	70 93 01 38 	sts	0x3801, r23	; 0x803801 <g_psin+0x1>
     6e6:	80 93 02 38 	sts	0x3802, r24	; 0x803802 <g_psin+0x2>
     6ea:	90 93 03 38 	sts	0x3803, r25	; 0x803803 <g_psin+0x3>
     6ee:	81 e0       	ldi	r24, 0x01	; 1
     6f0:	80 93 0c 38 	sts	0x380C, r24	; 0x80380c <g_phase_ok>

000006f4 <.L21>:
     6f4:	c5 01       	movw	r24, r10
     6f6:	a5 96       	adiw	r28, 0x25	; 37
     6f8:	cd bf       	out	0x3d, r28	; 61
     6fa:	de bf       	out	0x3e, r29	; 62
     6fc:	df 91       	pop	r29
     6fe:	cf 91       	pop	r28
     700:	1f 91       	pop	r17
     702:	0f 91       	pop	r16
     704:	ff 90       	pop	r15
     706:	ef 90       	pop	r14
     708:	df 90       	pop	r13
     70a:	cf 90       	pop	r12
     70c:	bf 90       	pop	r11
     70e:	af 90       	pop	r10
     710:	9f 90       	pop	r9
     712:	8f 90       	pop	r8
     714:	7f 90       	pop	r7
     716:	6f 90       	pop	r6
     718:	5f 90       	pop	r5
     71a:	4f 90       	pop	r4
     71c:	3f 90       	pop	r3
     71e:	2f 90       	pop	r2
     720:	08 95       	ret

00000722 <.L44>:
     722:	c1 2c       	mov	r12, r1
     724:	d1 2c       	mov	r13, r1
     726:	1d 82       	std	Y+5, r1	; 0x05
     728:	19 82       	std	Y+1, r1	; 0x01
     72a:	31 ce       	rjmp	.-926    	; 0x38e <.L32>

0000072c <.L31>:
     72c:	31 96       	adiw	r30, 0x01	; 1
     72e:	0f 5f       	subi	r16, 0xFF	; 255
     730:	1f 4f       	sbci	r17, 0xFF	; 255
     732:	e0 16       	cp	r14, r16
     734:	f1 06       	cpc	r15, r17
     736:	08 f0       	brcs	.+2      	; 0x73a <.L45>

00000738 <L0^A>:
     738:	e9 cd       	rjmp	.-1070   	; 0x30c <.L37>

0000073a <.L45>:
     73a:	a1 2c       	mov	r10, r1
     73c:	b1 2c       	mov	r11, r1
     73e:	da cf       	rjmp	.-76     	; 0x6f4 <.L21>

00000740 <.L39>:
     740:	77 fe       	sbrs	r7, 7
     742:	d6 ce       	rjmp	.-596    	; 0x4f0 <.L40>
     744:	61 2c       	mov	r6, r1
     746:	71 2c       	mov	r7, r1
     748:	23 01       	movw	r4, r6
     74a:	d2 ce       	rjmp	.-604    	; 0x4f0 <.L40>

0000074c <.L46>:
     74c:	46 01       	movw	r8, r12
     74e:	59 85       	ldd	r21, Y+9	; 0x09
     750:	59 83       	std	Y+1, r21	; 0x01
     752:	8f 89       	ldd	r24, Y+23	; 0x17
     754:	8d 83       	std	Y+5, r24	; 0x05
     756:	f9 ce       	rjmp	.-526    	; 0x54a <.L41>

00000758 <__vector_7>:
     758:	8f 93       	push	r24
     75a:	81 e0       	ldi	r24, 0x01	; 1
     75c:	80 93 53 01 	sts	0x0153, r24	; 0x800153 <__RODATA_PM_OFFSET__+0x7f8153>
     760:	8f 91       	pop	r24
     762:	18 95       	reti

00000764 <main>:
     764:	cd b7       	in	r28, 0x3d	; 61
     766:	de b7       	in	r29, 0x3e	; 62
     768:	e5 97       	sbiw	r28, 0x35	; 53
     76a:	cd bf       	out	0x3d, r28	; 61
     76c:	de bf       	out	0x3e, r29	; 62
     76e:	88 ed       	ldi	r24, 0xD8	; 216
     770:	21 e0       	ldi	r18, 0x01	; 1
     772:	30 e0       	ldi	r19, 0x00	; 0
     774:	84 bf       	out	0x34, r24	; 52
     776:	20 93 61 00 	sts	0x0061, r18	; 0x800061 <__RODATA_PM_OFFSET__+0x7f8061>
     77a:	88 e0       	ldi	r24, 0x08	; 8
     77c:	80 93 02 04 	sts	0x0402, r24	; 0x800402 <__RODATA_PM_OFFSET__+0x7f8402>
     780:	80 93 13 04 	sts	0x0413, r24	; 0x800413 <__RODATA_PM_OFFSET__+0x7f8413>
     784:	20 e1       	ldi	r18, 0x10	; 16
     786:	20 93 01 04 	sts	0x0401, r18	; 0x800401 <__RODATA_PM_OFFSET__+0x7f8401>
     78a:	20 93 06 04 	sts	0x0406, r18	; 0x800406 <__RODATA_PM_OFFSET__+0x7f8406>
     78e:	40 e2       	ldi	r20, 0x20	; 32
     790:	40 93 02 04 	sts	0x0402, r20	; 0x800402 <__RODATA_PM_OFFSET__+0x7f8402>
     794:	84 e0       	ldi	r24, 0x04	; 4
     796:	80 93 15 04 	sts	0x0415, r24	; 0x800415 <__RODATA_PM_OFFSET__+0x7f8415>
     79a:	30 e4       	ldi	r19, 0x40	; 64
     79c:	30 93 01 04 	sts	0x0401, r19	; 0x800401 <__RODATA_PM_OFFSET__+0x7f8401>
     7a0:	30 93 05 04 	sts	0x0405, r19	; 0x800405 <__RODATA_PM_OFFSET__+0x7f8405>
     7a4:	91 e0       	ldi	r25, 0x01	; 1
     7a6:	90 93 21 04 	sts	0x0421, r25	; 0x800421 <__RODATA_PM_OFFSET__+0x7f8421>
     7aa:	90 93 26 04 	sts	0x0426, r25	; 0x800426 <__RODATA_PM_OFFSET__+0x7f8426>
     7ae:	80 93 21 04 	sts	0x0421, r24	; 0x800421 <__RODATA_PM_OFFSET__+0x7f8421>
     7b2:	80 93 25 04 	sts	0x0425, r24	; 0x800425 <__RODATA_PM_OFFSET__+0x7f8425>
     7b6:	20 93 22 04 	sts	0x0422, r18	; 0x800422 <__RODATA_PM_OFFSET__+0x7f8422>
     7ba:	80 93 34 04 	sts	0x0434, r24	; 0x800434 <__RODATA_PM_OFFSET__+0x7f8434>
     7be:	80 93 10 04 	sts	0x0410, r24	; 0x800410 <__RODATA_PM_OFFSET__+0x7f8410>
     7c2:	80 93 11 04 	sts	0x0411, r24	; 0x800411 <__RODATA_PM_OFFSET__+0x7f8411>
     7c6:	80 93 12 04 	sts	0x0412, r24	; 0x800412 <__RODATA_PM_OFFSET__+0x7f8412>
     7ca:	80 93 17 04 	sts	0x0417, r24	; 0x800417 <__RODATA_PM_OFFSET__+0x7f8417>
     7ce:	80 93 31 04 	sts	0x0431, r24	; 0x800431 <__RODATA_PM_OFFSET__+0x7f8431>
     7d2:	80 93 33 04 	sts	0x0433, r24	; 0x800433 <__RODATA_PM_OFFSET__+0x7f8433>
     7d6:	80 93 35 04 	sts	0x0435, r24	; 0x800435 <__RODATA_PM_OFFSET__+0x7f8435>
     7da:	80 93 50 04 	sts	0x0450, r24	; 0x800450 <__RODATA_PM_OFFSET__+0x7f8450>
     7de:	80 93 51 04 	sts	0x0451, r24	; 0x800451 <__RODATA_PM_OFFSET__+0x7f8451>
     7e2:	80 93 52 04 	sts	0x0452, r24	; 0x800452 <__RODATA_PM_OFFSET__+0x7f8452>
     7e6:	80 93 53 04 	sts	0x0453, r24	; 0x800453 <__RODATA_PM_OFFSET__+0x7f8453>
     7ea:	6b e5       	ldi	r22, 0x5B	; 91
     7ec:	71 e0       	ldi	r23, 0x01	; 1
     7ee:	60 93 08 08 	sts	0x0808, r22	; 0x800808 <__RODATA_PM_OFFSET__+0x7f8808>
     7f2:	70 93 09 08 	sts	0x0809, r23	; 0x800809 <__RODATA_PM_OFFSET__+0x7f8809>
     7f6:	23 e0       	ldi	r18, 0x03	; 3
     7f8:	20 93 07 08 	sts	0x0807, r18	; 0x800807 <__RODATA_PM_OFFSET__+0x7f8807>
     7fc:	30 93 06 08 	sts	0x0806, r19	; 0x800806 <__RODATA_PM_OFFSET__+0x7f8806>
     800:	82 e5       	ldi	r24, 0x52	; 82
     802:	80 93 02 06 	sts	0x0602, r24	; 0x800602 <__RODATA_PM_OFFSET__+0x7f8602>
     806:	40 93 03 06 	sts	0x0603, r20	; 0x800603 <__RODATA_PM_OFFSET__+0x7f8603>
     80a:	10 92 05 06 	sts	0x0605, r1	; 0x800605 <__RODATA_PM_OFFSET__+0x7f8605>
     80e:	10 92 00 06 	sts	0x0600, r1	; 0x800600 <__RODATA_PM_OFFSET__+0x7f8600>
     812:	80 91 a2 00 	lds	r24, 0x00A2	; 0x8000a2 <__RODATA_PM_OFFSET__+0x7f80a2>
     816:	88 7f       	andi	r24, 0xF8	; 248
     818:	82 60       	ori	r24, 0x02	; 2
     81a:	80 93 a2 00 	sts	0x00A2, r24	; 0x8000a2 <__RODATA_PM_OFFSET__+0x7f80a2>
     81e:	80 91 a1 00 	lds	r24, 0x00A1	; 0x8000a1 <__RODATA_PM_OFFSET__+0x7f80a1>
     822:	88 60       	ori	r24, 0x08	; 8
     824:	80 93 a1 00 	sts	0x00A1, r24	; 0x8000a1 <__RODATA_PM_OFFSET__+0x7f80a1>
     828:	8f ef       	ldi	r24, 0xFF	; 255
     82a:	80 93 a9 06 	sts	0x06A9, r24	; 0x8006a9 <__RODATA_PM_OFFSET__+0x7f86a9>
     82e:	90 93 a8 06 	sts	0x06A8, r25	; 0x8006a8 <__RODATA_PM_OFFSET__+0x7f86a8>
     832:	8b e1       	ldi	r24, 0x1B	; 27
     834:	80 93 8a 06 	sts	0x068A, r24	; 0x80068a <__RODATA_PM_OFFSET__+0x7f868a>
     838:	20 93 88 06 	sts	0x0688, r18	; 0x800688 <__RODATA_PM_OFFSET__+0x7f8688>
     83c:	83 e1       	ldi	r24, 0x13	; 19
     83e:	80 93 82 01 	sts	0x0182, r24	; 0x800182 <__RODATA_PM_OFFSET__+0x7f8182>
     842:	20 93 92 01 	sts	0x0192, r18	; 0x800192 <__RODATA_PM_OFFSET__+0x7f8192>
     846:	82 e0       	ldi	r24, 0x02	; 2
     848:	80 93 41 0a 	sts	0x0A41, r24	; 0x800a41 <__RODATA_PM_OFFSET__+0x7f8a41>
     84c:	90 93 44 0a 	sts	0x0A44, r25	; 0x800a44 <__RODATA_PM_OFFSET__+0x7f8a44>
     850:	10 92 45 0a 	sts	0x0A45, r1	; 0x800a45 <__RODATA_PM_OFFSET__+0x7f8a45>
     854:	10 92 4a 0a 	sts	0x0A4A, r1	; 0x800a4a <__RODATA_PM_OFFSET__+0x7f8a4a>
     858:	10 92 4b 0a 	sts	0x0A4B, r1	; 0x800a4b <__RODATA_PM_OFFSET__+0x7f8a4b>
     85c:	90 93 46 0a 	sts	0x0A46, r25	; 0x800a46 <__RODATA_PM_OFFSET__+0x7f8a46>
     860:	90 93 40 0a 	sts	0x0A40, r25	; 0x800a40 <__RODATA_PM_OFFSET__+0x7f8a40>

00000864 <.L61>:
     864:	80 91 41 01 	lds	r24, 0x0141	; 0x800141 <__RODATA_PM_OFFSET__+0x7f8141>
     868:	80 fd       	sbrc	r24, 0
     86a:	fc cf       	rjmp	.-8      	; 0x864 <.L61>
     86c:	10 92 47 01 	sts	0x0147, r1	; 0x800147 <__RODATA_PM_OFFSET__+0x7f8147>

00000870 <.L62>:
     870:	80 91 51 01 	lds	r24, 0x0151	; 0x800151 <__RODATA_PM_OFFSET__+0x7f8151>
     874:	80 fd       	sbrc	r24, 0
     876:	fc cf       	rjmp	.-8      	; 0x870 <.L62>
     878:	81 e0       	ldi	r24, 0x01	; 1
     87a:	80 93 52 01 	sts	0x0152, r24	; 0x800152 <__RODATA_PM_OFFSET__+0x7f8152>
     87e:	89 e5       	ldi	r24, 0x59	; 89
     880:	80 93 50 01 	sts	0x0150, r24	; 0x800150 <__RODATA_PM_OFFSET__+0x7f8150>
     884:	83 e0       	ldi	r24, 0x03	; 3
     886:	90 e1       	ldi	r25, 0x10	; 16

00000888 <.L63>:
     888:	90 93 05 04 	sts	0x0405, r25	; 0x800405 <__RODATA_PM_OFFSET__+0x7f8405>
     88c:	2f ed       	ldi	r18, 0xDF	; 223
     88e:	33 e9       	ldi	r19, 0x93	; 147
     890:	44 e0       	ldi	r20, 0x04	; 4

00000892 <.L1^B4>:
     892:	21 50       	subi	r18, 0x01	; 1
     894:	30 40       	sbci	r19, 0x00	; 0
     896:	40 40       	sbci	r20, 0x00	; 0
     898:	e1 f7       	brne	.-8      	; 0x892 <.L1^B4>
     89a:	00 c0       	rjmp	.+0      	; 0x89c <L0^A>

0000089c <L0^A>:
     89c:	00 00       	nop
     89e:	90 93 06 04 	sts	0x0406, r25	; 0x800406 <__RODATA_PM_OFFSET__+0x7f8406>
     8a2:	af ed       	ldi	r26, 0xDF	; 223
     8a4:	b3 e9       	ldi	r27, 0x93	; 147
     8a6:	e4 e0       	ldi	r30, 0x04	; 4

000008a8 <.L1^B5>:
     8a8:	a1 50       	subi	r26, 0x01	; 1
     8aa:	b0 40       	sbci	r27, 0x00	; 0
     8ac:	e0 40       	sbci	r30, 0x00	; 0
     8ae:	e1 f7       	brne	.-8      	; 0x8a8 <.L1^B5>
     8b0:	00 c0       	rjmp	.+0      	; 0x8b2 <L0^A>

000008b2 <L0^A>:
     8b2:	00 00       	nop
     8b4:	81 50       	subi	r24, 0x01	; 1
     8b6:	41 f7       	brne	.-48     	; 0x888 <.L63>
     8b8:	10 91 40 00 	lds	r17, 0x0040	; 0x800040 <__RODATA_PM_OFFSET__+0x7f8040>
     8bc:	10 93 40 00 	sts	0x0040, r17	; 0x800040 <__RODATA_PM_OFFSET__+0x7f8040>
     8c0:	8c e8       	ldi	r24, 0x8C	; 140
     8c2:	9e e9       	ldi	r25, 0x9E	; 158
     8c4:	0e 94 59 00 	call	0xb2	; 0xb2 <usart_print>
     8c8:	e1 2f       	mov	r30, r17
     8ca:	e2 95       	swap	r30
     8cc:	ef 70       	andi	r30, 0x0F	; 15
     8ce:	f0 e0       	ldi	r31, 0x00	; 0
     8d0:	ec 50       	subi	r30, 0x0C	; 12
     8d2:	f1 46       	sbci	r31, 0x61	; 97
     8d4:	80 81       	ld	r24, Z
     8d6:	0e 94 52 00 	call	0xa4	; 0xa4 <usart_putc>
     8da:	1f 70       	andi	r17, 0x0F	; 15
     8dc:	e1 2f       	mov	r30, r17
     8de:	f0 e0       	ldi	r31, 0x00	; 0
     8e0:	ec 50       	subi	r30, 0x0C	; 12
     8e2:	f1 46       	sbci	r31, 0x61	; 97
     8e4:	80 81       	ld	r24, Z
     8e6:	0e 94 52 00 	call	0xa4	; 0xa4 <usart_putc>
     8ea:	87 eb       	ldi	r24, 0xB7	; 183
     8ec:	9e e9       	ldi	r25, 0x9E	; 158
     8ee:	0e 94 59 00 	call	0xb2	; 0xb2 <usart_print>

000008f2 <.L64>:
     8f2:	80 91 04 08 	lds	r24, 0x0804	; 0x800804 <__RODATA_PM_OFFSET__+0x7f8804>
     8f6:	85 ff       	sbrs	r24, 5
     8f8:	fc cf       	rjmp	.-8      	; 0x8f2 <.L64>
     8fa:	86 e7       	ldi	r24, 0x76	; 118
     8fc:	91 e0       	ldi	r25, 0x01	; 1

000008fe <.L1^B6>:
     8fe:	01 97       	sbiw	r24, 0x01	; 1
     900:	f1 f7       	brne	.-4      	; 0x8fe <.L1^B6>
     902:	00 c0       	rjmp	.+0      	; 0x904 <L0^A>

00000904 <L0^A>:
     904:	00 00       	nop
     906:	21 2c       	mov	r2, r1
     908:	31 2c       	mov	r3, r1

0000090a <.L65>:
     90a:	80 91 50 00 	lds	r24, 0x0050	; 0x800050 <__RODATA_PM_OFFSET__+0x7f8050>
     90e:	89 7f       	andi	r24, 0xF9	; 249
     910:	82 60       	ori	r24, 0x02	; 2
     912:	80 93 50 00 	sts	0x0050, r24	; 0x800050 <__RODATA_PM_OFFSET__+0x7f8050>
     916:	80 91 50 00 	lds	r24, 0x0050	; 0x800050 <__RODATA_PM_OFFSET__+0x7f8050>
     91a:	81 60       	ori	r24, 0x01	; 1
     91c:	80 93 50 00 	sts	0x0050, r24	; 0x800050 <__RODATA_PM_OFFSET__+0x7f8050>
     920:	78 94       	sei
     922:	88 95       	sleep
     924:	80 91 50 00 	lds	r24, 0x0050	; 0x800050 <__RODATA_PM_OFFSET__+0x7f8050>
     928:	8e 7f       	andi	r24, 0xFE	; 254
     92a:	80 93 50 00 	sts	0x0050, r24	; 0x800050 <__RODATA_PM_OFFSET__+0x7f8050>
     92e:	80 91 08 04 	lds	r24, 0x0408	; 0x800408 <__RODATA_PM_OFFSET__+0x7f8408>
     932:	83 fd       	sbrc	r24, 3
     934:	ea cf       	rjmp	.-44     	; 0x90a <.L65>
     936:	af e4       	ldi	r26, 0x4F	; 79
     938:	b3 ec       	ldi	r27, 0xC3	; 195

0000093a <.L1^B7>:
     93a:	11 97       	sbiw	r26, 0x01	; 1
     93c:	f1 f7       	brne	.-4      	; 0x93a <.L1^B7>
     93e:	00 c0       	rjmp	.+0      	; 0x940 <L0^A>

00000940 <L0^A>:
     940:	00 00       	nop
     942:	80 91 08 04 	lds	r24, 0x0408	; 0x800408 <__RODATA_PM_OFFSET__+0x7f8408>
     946:	83 fd       	sbrc	r24, 3
     948:	e0 cf       	rjmp	.-64     	; 0x90a <.L65>
     94a:	bf ef       	ldi	r27, 0xFF	; 255
     94c:	2b 1a       	sub	r2, r27
     94e:	3b 0a       	sbc	r3, r27
     950:	80 e4       	ldi	r24, 0x40	; 64
     952:	80 93 06 04 	sts	0x0406, r24	; 0x800406 <__RODATA_PM_OFFSET__+0x7f8406>
     956:	80 91 00 06 	lds	r24, 0x0600	; 0x800600 <__RODATA_PM_OFFSET__+0x7f8600>
     95a:	81 60       	ori	r24, 0x01	; 1
     95c:	80 93 00 06 	sts	0x0600, r24	; 0x800600 <__RODATA_PM_OFFSET__+0x7f8600>
     960:	e3 ed       	ldi	r30, 0xD3	; 211
     962:	f0 e3       	ldi	r31, 0x30	; 48

00000964 <.L1^B8>:
     964:	31 97       	sbiw	r30, 0x01	; 1
     966:	f1 f7       	brne	.-4      	; 0x964 <.L1^B8>
     968:	00 c0       	rjmp	.+0      	; 0x96a <L0^A>

0000096a <L0^A>:
     96a:	00 00       	nop
     96c:	85 e0       	ldi	r24, 0x05	; 5
     96e:	0e 94 c4 00 	call	0x188	; 0x188 <adc_read>
     972:	80 e1       	ldi	r24, 0x10	; 16
     974:	80 93 05 04 	sts	0x0405, r24	; 0x800405 <__RODATA_PM_OFFSET__+0x7f8405>
     978:	82 e5       	ldi	r24, 0x52	; 82
     97a:	80 93 02 06 	sts	0x0602, r24	; 0x800602 <__RODATA_PM_OFFSET__+0x7f8602>
     97e:	80 e2       	ldi	r24, 0x20	; 32
     980:	80 93 03 06 	sts	0x0603, r24	; 0x800603 <__RODATA_PM_OFFSET__+0x7f8603>
     984:	80 91 00 06 	lds	r24, 0x0600	; 0x800600 <__RODATA_PM_OFFSET__+0x7f8600>
     988:	8b 7f       	andi	r24, 0xFB	; 251
     98a:	80 93 00 06 	sts	0x0600, r24	; 0x800600 <__RODATA_PM_OFFSET__+0x7f8600>
     98e:	b8 e0       	ldi	r27, 0x08	; 8
     990:	9b 2e       	mov	r9, r27
     992:	61 2c       	mov	r6, r1
     994:	71 2c       	mov	r7, r1
     996:	23 01       	movw	r4, r6

00000998 <.L67>:
     998:	85 e0       	ldi	r24, 0x05	; 5
     99a:	0e 94 c4 00 	call	0x188	; 0x188 <adc_read>
     99e:	48 0e       	add	r4, r24
     9a0:	59 1e       	adc	r5, r25
     9a2:	61 1c       	adc	r6, r1
     9a4:	71 1c       	adc	r7, r1
     9a6:	9a 94       	dec	r9
     9a8:	b9 f7       	brne	.-18     	; 0x998 <.L67>
     9aa:	a3 e0       	ldi	r26, 0x03	; 3

000009ac <.L1^B9>:
     9ac:	76 94       	lsr	r7
     9ae:	67 94       	ror	r6
     9b0:	57 94       	ror	r5
     9b2:	47 94       	ror	r4
     9b4:	aa 95       	dec	r26
     9b6:	d1 f7       	brne	.-12     	; 0x9ac <.L1^B9>
     9b8:	c2 01       	movw	r24, r4
     9ba:	89 2b       	or	r24, r25
     9bc:	09 f4       	brne	.+2      	; 0x9c0 <.Lname330+0x1>

000009be <L0^A>:
     9be:	5c c1       	rjmp	.+696    	; 0xc78 <.L111>
     9c0:	ff ef       	ldi	r31, 0xFF	; 255
     9c2:	4f 16       	cp	r4, r31
     9c4:	f3 e0       	ldi	r31, 0x03	; 3
     9c6:	5f 06       	cpc	r5, r31
     9c8:	08 f0       	brcs	.+2      	; 0x9cc <L0^A+0x2>

000009ca <L0^A>:
     9ca:	5b c1       	rjmp	.+694    	; 0xc82 <.L112>
     9cc:	6f ef       	ldi	r22, 0xFF	; 255
     9ce:	73 e0       	ldi	r23, 0x03	; 3
     9d0:	64 19       	sub	r22, r4
     9d2:	75 09       	sbc	r23, r5
     9d4:	80 e0       	ldi	r24, 0x00	; 0
     9d6:	90 e0       	ldi	r25, 0x00	; 0
     9d8:	0e 94 44 0c 	call	0x1888	; 0x1888 <__floatunsisf>
     9dc:	20 e0       	ldi	r18, 0x00	; 0
     9de:	30 e4       	ldi	r19, 0x40	; 64
     9e0:	4c e1       	ldi	r20, 0x1C	; 28
     9e2:	56 e4       	ldi	r21, 0x46	; 70
     9e4:	0e 94 9c 0c 	call	0x1938	; 0x1938 <__mulsf3>
     9e8:	6b 01       	movw	r12, r22
     9ea:	7c 01       	movw	r14, r24
     9ec:	b2 01       	movw	r22, r4
     9ee:	80 e0       	ldi	r24, 0x00	; 0
     9f0:	90 e0       	ldi	r25, 0x00	; 0
     9f2:	0e 94 44 0c 	call	0x1888	; 0x1888 <__floatunsisf>
     9f6:	9b 01       	movw	r18, r22
     9f8:	ac 01       	movw	r20, r24
     9fa:	b6 01       	movw	r22, r12
     9fc:	c7 01       	movw	r24, r14
     9fe:	0e 94 40 0c 	call	0x1880	; 0x1880 <__divsf3>
     a02:	20 e0       	ldi	r18, 0x00	; 0
     a04:	30 e4       	ldi	r19, 0x40	; 64
     a06:	4c e1       	ldi	r20, 0x1C	; 28
     a08:	56 e4       	ldi	r21, 0x46	; 70
     a0a:	0e 94 40 0c 	call	0x1880	; 0x1880 <__divsf3>
     a0e:	0e 94 79 0a 	call	0x14f2	; 0x14f2 <logf>
     a12:	20 e0       	ldi	r18, 0x00	; 0
     a14:	30 ee       	ldi	r19, 0xE0	; 224
     a16:	46 e7       	ldi	r20, 0x76	; 118
     a18:	55 e4       	ldi	r21, 0x45	; 69
     a1a:	0e 94 40 0c 	call	0x1880	; 0x1880 <__divsf3>
     a1e:	2f e0       	ldi	r18, 0x0F	; 15
     a20:	3f ec       	ldi	r19, 0xCF	; 207
     a22:	4b e5       	ldi	r20, 0x5B	; 91
     a24:	5b e3       	ldi	r21, 0x3B	; 59
     a26:	0e 94 d4 0b 	call	0x17a8	; 0x17a8 <__addsf3>
     a2a:	9b 01       	movw	r18, r22
     a2c:	ac 01       	movw	r20, r24
     a2e:	60 e0       	ldi	r22, 0x00	; 0
     a30:	70 e0       	ldi	r23, 0x00	; 0
     a32:	80 e8       	ldi	r24, 0x80	; 128
     a34:	9f e3       	ldi	r25, 0x3F	; 63
     a36:	0e 94 40 0c 	call	0x1880	; 0x1880 <__divsf3>
     a3a:	23 e3       	ldi	r18, 0x33	; 51
     a3c:	33 e9       	ldi	r19, 0x93	; 147
     a3e:	48 e8       	ldi	r20, 0x88	; 136
     a40:	53 e4       	ldi	r21, 0x43	; 67
     a42:	0e 94 d3 0b 	call	0x17a6	; 0x17a6 <__subsf3>
     a46:	6b 01       	movw	r12, r22
     a48:	7c 01       	movw	r14, r24
     a4a:	20 e0       	ldi	r18, 0x00	; 0
     a4c:	30 e0       	ldi	r19, 0x00	; 0
     a4e:	40 e2       	ldi	r20, 0x20	; 32
     a50:	51 e4       	ldi	r21, 0x41	; 65
     a52:	0e 94 9c 0c 	call	0x1938	; 0x1938 <__mulsf3>
     a56:	6d a3       	std	Y+37, r22	; 0x25
     a58:	7e a3       	std	Y+38, r23	; 0x26
     a5a:	8f a3       	std	Y+39, r24	; 0x27
     a5c:	98 a7       	std	Y+40, r25	; 0x28
     a5e:	40 e0       	ldi	r20, 0x00	; 0
     a60:	50 e0       	ldi	r21, 0x00	; 0
     a62:	9a 01       	movw	r18, r20
     a64:	b6 01       	movw	r22, r12
     a66:	c7 01       	movw	r24, r14
     a68:	0e 94 ff 0c 	call	0x19fe	; 0x19fe <__gesf2>
     a6c:	40 e0       	ldi	r20, 0x00	; 0
     a6e:	30 e0       	ldi	r19, 0x00	; 0
     a70:	2f e3       	ldi	r18, 0x3F	; 63
     a72:	87 fd       	sbrc	r24, 7
     a74:	2f eb       	ldi	r18, 0xBF	; 191
     a76:	82 2f       	mov	r24, r18
     a78:	20 e0       	ldi	r18, 0x00	; 0
     a7a:	58 2f       	mov	r21, r24
     a7c:	6d a1       	ldd	r22, Y+37	; 0x25
     a7e:	7e a1       	ldd	r23, Y+38	; 0x26
     a80:	8f a1       	ldd	r24, Y+39	; 0x27
     a82:	98 a5       	ldd	r25, Y+40	; 0x28
     a84:	0e 94 d4 0b 	call	0x17a8	; 0x17a8 <__addsf3>
     a88:	0e 94 a5 0c 	call	0x194a	; 0x194a <__fixsfsi>
     a8c:	69 35       	cpi	r22, 0x59	; 89
     a8e:	22 e0       	ldi	r18, 0x02	; 2
     a90:	72 07       	cpc	r23, r18
     a92:	81 05       	cpc	r24, r1
     a94:	91 05       	cpc	r25, r1
     a96:	0c f4       	brge	.+2      	; 0xa9a <L0^A+0x2>

00000a98 <L0^A>:
     a98:	e5 c0       	rjmp	.+458    	; 0xc64 <.L71>
     a9a:	68 e5       	ldi	r22, 0x58	; 88
     a9c:	72 e0       	ldi	r23, 0x02	; 2

00000a9e <.L72>:
     a9e:	69 a7       	std	Y+41, r22	; 0x29
     aa0:	7a a7       	std	Y+42, r23	; 0x2a

00000aa2 <.L68>:
     aa2:	2e e5       	ldi	r18, 0x5E	; 94
     aa4:	32 e0       	ldi	r19, 0x02	; 2
     aa6:	a9 a5       	ldd	r26, Y+41	; 0x29
     aa8:	ba a5       	ldd	r27, Y+42	; 0x2a
     aaa:	0e 94 7c 0d 	call	0x1af8	; 0x1af8 <__usmulhisi3>
     aae:	2a e0       	ldi	r18, 0x0A	; 10
     ab0:	30 e0       	ldi	r19, 0x00	; 0
     ab2:	40 e0       	ldi	r20, 0x00	; 0
     ab4:	50 e0       	ldi	r21, 0x00	; 0
     ab6:	0e 94 5d 0d 	call	0x1aba	; 0x1aba <__divmodsi4>
     aba:	c9 01       	movw	r24, r18
     abc:	da 01       	movw	r26, r20
     abe:	8c 5d       	subi	r24, 0xDC	; 220
     ac0:	91 4f       	sbci	r25, 0xF1	; 241
     ac2:	aa 4f       	sbci	r26, 0xFA	; 250
     ac4:	bf 4f       	sbci	r27, 0xFF	; 255
     ac6:	8d a3       	std	Y+37, r24	; 0x25
     ac8:	9e a3       	std	Y+38, r25	; 0x26
     aca:	af a3       	std	Y+39, r26	; 0x27
     acc:	b8 a7       	std	Y+40, r27	; 0x28
     ace:	8a e0       	ldi	r24, 0x0A	; 10
     ad0:	0e 94 d4 00 	call	0x1a8	; 0x1a8 <measure_once_ticks>
     ad4:	00 97       	sbiw	r24, 0x00	; 0
     ad6:	09 f4       	brne	.+2      	; 0xada <L0^A+0x2>

00000ad8 <L0^A>:
     ad8:	d9 c0       	rjmp	.+434    	; 0xc8c <.L115>
     ada:	7c 01       	movw	r14, r24
     adc:	00 e0       	ldi	r16, 0x00	; 0
     ade:	10 e0       	ldi	r17, 0x00	; 0
     ae0:	6d a1       	ldd	r22, Y+37	; 0x25
     ae2:	7e a1       	ldd	r23, Y+38	; 0x26
     ae4:	8f a1       	ldd	r24, Y+39	; 0x27
     ae6:	98 a5       	ldd	r25, Y+40	; 0x28
     ae8:	97 01       	movw	r18, r14
     aea:	a8 01       	movw	r20, r16
     aec:	0e 94 e6 0d 	call	0x1bcc	; 0x1bcc <__mulsidi3>
     af0:	a1 2c       	mov	r10, r1
     af2:	ed e2       	ldi	r30, 0x2D	; 45
     af4:	be 2e       	mov	r11, r30
     af6:	f1 e3       	ldi	r31, 0x31	; 49
     af8:	cf 2e       	mov	r12, r31
     afa:	f1 e0       	ldi	r31, 0x01	; 1
     afc:	df 2e       	mov	r13, r31
     afe:	78 01       	movw	r14, r16
     b00:	0e 94 22 0e 	call	0x1c44	; 0x1c44 <__divdi3>
     b04:	d9 01       	movw	r26, r18
     b06:	2d ed       	ldi	r18, 0xDD	; 221
     b08:	33 e0       	ldi	r19, 0x03	; 3
     b0a:	0e 94 7c 0d 	call	0x1af8	; 0x1af8 <__usmulhisi3>
     b0e:	a7 01       	movw	r20, r14
     b10:	28 ee       	ldi	r18, 0xE8	; 232
     b12:	0e 94 5d 0d 	call	0x1aba	; 0x1aba <__divmodsi4>
     b16:	c9 01       	movw	r24, r18
     b18:	da 01       	movw	r26, r20
     b1a:	88 54       	subi	r24, 0x48	; 72
     b1c:	91 09       	sbc	r25, r1
     b1e:	a1 09       	sbc	r26, r1
     b20:	b1 09       	sbc	r27, r1
     b22:	22 f0       	brmi	.+8      	; 0xb2c <.L149>
     b24:	89 31       	cpi	r24, 0x19	; 25
     b26:	91 40       	sbci	r25, 0x01	; 1
     b28:	08 f0       	brcs	.+2      	; 0xb2c <.L149>

00000b2a <L0^A>:
     b2a:	b0 c0       	rjmp	.+352    	; 0xc8c <.L115>

00000b2c <.L149>:
     b2c:	1a e0       	ldi	r17, 0x0A	; 10

00000b2e <.L73>:
     b2e:	81 2c       	mov	r8, r1
     b30:	f9 e0       	ldi	r31, 0x09	; 9
     b32:	fb ab       	std	Y+51, r31	; 0x33
     b34:	1b a6       	std	Y+43, r1	; 0x2b
     b36:	1c a6       	std	Y+44, r1	; 0x2c
     b38:	1d a6       	std	Y+45, r1	; 0x2d
     b3a:	1e a6       	std	Y+46, r1	; 0x2e
     b3c:	1f a6       	std	Y+47, r1	; 0x2f
     b3e:	18 aa       	std	Y+48, r1	; 0x30
     b40:	19 aa       	std	Y+49, r1	; 0x31
     b42:	1a aa       	std	Y+50, r1	; 0x32

00000b44 <.L76>:
     b44:	81 2f       	mov	r24, r17
     b46:	0e 94 d4 00 	call	0x1a8	; 0x1a8 <measure_once_ticks>
     b4a:	00 97       	sbiw	r24, 0x00	; 0
     b4c:	91 f1       	breq	.+100    	; 0xbb2 <.L75>
     b4e:	fe 01       	movw	r30, r28
     b50:	31 96       	adiw	r30, 0x01	; 1
     b52:	e9 0d       	add	r30, r9
     b54:	f1 1d       	adc	r31, r1
     b56:	e9 0d       	add	r30, r9
     b58:	f1 1d       	adc	r31, r1
     b5a:	82 8b       	std	Z+18, r24	; 0x12
     b5c:	93 8b       	std	Z+19, r25	; 0x13
     b5e:	80 91 0c 38 	lds	r24, 0x380C	; 0x80380c <g_phase_ok>
     b62:	81 15       	cp	r24, r1
     b64:	29 f1       	breq	.+74     	; 0xbb0 <.L116>
     b66:	20 91 04 38 	lds	r18, 0x3804	; 0x803804 <g_pcos>
     b6a:	30 91 05 38 	lds	r19, 0x3805	; 0x803805 <g_pcos+0x1>
     b6e:	40 91 06 38 	lds	r20, 0x3806	; 0x803806 <g_pcos+0x2>
     b72:	50 91 07 38 	lds	r21, 0x3807	; 0x803807 <g_pcos+0x3>
     b76:	6f a5       	ldd	r22, Y+47	; 0x2f
     b78:	78 a9       	ldd	r23, Y+48	; 0x30
     b7a:	89 a9       	ldd	r24, Y+49	; 0x31
     b7c:	9a a9       	ldd	r25, Y+50	; 0x32
     b7e:	0e 94 d4 0b 	call	0x17a8	; 0x17a8 <__addsf3>
     b82:	6f a7       	std	Y+47, r22	; 0x2f
     b84:	78 ab       	std	Y+48, r23	; 0x30
     b86:	89 ab       	std	Y+49, r24	; 0x31
     b88:	9a ab       	std	Y+50, r25	; 0x32
     b8a:	20 91 00 38 	lds	r18, 0x3800	; 0x803800 <g_psin>
     b8e:	30 91 01 38 	lds	r19, 0x3801	; 0x803801 <g_psin+0x1>
     b92:	40 91 02 38 	lds	r20, 0x3802	; 0x803802 <g_psin+0x2>
     b96:	50 91 03 38 	lds	r21, 0x3803	; 0x803803 <g_psin+0x3>
     b9a:	6b a5       	ldd	r22, Y+43	; 0x2b
     b9c:	7c a5       	ldd	r23, Y+44	; 0x2c
     b9e:	8d a5       	ldd	r24, Y+45	; 0x2d
     ba0:	9e a5       	ldd	r25, Y+46	; 0x2e
     ba2:	0e 94 d4 0b 	call	0x17a8	; 0x17a8 <__addsf3>
     ba6:	6b a7       	std	Y+43, r22	; 0x2b
     ba8:	7c a7       	std	Y+44, r23	; 0x2c
     baa:	8d a7       	std	Y+45, r24	; 0x2d
     bac:	9e a7       	std	Y+46, r25	; 0x2e
     bae:	83 94       	inc	r8

00000bb0 <.L116>:
     bb0:	93 94       	inc	r9

00000bb2 <.L75>:
     bb2:	8b e7       	ldi	r24, 0x7B	; 123
     bb4:	92 e9       	ldi	r25, 0x92	; 146

00000bb6 <.L1^B10>:
     bb6:	01 97       	sbiw	r24, 0x01	; 1
     bb8:	f1 f7       	brne	.-4      	; 0xbb6 <.L1^B10>
     bba:	00 c0       	rjmp	.+0      	; 0xbbc <L0^A>

00000bbc <L0^A>:
     bbc:	00 00       	nop
     bbe:	9b a9       	ldd	r25, Y+51	; 0x33
     bc0:	91 50       	subi	r25, 0x01	; 1
     bc2:	9b ab       	std	Y+51, r25	; 0x33
     bc4:	91 11       	cpse	r25, r1
     bc6:	be cf       	rjmp	.-132    	; 0xb44 <.L76>
     bc8:	80 e1       	ldi	r24, 0x10	; 16
     bca:	80 93 06 04 	sts	0x0406, r24	; 0x800406 <__RODATA_PM_OFFSET__+0x7f8406>
     bce:	80 91 00 06 	lds	r24, 0x0600	; 0x800600 <__RODATA_PM_OFFSET__+0x7f8600>
     bd2:	8e 7f       	andi	r24, 0xFE	; 254
     bd4:	80 93 00 06 	sts	0x0600, r24	; 0x800600 <__RODATA_PM_OFFSET__+0x7f8600>
     bd8:	80 e4       	ldi	r24, 0x40	; 64
     bda:	80 93 05 04 	sts	0x0405, r24	; 0x800405 <__RODATA_PM_OFFSET__+0x7f8405>
     bde:	8e eb       	ldi	r24, 0xBE	; 190
     be0:	9e e9       	ldi	r25, 0x9E	; 158
     be2:	0e 94 59 00 	call	0xb2	; 0xb2 <usart_print>
     be6:	c1 01       	movw	r24, r2
     be8:	0e 94 66 00 	call	0xcc	; 0xcc <usart_print_u16>
     bec:	80 e2       	ldi	r24, 0x20	; 32
     bee:	0e 94 52 00 	call	0xa4	; 0xa4 <usart_putc>
     bf2:	9c aa       	std	Y+52, r9	; 0x34
     bf4:	1d aa       	std	Y+53, r1	; 0x35
     bf6:	b2 e0       	ldi	r27, 0x02	; 2
     bf8:	9b 16       	cp	r9, r27
     bfa:	08 f0       	brcs	.+2      	; 0xbfe <L0^A+0x2>

00000bfc <L0^A>:
     bfc:	49 c0       	rjmp	.+146    	; 0xc90 <.L77>
     bfe:	80 ec       	ldi	r24, 0xC0	; 192
     c00:	9e e9       	ldi	r25, 0x9E	; 158
     c02:	0e 94 59 00 	call	0xb2	; 0xb2 <usart_print>
     c06:	89 a5       	ldd	r24, Y+41	; 0x29
     c08:	9a a5       	ldd	r25, Y+42	; 0x2a
     c0a:	0e 94 a7 00 	call	0x14e	; 0x14e <usart_print_temp_dC>
     c0e:	8b ec       	ldi	r24, 0xCB	; 203
     c10:	9e e9       	ldi	r25, 0x9E	; 158
     c12:	0e 94 59 00 	call	0xb2	; 0xb2 <usart_print>
     c16:	8c a9       	ldd	r24, Y+52	; 0x34
     c18:	9d a9       	ldd	r25, Y+53	; 0x35
     c1a:	0e 94 66 00 	call	0xcc	; 0xcc <usart_print_u16>
     c1e:	8f ec       	ldi	r24, 0xCF	; 207
     c20:	9e e9       	ldi	r25, 0x9E	; 158
     c22:	0e 94 59 00 	call	0xb2	; 0xb2 <usart_print>
     c26:	89 e0       	ldi	r24, 0x09	; 9
     c28:	90 e0       	ldi	r25, 0x00	; 0

00000c2a <.L151>:
     c2a:	0e 94 66 00 	call	0xcc	; 0xcc <usart_print_u16>
     c2e:	81 ed       	ldi	r24, 0xD1	; 209
     c30:	9e e9       	ldi	r25, 0x9E	; 158
     c32:	0e 94 59 00 	call	0xb2	; 0xb2 <usart_print>
     c36:	8b eb       	ldi	r24, 0xBB	; 187
     c38:	9e e9       	ldi	r25, 0x9E	; 158
     c3a:	0e 94 59 00 	call	0xb2	; 0xb2 <usart_print>

00000c3e <.L107>:
     c3e:	80 91 04 08 	lds	r24, 0x0804	; 0x800804 <__RODATA_PM_OFFSET__+0x7f8804>
     c42:	85 ff       	sbrs	r24, 5
     c44:	fc cf       	rjmp	.-8      	; 0xc3e <.L107>
     c46:	86 e7       	ldi	r24, 0x76	; 118
     c48:	91 e0       	ldi	r25, 0x01	; 1

00000c4a <.L1^B11>:
     c4a:	01 97       	sbiw	r24, 0x01	; 1
     c4c:	f1 f7       	brne	.-4      	; 0xc4a <.L1^B11>

00000c4e <.L152>:
     c4e:	00 c0       	rjmp	.+0      	; 0xc50 <L0^A>

00000c50 <L0^A>:
     c50:	00 00       	nop
     c52:	80 91 08 04 	lds	r24, 0x0408	; 0x800408 <__RODATA_PM_OFFSET__+0x7f8408>
     c56:	83 fd       	sbrc	r24, 3
     c58:	58 ce       	rjmp	.-848    	; 0x90a <.L65>
     c5a:	a7 ea       	ldi	r26, 0xA7	; 167
     c5c:	b1 e6       	ldi	r27, 0x61	; 97

00000c5e <.L1^B12>:
     c5e:	11 97       	sbiw	r26, 0x01	; 1
     c60:	f1 f7       	brne	.-4      	; 0xc5e <.L1^B12>
     c62:	f5 cf       	rjmp	.-22     	; 0xc4e <.L152>

00000c64 <.L71>:
     c64:	68 33       	cpi	r22, 0x38	; 56
     c66:	3f ef       	ldi	r19, 0xFF	; 255
     c68:	73 07       	cpc	r23, r19
     c6a:	83 07       	cpc	r24, r19
     c6c:	93 07       	cpc	r25, r19
     c6e:	0c f0       	brlt	.+2      	; 0xc72 <L0^A+0x2>

00000c70 <L0^A>:
     c70:	16 cf       	rjmp	.-468    	; 0xa9e <.L72>
     c72:	68 e3       	ldi	r22, 0x38	; 56
     c74:	7f ef       	ldi	r23, 0xFF	; 255
     c76:	13 cf       	rjmp	.-474    	; 0xa9e <.L72>

00000c78 <.L111>:
     c78:	48 e3       	ldi	r20, 0x38	; 56
     c7a:	49 a7       	std	Y+41, r20	; 0x29
     c7c:	8f ef       	ldi	r24, 0xFF	; 255
     c7e:	8a a7       	std	Y+42, r24	; 0x2a
     c80:	10 cf       	rjmp	.-480    	; 0xaa2 <.L68>

00000c82 <.L112>:
     c82:	98 e5       	ldi	r25, 0x58	; 88
     c84:	99 a7       	std	Y+41, r25	; 0x29
     c86:	a2 e0       	ldi	r26, 0x02	; 2
     c88:	aa a7       	std	Y+42, r26	; 0x2a
     c8a:	0b cf       	rjmp	.-490    	; 0xaa2 <.L68>

00000c8c <.L115>:
     c8c:	18 e1       	ldi	r17, 0x18	; 24
     c8e:	4f cf       	rjmp	.-354    	; 0xb2e <.L73>

00000c90 <.L77>:
     c90:	8e 01       	movw	r16, r28
     c92:	0d 5e       	subi	r16, 0xED	; 237
     c94:	1f 4f       	sbci	r17, 0xFF	; 255
     c96:	f8 01       	movw	r30, r16
     c98:	41 e0       	ldi	r20, 0x01	; 1

00000c9a <.L82>:
     c9a:	82 81       	ldd	r24, Z+2	; 0x02
     c9c:	93 81       	ldd	r25, Z+3	; 0x03
     c9e:	5f ef       	ldi	r21, 0xFF	; 255
     ca0:	54 0f       	add	r21, r20
     ca2:	df 01       	movw	r26, r30

00000ca4 <.L79>:
     ca4:	2d 91       	ld	r18, X+
     ca6:	3d 91       	ld	r19, X+
     ca8:	12 97       	sbiw	r26, 0x02	; 2
     caa:	82 17       	cp	r24, r18
     cac:	93 07       	cpc	r25, r19
     cae:	38 f4       	brcc	.+14     	; 0xcbe <.L80>
     cb0:	12 96       	adiw	r26, 0x02	; 2
     cb2:	2d 93       	st	X+, r18
     cb4:	3d 93       	st	X+, r19
     cb6:	51 50       	subi	r21, 0x01	; 1
     cb8:	16 97       	sbiw	r26, 0x06	; 6
     cba:	5f 3f       	cpi	r21, 0xFF	; 255
     cbc:	99 f7       	brne	.-26     	; 0xca4 <.L79>

00000cbe <.L80>:
     cbe:	a1 e0       	ldi	r26, 0x01	; 1
     cc0:	a5 0f       	add	r26, r21
     cc2:	aa 0f       	add	r26, r26
     cc4:	bb 0b       	sbc	r27, r27
     cc6:	31 e0       	ldi	r19, 0x01	; 1
     cc8:	c3 2e       	mov	r12, r19
     cca:	d1 2c       	mov	r13, r1
     ccc:	cc 0e       	add	r12, r28
     cce:	dd 1e       	adc	r13, r29
     cd0:	ac 0d       	add	r26, r12
     cd2:	bd 1d       	adc	r27, r13
     cd4:	52 96       	adiw	r26, 0x12	; 18
     cd6:	8d 93       	st	X+, r24
     cd8:	9d 93       	st	X+, r25
     cda:	81 e0       	ldi	r24, 0x01	; 1
     cdc:	84 0f       	add	r24, r20
     cde:	32 96       	adiw	r30, 0x02	; 2
     ce0:	98 12       	cpse	r9, r24
     ce2:	d0 c1       	rjmp	.+928    	; 0x1084 <.L117>
     ce4:	96 94       	lsr	r9
     ce6:	e9 2c       	mov	r14, r9
     ce8:	f1 2c       	mov	r15, r1
     cea:	f6 01       	movw	r30, r12
     cec:	e9 0d       	add	r30, r9
     cee:	f1 1d       	adc	r31, r1
     cf0:	e9 0d       	add	r30, r9
     cf2:	f1 1d       	adc	r31, r1
     cf4:	a2 88       	ldd	r10, Z+18	; 0x12
     cf6:	b3 88       	ldd	r11, Z+19	; 0x13
     cf8:	be 01       	movw	r22, r28
     cfa:	6f 5f       	subi	r22, 0xFF	; 255
     cfc:	7f 4f       	sbci	r23, 0xFF	; 255
     cfe:	fb 01       	movw	r30, r22
     d00:	d8 01       	movw	r26, r16
     d02:	20 e0       	ldi	r18, 0x00	; 0

00000d04 <.L85>:
     d04:	8d 91       	ld	r24, X+
     d06:	9d 91       	ld	r25, X+
     d08:	a8 16       	cp	r10, r24
     d0a:	b9 06       	cpc	r11, r25
     d0c:	08 f0       	brcs	.+2      	; 0xd10 <L0^A+0x2>

00000d0e <L0^A>:
     d0e:	be c1       	rjmp	.+892    	; 0x108c <.L83>
     d10:	8a 19       	sub	r24, r10
     d12:	9b 09       	sbc	r25, r11

00000d14 <.L84>:
     d14:	81 93       	st	Z+, r24
     d16:	91 93       	st	Z+, r25
     d18:	42 13       	cpse	r20, r18
     d1a:	b6 c1       	rjmp	.+876    	; 0x1088 <.L118>
     d1c:	51 e0       	ldi	r21, 0x01	; 1

00000d1e <.L89>:
     d1e:	db 01       	movw	r26, r22
     d20:	12 96       	adiw	r26, 0x02	; 2
     d22:	8d 91       	ld	r24, X+
     d24:	9d 91       	ld	r25, X+
     d26:	af ef       	ldi	r26, 0xFF	; 255
     d28:	a5 0f       	add	r26, r21
     d2a:	fb 01       	movw	r30, r22

00000d2c <.L86>:
     d2c:	20 81       	ld	r18, Z
     d2e:	31 81       	ldd	r19, Z+1	; 0x01
     d30:	82 17       	cp	r24, r18
     d32:	93 07       	cpc	r25, r19
     d34:	30 f4       	brcc	.+12     	; 0xd42 <.L87>
     d36:	22 83       	std	Z+2, r18	; 0x02
     d38:	33 83       	std	Z+3, r19	; 0x03
     d3a:	a1 50       	subi	r26, 0x01	; 1
     d3c:	32 97       	sbiw	r30, 0x02	; 2
     d3e:	af 3f       	cpi	r26, 0xFF	; 255
     d40:	a9 f7       	brne	.-22     	; 0xd2c <.L86>

00000d42 <.L87>:
     d42:	e1 e0       	ldi	r30, 0x01	; 1
     d44:	ea 0f       	add	r30, r26
     d46:	ee 0f       	add	r30, r30
     d48:	ff 0b       	sbc	r31, r31
     d4a:	21 e0       	ldi	r18, 0x01	; 1
     d4c:	c2 2e       	mov	r12, r18
     d4e:	d1 2c       	mov	r13, r1
     d50:	cc 0e       	add	r12, r28
     d52:	dd 1e       	adc	r13, r29
     d54:	ec 0d       	add	r30, r12
     d56:	fd 1d       	adc	r31, r13
     d58:	80 83       	st	Z, r24
     d5a:	91 83       	std	Z+1, r25	; 0x01
     d5c:	6e 5f       	subi	r22, 0xFE	; 254
     d5e:	7f 4f       	sbci	r23, 0xFF	; 255
     d60:	45 13       	cpse	r20, r21
     d62:	99 c1       	rjmp	.+818    	; 0x1096 <.L119>
     d64:	f7 01       	movw	r30, r14
     d66:	ee 0f       	add	r30, r30
     d68:	ff 1f       	adc	r31, r31
     d6a:	ec 0d       	add	r30, r12
     d6c:	fd 1d       	adc	r31, r13
     d6e:	80 81       	ld	r24, Z
     d70:	91 81       	ldd	r25, Z+1	; 0x01
     d72:	9c 01       	movw	r18, r24
     d74:	22 0f       	add	r18, r18
     d76:	33 1f       	adc	r19, r19
     d78:	82 0f       	add	r24, r18
     d7a:	93 1f       	adc	r25, r19
     d7c:	02 96       	adiw	r24, 0x02	; 2
     d7e:	7c 01       	movw	r14, r24
     d80:	20 e0       	ldi	r18, 0x00	; 0
     d82:	30 e0       	ldi	r19, 0x00	; 0
     d84:	b9 01       	movw	r22, r18
     d86:	c9 01       	movw	r24, r18

00000d88 <.L93>:
     d88:	d8 01       	movw	r26, r16
     d8a:	ed 91       	ld	r30, X+
     d8c:	fd 91       	ld	r31, X+
     d8e:	8d 01       	movw	r16, r26
     d90:	df 01       	movw	r26, r30
     d92:	aa 19       	sub	r26, r10
     d94:	bb 09       	sbc	r27, r11
     d96:	ae 16       	cp	r10, r30
     d98:	bf 06       	cpc	r11, r31
     d9a:	18 f0       	brcs	.+6      	; 0xda2 <.L91>
     d9c:	d5 01       	movw	r26, r10
     d9e:	ae 1b       	sub	r26, r30
     da0:	bf 0b       	sbc	r27, r31

00000da2 <.L91>:
     da2:	ea 16       	cp	r14, r26
     da4:	fb 06       	cpc	r15, r27
     da6:	28 f0       	brcs	.+10     	; 0xdb2 <.L92>
     da8:	6e 0f       	add	r22, r30
     daa:	7f 1f       	adc	r23, r31
     dac:	81 1d       	adc	r24, r1
     dae:	91 1d       	adc	r25, r1
     db0:	2f 5f       	subi	r18, 0xFF	; 255

00000db2 <.L92>:
     db2:	34 13       	cpse	r19, r20
     db4:	72 c1       	rjmp	.+740    	; 0x109a <.L120>
     db6:	21 15       	cp	r18, r1
     db8:	09 f4       	brne	.+2      	; 0xdbc <L0^A+0x2>

00000dba <L0^A>:
     dba:	71 c1       	rjmp	.+738    	; 0x109e <.L94>
     dbc:	30 e0       	ldi	r19, 0x00	; 0
     dbe:	40 e0       	ldi	r20, 0x00	; 0
     dc0:	50 e0       	ldi	r21, 0x00	; 0
     dc2:	0e 94 3b 0d 	call	0x1a76	; 0x1a76 <__udivmodsi4>

00000dc6 <.L95>:
     dc6:	b8 a5       	ldd	r27, Y+40	; 0x28
     dc8:	bb 0f       	add	r27, r27
     dca:	44 08       	sbc	r4, r4
     dcc:	59 01       	movw	r10, r18
     dce:	6a 01       	movw	r12, r20
     dd0:	e1 2c       	mov	r14, r1
     dd2:	f1 2c       	mov	r15, r1
     dd4:	87 01       	movw	r16, r14
     dd6:	2d a1       	ldd	r18, Y+37	; 0x25
     dd8:	3e a1       	ldd	r19, Y+38	; 0x26
     dda:	4f a1       	ldd	r20, Y+39	; 0x27
     ddc:	58 a5       	ldd	r21, Y+40	; 0x28
     dde:	64 2d       	mov	r22, r4
     de0:	74 2d       	mov	r23, r4
     de2:	84 2d       	mov	r24, r4
     de4:	94 2d       	mov	r25, r4
     de6:	0e 94 8e 0d 	call	0x1b1c	; 0x1b1c <__muldi3>
     dea:	a1 2c       	mov	r10, r1
     dec:	ed e2       	ldi	r30, 0x2D	; 45
     dee:	be 2e       	mov	r11, r30
     df0:	f1 e3       	ldi	r31, 0x31	; 49
     df2:	cf 2e       	mov	r12, r31
     df4:	f1 e0       	ldi	r31, 0x01	; 1
     df6:	df 2e       	mov	r13, r31
     df8:	0e 94 22 0e 	call	0x1c44	; 0x1c44 <__divdi3>
     dfc:	ad ed       	ldi	r26, 0xDD	; 221
     dfe:	b3 e0       	ldi	r27, 0x03	; 3
     e00:	0e 94 83 0d 	call	0x1b06	; 0x1b06 <__muluhisi3>
     e04:	a7 01       	movw	r20, r14
     e06:	28 ee       	ldi	r18, 0xE8	; 232
     e08:	33 e0       	ldi	r19, 0x03	; 3
     e0a:	0e 94 5d 0d 	call	0x1aba	; 0x1aba <__divmodsi4>
     e0e:	ba 01       	movw	r22, r20
     e10:	a9 01       	movw	r20, r18
     e12:	48 54       	subi	r20, 0x48	; 72
     e14:	51 09       	sbc	r21, r1
     e16:	61 09       	sbc	r22, r1
     e18:	71 09       	sbc	r23, r1
     e1a:	4f 3f       	cpi	r20, 0xFF	; 255
     e1c:	9f ef       	ldi	r25, 0xFF	; 255
     e1e:	59 07       	cpc	r21, r25
     e20:	61 05       	cpc	r22, r1
     e22:	71 05       	cpc	r23, r1
     e24:	0c f4       	brge	.+2      	; 0xe28 <L0^A+0x2>

00000e26 <L0^A>:
     e26:	3f c1       	rjmp	.+638    	; 0x10a6 <.L96>
     e28:	4e ef       	ldi	r20, 0xFE	; 254
     e2a:	5f ef       	ldi	r21, 0xFF	; 255

00000e2c <.L97>:
     e2c:	7a 01       	movw	r14, r20
     e2e:	a3 e0       	ldi	r26, 0x03	; 3
     e30:	8a 16       	cp	r8, r26
     e32:	08 f4       	brcc	.+2      	; 0xe36 <L0^A+0x2>

00000e34 <L0^A>:
     e34:	40 c1       	rjmp	.+640    	; 0x10b6 <.L121>
     e36:	2f a5       	ldd	r18, Y+47	; 0x2f
     e38:	38 a9       	ldd	r19, Y+48	; 0x30
     e3a:	49 a9       	ldd	r20, Y+49	; 0x31
     e3c:	5a a9       	ldd	r21, Y+50	; 0x32
     e3e:	b9 01       	movw	r22, r18
     e40:	ca 01       	movw	r24, r20
     e42:	0e 94 9c 0c 	call	0x1938	; 0x1938 <__mulsf3>
     e46:	2b 01       	movw	r4, r22
     e48:	3c 01       	movw	r6, r24
     e4a:	2b a5       	ldd	r18, Y+43	; 0x2b
     e4c:	3c a5       	ldd	r19, Y+44	; 0x2c
     e4e:	4d a5       	ldd	r20, Y+45	; 0x2d
     e50:	5e a5       	ldd	r21, Y+46	; 0x2e
     e52:	b9 01       	movw	r22, r18
     e54:	ca 01       	movw	r24, r20
     e56:	0e 94 9c 0c 	call	0x1938	; 0x1938 <__mulsf3>
     e5a:	9b 01       	movw	r18, r22
     e5c:	ac 01       	movw	r20, r24
     e5e:	b2 01       	movw	r22, r4
     e60:	c3 01       	movw	r24, r6
     e62:	0e 94 d4 0b 	call	0x17a8	; 0x17a8 <__addsf3>
     e66:	0e 94 8f 0b 	call	0x171e	; 0x171e <sqrtf>
     e6a:	2b 01       	movw	r4, r22
     e6c:	3c 01       	movw	r6, r24
     e6e:	68 2d       	mov	r22, r8
     e70:	70 e0       	ldi	r23, 0x00	; 0
     e72:	c8 01       	movw	r24, r16
     e74:	0e 94 44 0c 	call	0x1888	; 0x1888 <__floatunsisf>
     e78:	9b 01       	movw	r18, r22
     e7a:	ac 01       	movw	r20, r24
     e7c:	b2 01       	movw	r22, r4
     e7e:	c3 01       	movw	r24, r6
     e80:	0e 94 40 0c 	call	0x1880	; 0x1880 <__divsf3>
     e84:	2b 01       	movw	r4, r22
     e86:	3c 01       	movw	r6, r24
     e88:	48 ec       	ldi	r20, 0xC8	; 200
     e8a:	52 e4       	ldi	r21, 0x42	; 66
     e8c:	98 01       	movw	r18, r16
     e8e:	0e 94 9c 0c 	call	0x1938	; 0x1938 <__mulsf3>
     e92:	98 01       	movw	r18, r16
     e94:	40 e0       	ldi	r20, 0x00	; 0
     e96:	5f e3       	ldi	r21, 0x3F	; 63
     e98:	0e 94 d4 0b 	call	0x17a8	; 0x17a8 <__addsf3>
     e9c:	0e 94 ac 0c 	call	0x1958	; 0x1958 <__fixunssfsi>
     ea0:	6b ab       	std	Y+51, r22	; 0x33
     ea2:	2f a5       	ldd	r18, Y+47	; 0x2f
     ea4:	38 a9       	ldd	r19, Y+48	; 0x30
     ea6:	49 a9       	ldd	r20, Y+49	; 0x31
     ea8:	5a a9       	ldd	r21, Y+50	; 0x32
     eaa:	6b a5       	ldd	r22, Y+43	; 0x2b
     eac:	7c a5       	ldd	r23, Y+44	; 0x2c
     eae:	8d a5       	ldd	r24, Y+45	; 0x2d
     eb0:	9e a5       	ldd	r25, Y+46	; 0x2e
     eb2:	0e 94 88 08 	call	0x1110	; 0x1110 <atan2f>
     eb6:	2b ed       	ldi	r18, 0xDB	; 219
     eb8:	3f e0       	ldi	r19, 0x0F	; 15
     eba:	49 ec       	ldi	r20, 0xC9	; 201
     ebc:	50 e4       	ldi	r21, 0x40	; 64
     ebe:	0e 94 40 0c 	call	0x1880	; 0x1880 <__divsf3>
     ec2:	5b 01       	movw	r10, r22
     ec4:	8c 01       	movw	r16, r24
     ec6:	40 e0       	ldi	r20, 0x00	; 0
     ec8:	50 e0       	ldi	r21, 0x00	; 0
     eca:	9a 01       	movw	r18, r20
     ecc:	0e 94 a0 0c 	call	0x1940	; 0x1940 <__cmpsf2>
     ed0:	87 ff       	sbrs	r24, 7
     ed2:	0a c0       	rjmp	.+20     	; 0xee8 <.L99>
     ed4:	20 e0       	ldi	r18, 0x00	; 0
     ed6:	30 e0       	ldi	r19, 0x00	; 0
     ed8:	40 e8       	ldi	r20, 0x80	; 128
     eda:	5f e3       	ldi	r21, 0x3F	; 63
     edc:	b5 01       	movw	r22, r10
     ede:	c8 01       	movw	r24, r16
     ee0:	0e 94 d4 0b 	call	0x17a8	; 0x17a8 <__addsf3>
     ee4:	5b 01       	movw	r10, r22
     ee6:	8c 01       	movw	r16, r24

00000ee8 <.L99>:
     ee8:	20 e0       	ldi	r18, 0x00	; 0
     eea:	30 e0       	ldi	r19, 0x00	; 0
     eec:	41 e6       	ldi	r20, 0x61	; 97
     eee:	55 e4       	ldi	r21, 0x45	; 69
     ef0:	b5 01       	movw	r22, r10
     ef2:	c8 01       	movw	r24, r16
     ef4:	0e 94 9c 0c 	call	0x1938	; 0x1938 <__mulsf3>
     ef8:	0e 94 c1 0a 	call	0x1582	; 0x1582 <lroundf>
     efc:	6b 01       	movw	r12, r22
     efe:	2a e9       	ldi	r18, 0x9A	; 154
     f00:	39 e9       	ldi	r19, 0x99	; 153
     f02:	49 e1       	ldi	r20, 0x19	; 25
     f04:	5f e3       	ldi	r21, 0x3F	; 63
     f06:	b2 01       	movw	r22, r4
     f08:	c3 01       	movw	r24, r6
     f0a:	0e 94 a0 0c 	call	0x1940	; 0x1940 <__cmpsf2>
     f0e:	87 fd       	sbrc	r24, 7
     f10:	d8 c0       	rjmp	.+432    	; 0x10c2 <.L123>
     f12:	6d a1       	ldd	r22, Y+37	; 0x25
     f14:	7e a1       	ldd	r23, Y+38	; 0x26
     f16:	8f a1       	ldd	r24, Y+39	; 0x27
     f18:	98 a5       	ldd	r25, Y+40	; 0x28
     f1a:	0e 94 46 0c 	call	0x188c	; 0x188c <__floatsisf>
     f1e:	20 e0       	ldi	r18, 0x00	; 0
     f20:	30 e4       	ldi	r19, 0x40	; 64
     f22:	4c e9       	ldi	r20, 0x9C	; 156
     f24:	57 e4       	ldi	r21, 0x47	; 71
     f26:	0e 94 40 0c 	call	0x1880	; 0x1880 <__divsf3>
     f2a:	6d a3       	std	Y+37, r22	; 0x25
     f2c:	7e a3       	std	Y+38, r23	; 0x26
     f2e:	8f a3       	std	Y+39, r24	; 0x27
     f30:	98 a7       	std	Y+40, r25	; 0x28
     f32:	9b 01       	movw	r18, r22
     f34:	ac 01       	movw	r20, r24
     f36:	b5 01       	movw	r22, r10
     f38:	c8 01       	movw	r24, r16
     f3a:	0e 94 9c 0c 	call	0x1938	; 0x1938 <__mulsf3>
     f3e:	4b 01       	movw	r8, r22
     f40:	5c 01       	movw	r10, r24
     f42:	b7 01       	movw	r22, r14
     f44:	80 e0       	ldi	r24, 0x00	; 0
     f46:	90 e0       	ldi	r25, 0x00	; 0
     f48:	0e 94 44 0c 	call	0x1888	; 0x1888 <__floatunsisf>
     f4c:	2b 01       	movw	r4, r22
     f4e:	3c 01       	movw	r6, r24
     f50:	94 01       	movw	r18, r8
     f52:	a5 01       	movw	r20, r10
     f54:	0e 94 d3 0b 	call	0x17a6	; 0x17a6 <__subsf3>
     f58:	2d a1       	ldd	r18, Y+37	; 0x25
     f5a:	3e a1       	ldd	r19, Y+38	; 0x26
     f5c:	4f a1       	ldd	r20, Y+39	; 0x27
     f5e:	58 a5       	ldd	r21, Y+40	; 0x28
     f60:	0e 94 40 0c 	call	0x1880	; 0x1880 <__divsf3>
     f64:	0e 94 5d 0b 	call	0x16ba	; 0x16ba <roundf>
     f68:	9b 01       	movw	r18, r22
     f6a:	ac 01       	movw	r20, r24
     f6c:	6d a1       	ldd	r22, Y+37	; 0x25
     f6e:	7e a1       	ldd	r23, Y+38	; 0x26
     f70:	8f a1       	ldd	r24, Y+39	; 0x27
     f72:	98 a5       	ldd	r25, Y+40	; 0x28
     f74:	0e 94 9c 0c 	call	0x1938	; 0x1938 <__mulsf3>
     f78:	94 01       	movw	r18, r8
     f7a:	a5 01       	movw	r20, r10
     f7c:	0e 94 d4 0b 	call	0x17a8	; 0x17a8 <__addsf3>
     f80:	5b 01       	movw	r10, r22
     f82:	8c 01       	movw	r16, r24
     f84:	92 01       	movw	r18, r4
     f86:	a3 01       	movw	r20, r6
     f88:	0e 94 d3 0b 	call	0x17a6	; 0x17a6 <__subsf3>
     f8c:	2b 01       	movw	r4, r22
     f8e:	3c 01       	movw	r6, r24
     f90:	e8 94       	clt
     f92:	77 f8       	bld	r7, 7
     f94:	20 e0       	ldi	r18, 0x00	; 0
     f96:	30 e0       	ldi	r19, 0x00	; 0
     f98:	40 e0       	ldi	r20, 0x00	; 0
     f9a:	5f e3       	ldi	r21, 0x3F	; 63
     f9c:	6d a1       	ldd	r22, Y+37	; 0x25
     f9e:	7e a1       	ldd	r23, Y+38	; 0x26
     fa0:	8f a1       	ldd	r24, Y+39	; 0x27
     fa2:	98 a5       	ldd	r25, Y+40	; 0x28
     fa4:	0e 94 9c 0c 	call	0x1938	; 0x1938 <__mulsf3>
     fa8:	9b 01       	movw	r18, r22
     faa:	ac 01       	movw	r20, r24
     fac:	b2 01       	movw	r22, r4
     fae:	c3 01       	movw	r24, r6
     fb0:	0e 94 ff 0c 	call	0x19fe	; 0x19fe <__gesf2>
     fb4:	18 16       	cp	r1, r24
     fb6:	0c f4       	brge	.+2      	; 0xfba <L0^A+0x2>

00000fb8 <L0^A>:
     fb8:	84 c0       	rjmp	.+264    	; 0x10c2 <.L123>
     fba:	40 e0       	ldi	r20, 0x00	; 0
     fbc:	50 e0       	ldi	r21, 0x00	; 0
     fbe:	9a 01       	movw	r18, r20
     fc0:	b5 01       	movw	r22, r10
     fc2:	c8 01       	movw	r24, r16
     fc4:	0e 94 a0 0c 	call	0x1940	; 0x1940 <__cmpsf2>
     fc8:	87 fd       	sbrc	r24, 7
     fca:	71 c0       	rjmp	.+226    	; 0x10ae <.L124>
     fcc:	20 e0       	ldi	r18, 0x00	; 0
     fce:	3e ef       	ldi	r19, 0xFE	; 254
     fd0:	4f e7       	ldi	r20, 0x7F	; 127
     fd2:	57 e4       	ldi	r21, 0x47	; 71
     fd4:	b5 01       	movw	r22, r10
     fd6:	c8 01       	movw	r24, r16
     fd8:	0e 94 ff 0c 	call	0x19fe	; 0x19fe <__gesf2>
     fdc:	18 16       	cp	r1, r24
     fde:	2c f4       	brge	.+10     	; 0xfea <.L101>
     fe0:	a1 2c       	mov	r10, r1
     fe2:	9e ef       	ldi	r25, 0xFE	; 254
     fe4:	b9 2e       	mov	r11, r25
     fe6:	0f e7       	ldi	r16, 0x7F	; 127
     fe8:	17 e4       	ldi	r17, 0x47	; 71

00000fea <.L101>:
     fea:	b5 01       	movw	r22, r10
     fec:	c8 01       	movw	r24, r16
     fee:	0e 94 c1 0a 	call	0x1582	; 0x1582 <lroundf>
     ff2:	16 2f       	mov	r17, r22
     ff4:	07 2f       	mov	r16, r23

00000ff6 <.L98>:
     ff6:	83 ed       	ldi	r24, 0xD3	; 211
     ff8:	9e e9       	ldi	r25, 0x9E	; 158
     ffa:	0e 94 59 00 	call	0xb2	; 0xb2 <usart_print>
     ffe:	81 2f       	mov	r24, r17
    1000:	90 2f       	mov	r25, r16
    1002:	0e 94 66 00 	call	0xcc	; 0xcc <usart_print_u16>
    1006:	86 ed       	ldi	r24, 0xD6	; 214
    1008:	9e e9       	ldi	r25, 0x9E	; 158
    100a:	0e 94 59 00 	call	0xb2	; 0xb2 <usart_print>
    100e:	c7 01       	movw	r24, r14
    1010:	0e 94 66 00 	call	0xcc	; 0xcc <usart_print_u16>
    1014:	8e ed       	ldi	r24, 0xDE	; 222
    1016:	9e e9       	ldi	r25, 0x9E	; 158
    1018:	0e 94 59 00 	call	0xb2	; 0xb2 <usart_print>
    101c:	b0 ef       	ldi	r27, 0xF0	; 240
    101e:	cb 16       	cp	r12, r27
    1020:	b1 ef       	ldi	r27, 0xF1	; 241
    1022:	db 06       	cpc	r13, r27
    1024:	09 f0       	breq	.+2      	; 0x1028 <L0^A+0x2>

00001026 <L0^A>:
    1026:	50 c0       	rjmp	.+160    	; 0x10c8 <.L105>
    1028:	83 ee       	ldi	r24, 0xE3	; 227
    102a:	9e e9       	ldi	r25, 0x9E	; 158
    102c:	0e 94 59 00 	call	0xb2	; 0xb2 <usart_print>

00001030 <.L106>:
    1030:	86 ee       	ldi	r24, 0xE6	; 230
    1032:	9e e9       	ldi	r25, 0x9E	; 158
    1034:	0e 94 59 00 	call	0xb2	; 0xb2 <usart_print>
    1038:	eb a9       	ldd	r30, Y+51	; 0x33
    103a:	8e 2f       	mov	r24, r30
    103c:	90 e0       	ldi	r25, 0x00	; 0
    103e:	0e 94 66 00 	call	0xcc	; 0xcc <usart_print_u16>
    1042:	87 ec       	ldi	r24, 0xC7	; 199
    1044:	9e e9       	ldi	r25, 0x9E	; 158
    1046:	0e 94 59 00 	call	0xb2	; 0xb2 <usart_print>
    104a:	89 a5       	ldd	r24, Y+41	; 0x29
    104c:	9a a5       	ldd	r25, Y+42	; 0x2a
    104e:	0e 94 a7 00 	call	0x14e	; 0x14e <usart_print_temp_dC>
    1052:	8c ee       	ldi	r24, 0xEC	; 236
    1054:	9e e9       	ldi	r25, 0x9E	; 158
    1056:	0e 94 59 00 	call	0xb2	; 0xb2 <usart_print>
    105a:	8c a9       	ldd	r24, Y+52	; 0x34
    105c:	9d a9       	ldd	r25, Y+53	; 0x35
    105e:	0e 94 66 00 	call	0xcc	; 0xcc <usart_print_u16>
    1062:	8f ec       	ldi	r24, 0xCF	; 207
    1064:	9e e9       	ldi	r25, 0x9E	; 158
    1066:	0e 94 59 00 	call	0xb2	; 0xb2 <usart_print>
    106a:	89 e0       	ldi	r24, 0x09	; 9
    106c:	90 e0       	ldi	r25, 0x00	; 0
    106e:	0e 94 66 00 	call	0xcc	; 0xcc <usart_print_u16>
    1072:	8f ee       	ldi	r24, 0xEF	; 239
    1074:	9e e9       	ldi	r25, 0x9E	; 158
    1076:	0e 94 59 00 	call	0xb2	; 0xb2 <usart_print>
    107a:	80 91 08 38 	lds	r24, 0x3808	; 0x803808 <diag_peak>
    107e:	90 91 09 38 	lds	r25, 0x3809	; 0x803809 <diag_peak+0x1>
    1082:	d3 cd       	rjmp	.-1114   	; 0xc2a <.L151>

00001084 <.L117>:
    1084:	48 2f       	mov	r20, r24
    1086:	09 ce       	rjmp	.-1006   	; 0xc9a <.L82>

00001088 <.L118>:
    1088:	2f 5f       	subi	r18, 0xFF	; 255
    108a:	3c ce       	rjmp	.-904    	; 0xd04 <.L85>

0000108c <.L83>:
    108c:	65 01       	movw	r12, r10
    108e:	c8 1a       	sub	r12, r24
    1090:	d9 0a       	sbc	r13, r25
    1092:	c6 01       	movw	r24, r12
    1094:	3f ce       	rjmp	.-898    	; 0xd14 <.L84>

00001096 <.L119>:
    1096:	5f 5f       	subi	r21, 0xFF	; 255
    1098:	42 ce       	rjmp	.-892    	; 0xd1e <.L89>

0000109a <.L120>:
    109a:	3f 5f       	subi	r19, 0xFF	; 255
    109c:	75 ce       	rjmp	.-790    	; 0xd88 <.L93>

0000109e <.L94>:
    109e:	95 01       	movw	r18, r10
    10a0:	40 e0       	ldi	r20, 0x00	; 0
    10a2:	50 e0       	ldi	r21, 0x00	; 0
    10a4:	90 ce       	rjmp	.-736    	; 0xdc6 <.L95>

000010a6 <.L96>:
    10a6:	77 ff       	sbrs	r23, 7
    10a8:	c1 ce       	rjmp	.-638    	; 0xe2c <.L97>
    10aa:	a7 01       	movw	r20, r14
    10ac:	bf ce       	rjmp	.-642    	; 0xe2c <.L97>

000010ae <.L124>:
    10ae:	a1 2c       	mov	r10, r1
    10b0:	b1 2c       	mov	r11, r1
    10b2:	85 01       	movw	r16, r10
    10b4:	9a cf       	rjmp	.-204    	; 0xfea <.L101>

000010b6 <.L121>:
    10b6:	14 2f       	mov	r17, r20
    10b8:	05 2f       	mov	r16, r21
    10ba:	80 ef       	ldi	r24, 0xF0	; 240
    10bc:	c8 2e       	mov	r12, r24
    10be:	dc 0c       	add	r13, r12
    10c0:	9a cf       	rjmp	.-204    	; 0xff6 <.L98>

000010c2 <.L123>:
    10c2:	1e 2d       	mov	r17, r14
    10c4:	0f 2d       	mov	r16, r15
    10c6:	97 cf       	rjmp	.-210    	; 0xff6 <.L98>

000010c8 <.L105>:
    10c8:	c6 01       	movw	r24, r12
    10ca:	6a e0       	ldi	r22, 0x0A	; 10
    10cc:	70 e0       	ldi	r23, 0x00	; 0
    10ce:	0e 94 27 0d 	call	0x1a4e	; 0x1a4e <__divmodhi4>
    10d2:	18 2f       	mov	r17, r24
    10d4:	cb 01       	movw	r24, r22
    10d6:	0e 94 66 00 	call	0xcc	; 0xcc <usart_print_u16>
    10da:	8e e2       	ldi	r24, 0x2E	; 46
    10dc:	0e 94 52 00 	call	0xa4	; 0xa4 <usart_putc>
    10e0:	80 e3       	ldi	r24, 0x30	; 48
    10e2:	81 0f       	add	r24, r17
    10e4:	0e 94 52 00 	call	0xa4	; 0xa4 <usart_putc>
    10e8:	a3 cf       	rjmp	.-186    	; 0x1030 <.L106>

000010ea <.L_nf>:
    10ea:	0e 94 ca 09 	call	0x1394	; 0x1394 <__fp_pscA>
    10ee:	60 f0       	brcs	.+24     	; 0x1108 <.L_nan>
    10f0:	80 e8       	ldi	r24, 0x80	; 128
    10f2:	91 e0       	ldi	r25, 0x01	; 1
    10f4:	09 f4       	brne	.+2      	; 0x10f8 <.L1^B1>
    10f6:	9e ef       	ldi	r25, 0xFE	; 254

000010f8 <.L1^B1>:
    10f8:	0e 94 d1 09 	call	0x13a2	; 0x13a2 <__fp_pscB>
    10fc:	28 f0       	brcs	.+10     	; 0x1108 <.L_nan>
    10fe:	40 e8       	ldi	r20, 0x80	; 128
    1100:	51 e0       	ldi	r21, 0x01	; 1
    1102:	71 f4       	brne	.+28     	; 0x1120 <.L_cmp>
    1104:	5e ef       	ldi	r21, 0xFE	; 254
    1106:	0c c0       	rjmp	.+24     	; 0x1120 <.L_cmp>

00001108 <.L_nan>:
    1108:	0c 94 a0 09 	jmp	0x1340	; 0x1340 <__fp_nan>

0000110c <.L_zr>:
    110c:	0c 94 62 0a 	jmp	0x14c4	; 0x14c4 <__fp_zero>

00001110 <atan2f>:
    1110:	e9 2f       	mov	r30, r25
    1112:	e0 78       	andi	r30, 0x80	; 128
    1114:	0e 94 28 0a 	call	0x1450	; 0x1450 <__fp_split3>
    1118:	40 f3       	brcs	.-48     	; 0x10ea <.L_nf>
    111a:	09 2e       	mov	r0, r25
    111c:	05 2a       	or	r0, r21
    111e:	b1 f3       	breq	.-20     	; 0x110c <.L_zr>

00001120 <.L_cmp>:
    1120:	26 17       	cp	r18, r22
    1122:	37 07       	cpc	r19, r23
    1124:	48 07       	cpc	r20, r24
    1126:	59 07       	cpc	r21, r25
    1128:	38 f0       	brcs	.+14     	; 0x1138 <.L1^B2>
    112a:	0e 2e       	mov	r0, r30
    112c:	07 f8       	bld	r0, 7
    112e:	e0 25       	eor	r30, r0
    1130:	69 f0       	breq	.+26     	; 0x114c <.L2^B1>
    1132:	e0 25       	eor	r30, r0
    1134:	e0 64       	ori	r30, 0x40	; 64
    1136:	0a c0       	rjmp	.+20     	; 0x114c <.L2^B1>

00001138 <.L1^B2>:
    1138:	ef 63       	ori	r30, 0x3F	; 63
    113a:	07 f8       	bld	r0, 7
    113c:	00 94       	com	r0
    113e:	07 fa       	bst	r0, 7
    1140:	db 01       	movw	r26, r22
    1142:	b9 01       	movw	r22, r18
    1144:	9d 01       	movw	r18, r26
    1146:	dc 01       	movw	r26, r24
    1148:	ca 01       	movw	r24, r20
    114a:	ad 01       	movw	r20, r26

0000114c <.L2^B1>:
    114c:	ef 93       	push	r30
    114e:	0e 94 ff 08 	call	0x11fe	; 0x11fe <__divsf3_pse>
    1152:	0e 94 03 0a 	call	0x1406	; 0x1406 <__fp_round>
    1156:	0e 94 b8 08 	call	0x1170	; 0x1170 <atanf>
    115a:	5f 91       	pop	r21
    115c:	55 23       	and	r21, r21
    115e:	39 f0       	breq	.+14     	; 0x116e <.L9^B1>
    1160:	2b ed       	ldi	r18, 0xDB	; 219
    1162:	3f e0       	ldi	r19, 0x0F	; 15
    1164:	49 e4       	ldi	r20, 0x49	; 73
    1166:	50 fd       	sbrc	r21, 0
    1168:	49 ec       	ldi	r20, 0xC9	; 201
    116a:	0c 94 d4 0b 	jmp	0x17a8	; 0x17a8 <__addsf3>

0000116e <.L9^B1>:
    116e:	08 95       	ret

00001170 <atanf>:
    1170:	df 93       	push	r29
    1172:	dd 27       	eor	r29, r29
    1174:	b9 2f       	mov	r27, r25
    1176:	bf 77       	andi	r27, 0x7F	; 127
    1178:	40 e8       	ldi	r20, 0x80	; 128
    117a:	5f e3       	ldi	r21, 0x3F	; 63
    117c:	16 16       	cp	r1, r22
    117e:	17 06       	cpc	r1, r23
    1180:	48 07       	cpc	r20, r24
    1182:	5b 07       	cpc	r21, r27
    1184:	18 f4       	brcc	.+6      	; 0x118c <.L1^B1>
    1186:	d9 2f       	mov	r29, r25
    1188:	0e 94 69 0a 	call	0x14d2	; 0x14d2 <__inversef>

0000118c <.L1^B1>:
    118c:	9f 93       	push	r25
    118e:	8f 93       	push	r24
    1190:	7f 93       	push	r23
    1192:	6f 93       	push	r22
    1194:	0e 94 cf 0b 	call	0x179e	; 0x179e <squaref>
    1198:	e6 ee       	ldi	r30, 0xE6	; 230
    119a:	fd e1       	ldi	r31, 0x1D	; 29
    119c:	0e 94 a3 09 	call	0x1346	; 0x1346 <__fp_powser>
    11a0:	0e 94 03 0a 	call	0x1406	; 0x1406 <__fp_round>
    11a4:	2f 91       	pop	r18
    11a6:	3f 91       	pop	r19
    11a8:	4f 91       	pop	r20
    11aa:	5f 91       	pop	r21
    11ac:	0e 94 03 0b 	call	0x1606	; 0x1606 <__mulsf3x>
    11b0:	dd 23       	and	r29, r29
    11b2:	51 f0       	breq	.+20     	; 0x11c8 <.L2^B1>
    11b4:	90 58       	subi	r25, 0x80	; 128
    11b6:	a2 ea       	ldi	r26, 0xA2	; 162
    11b8:	2a ed       	ldi	r18, 0xDA	; 218
    11ba:	3f e0       	ldi	r19, 0x0F	; 15
    11bc:	49 ec       	ldi	r20, 0xC9	; 201
    11be:	5f e3       	ldi	r21, 0x3F	; 63
    11c0:	d0 78       	andi	r29, 0x80	; 128
    11c2:	5d 27       	eor	r21, r29
    11c4:	0e 94 eb 0b 	call	0x17d6	; 0x17d6 <__addsf3x>

000011c8 <.L2^B1>:
    11c8:	df 91       	pop	r29
    11ca:	0c 94 03 0a 	jmp	0x1406	; 0x1406 <__fp_round>

000011ce <cosf>:
    11ce:	0e 94 da 09 	call	0x13b4	; 0x13b4 <__fp_rempio2>
    11d2:	e3 95       	inc	r30
    11d4:	0c 94 14 0a 	jmp	0x1428	; 0x1428 <__fp_sinus>

000011d8 <.L0^B1>:
    11d8:	0e 94 d1 09 	call	0x13a2	; 0x13a2 <__fp_pscB>
    11dc:	58 f0       	brcs	.+22     	; 0x11f4 <.L_nan>
    11de:	0e 94 ca 09 	call	0x1394	; 0x1394 <__fp_pscA>
    11e2:	40 f0       	brcs	.+16     	; 0x11f4 <.L_nan>
    11e4:	29 f4       	brne	.+10     	; 0x11f0 <.L_zr>
    11e6:	5f 3f       	cpi	r21, 0xFF	; 255
    11e8:	29 f0       	breq	.+10     	; 0x11f4 <.L_nan>

000011ea <.L_inf>:
    11ea:	0c 94 71 09 	jmp	0x12e2	; 0x12e2 <__fp_inf>

000011ee <.L1^B1>:
    11ee:	51 11       	cpse	r21, r1

000011f0 <.L_zr>:
    11f0:	0c 94 63 0a 	jmp	0x14c6	; 0x14c6 <__fp_szero>

000011f4 <.L_nan>:
    11f4:	0c 94 a0 09 	jmp	0x1340	; 0x1340 <__fp_nan>

000011f8 <__divsf3x>:
    11f8:	0e 94 28 0a 	call	0x1450	; 0x1450 <__fp_split3>
    11fc:	68 f3       	brcs	.-38     	; 0x11d8 <.L0^B1>

000011fe <__divsf3_pse>:
    11fe:	99 23       	and	r25, r25
    1200:	b1 f3       	breq	.-20     	; 0x11ee <.L1^B1>
    1202:	55 23       	and	r21, r21
    1204:	91 f3       	breq	.-28     	; 0x11ea <.L_inf>
    1206:	95 1b       	sub	r25, r21
    1208:	55 0b       	sbc	r21, r21
    120a:	bb 27       	eor	r27, r27
    120c:	aa 27       	eor	r26, r26

0000120e <.L2^B1>:
    120e:	62 17       	cp	r22, r18
    1210:	73 07       	cpc	r23, r19
    1212:	84 07       	cpc	r24, r20
    1214:	38 f0       	brcs	.+14     	; 0x1224 <.L3^B1>
    1216:	9f 5f       	subi	r25, 0xFF	; 255
    1218:	5f 4f       	sbci	r21, 0xFF	; 255
    121a:	22 0f       	add	r18, r18
    121c:	33 1f       	adc	r19, r19
    121e:	44 1f       	adc	r20, r20
    1220:	aa 1f       	adc	r26, r26
    1222:	a9 f3       	breq	.-22     	; 0x120e <.L2^B1>

00001224 <.L3^B1>:
    1224:	35 d0       	rcall	.+106    	; 0x1290 <.L_div>
    1226:	0e 2e       	mov	r0, r30
    1228:	3a f0       	brmi	.+14     	; 0x1238 <.L5^B1>

0000122a <.L4^B1>:
    122a:	e0 e8       	ldi	r30, 0x80	; 128
    122c:	32 d0       	rcall	.+100    	; 0x1292 <.L_div1>
    122e:	91 50       	subi	r25, 0x01	; 1
    1230:	50 40       	sbci	r21, 0x00	; 0
    1232:	e6 95       	lsr	r30
    1234:	00 1c       	adc	r0, r0
    1236:	ca f7       	brpl	.-14     	; 0x122a <.L4^B1>

00001238 <.L5^B1>:
    1238:	2b d0       	rcall	.+86     	; 0x1290 <.L_div>
    123a:	fe 2f       	mov	r31, r30
    123c:	29 d0       	rcall	.+82     	; 0x1290 <.L_div>
    123e:	66 0f       	add	r22, r22
    1240:	77 1f       	adc	r23, r23
    1242:	88 1f       	adc	r24, r24
    1244:	bb 1f       	adc	r27, r27
    1246:	26 17       	cp	r18, r22
    1248:	37 07       	cpc	r19, r23
    124a:	48 07       	cpc	r20, r24
    124c:	ab 07       	cpc	r26, r27
    124e:	b0 e8       	ldi	r27, 0x80	; 128
    1250:	09 f0       	breq	.+2      	; 0x1254 <.L4^B2>
    1252:	bb 0b       	sbc	r27, r27

00001254 <.L4^B2>:
    1254:	80 2d       	mov	r24, r0
    1256:	bf 01       	movw	r22, r30
    1258:	ff 27       	eor	r31, r31
    125a:	93 58       	subi	r25, 0x83	; 131
    125c:	5f 4f       	sbci	r21, 0xFF	; 255
    125e:	3a f0       	brmi	.+14     	; 0x126e <.L13^B1>
    1260:	9e 3f       	cpi	r25, 0xFE	; 254
    1262:	51 05       	cpc	r21, r1
    1264:	78 f0       	brcs	.+30     	; 0x1284 <.L15^B1>
    1266:	0c 94 71 09 	jmp	0x12e2	; 0x12e2 <__fp_inf>

0000126a <.L12^B1>:
    126a:	0c 94 63 0a 	jmp	0x14c6	; 0x14c6 <__fp_szero>

0000126e <.L13^B1>:
    126e:	5f 3f       	cpi	r21, 0xFF	; 255
    1270:	e4 f3       	brlt	.-8      	; 0x126a <.L12^B1>
    1272:	98 3e       	cpi	r25, 0xE8	; 232
    1274:	d4 f3       	brlt	.-12     	; 0x126a <.L12^B1>

00001276 <.L14^B1>:
    1276:	86 95       	lsr	r24
    1278:	77 95       	ror	r23
    127a:	67 95       	ror	r22
    127c:	b7 95       	ror	r27
    127e:	f7 95       	ror	r31
    1280:	9f 5f       	subi	r25, 0xFF	; 255
    1282:	c9 f7       	brne	.-14     	; 0x1276 <.L14^B1>

00001284 <.L15^B1>:
    1284:	88 0f       	add	r24, r24
    1286:	91 1d       	adc	r25, r1
    1288:	96 95       	lsr	r25
    128a:	87 95       	ror	r24
    128c:	97 f9       	bld	r25, 7
    128e:	08 95       	ret

00001290 <.L_div>:
    1290:	e1 e0       	ldi	r30, 0x01	; 1

00001292 <.L_div1>:
    1292:	66 0f       	add	r22, r22
    1294:	77 1f       	adc	r23, r23
    1296:	88 1f       	adc	r24, r24
    1298:	bb 1f       	adc	r27, r27
    129a:	62 17       	cp	r22, r18
    129c:	73 07       	cpc	r23, r19
    129e:	84 07       	cpc	r24, r20
    12a0:	ba 07       	cpc	r27, r26
    12a2:	20 f0       	brcs	.+8      	; 0x12ac <.L2^B2>
    12a4:	62 1b       	sub	r22, r18
    12a6:	73 0b       	sbc	r23, r19
    12a8:	84 0b       	sbc	r24, r20
    12aa:	ba 0b       	sbc	r27, r26

000012ac <.L2^B2>:
    12ac:	ee 1f       	adc	r30, r30
    12ae:	88 f7       	brcc	.-30     	; 0x1292 <.L_div1>
    12b0:	e0 95       	com	r30
    12b2:	08 95       	ret

000012b4 <floorf>:
    12b4:	0e 94 4a 0a 	call	0x1494	; 0x1494 <__fp_trunc>
    12b8:	90 f0       	brcs	.+36     	; 0x12de <.L_nf>
    12ba:	9f 37       	cpi	r25, 0x7F	; 127
    12bc:	48 f4       	brcc	.+18     	; 0x12d0 <.L2^B1>
    12be:	91 11       	cpse	r25, r1
    12c0:	16 f0       	brts	.+4      	; 0x12c6 <.L1^B1>
    12c2:	0c 94 63 0a 	jmp	0x14c6	; 0x14c6 <__fp_szero>

000012c6 <.L1^B1>:
    12c6:	60 e0       	ldi	r22, 0x00	; 0
    12c8:	70 e0       	ldi	r23, 0x00	; 0
    12ca:	80 e8       	ldi	r24, 0x80	; 128
    12cc:	9f eb       	ldi	r25, 0xBF	; 191
    12ce:	08 95       	ret

000012d0 <.L2^B1>:
    12d0:	26 f4       	brtc	.+8      	; 0x12da <.L3^B1>
    12d2:	1b 16       	cp	r1, r27
    12d4:	61 1d       	adc	r22, r1
    12d6:	71 1d       	adc	r23, r1
    12d8:	81 1d       	adc	r24, r1

000012da <.L3^B1>:
    12da:	0c 94 77 09 	jmp	0x12ee	; 0x12ee <__fp_mintl>

000012de <.L_nf>:
    12de:	0c 94 92 09 	jmp	0x1324	; 0x1324 <__fp_mpack>

000012e2 <__fp_inf>:
    12e2:	97 f9       	bld	r25, 7
    12e4:	9f 67       	ori	r25, 0x7F	; 127
    12e6:	80 e8       	ldi	r24, 0x80	; 128
    12e8:	70 e0       	ldi	r23, 0x00	; 0
    12ea:	60 e0       	ldi	r22, 0x00	; 0
    12ec:	08 95       	ret

000012ee <__fp_mintl>:
    12ee:	88 23       	and	r24, r24
    12f0:	71 f4       	brne	.+28     	; 0x130e <.L_bm>
    12f2:	77 23       	and	r23, r23
    12f4:	21 f0       	breq	.+8      	; 0x12fe <.L1^B1>
    12f6:	98 50       	subi	r25, 0x08	; 8
    12f8:	87 2b       	or	r24, r23
    12fa:	76 2f       	mov	r23, r22
    12fc:	07 c0       	rjmp	.+14     	; 0x130c <.L_a0>

000012fe <.L1^B1>:
    12fe:	66 23       	and	r22, r22
    1300:	11 f4       	brne	.+4      	; 0x1306 <.L2^B1>
    1302:	99 27       	eor	r25, r25
    1304:	0d c0       	rjmp	.+26     	; 0x1320 <.L_sign>

00001306 <.L2^B1>:
    1306:	90 51       	subi	r25, 0x10	; 16
    1308:	86 2b       	or	r24, r22
    130a:	70 e0       	ldi	r23, 0x00	; 0

0000130c <.L_a0>:
    130c:	60 e0       	ldi	r22, 0x00	; 0

0000130e <.L_bm>:
    130e:	2a f0       	brmi	.+10     	; 0x131a <.L_pack>

00001310 <.Loop>:
    1310:	9a 95       	dec	r25
    1312:	66 0f       	add	r22, r22
    1314:	77 1f       	adc	r23, r23
    1316:	88 1f       	adc	r24, r24
    1318:	da f7       	brpl	.-10     	; 0x1310 <.Loop>

0000131a <.L_pack>:
    131a:	88 0f       	add	r24, r24
    131c:	96 95       	lsr	r25
    131e:	87 95       	ror	r24

00001320 <.L_sign>:
    1320:	97 f9       	bld	r25, 7
    1322:	08 95       	ret

00001324 <__fp_mpack>:
    1324:	9f 3f       	cpi	r25, 0xFF	; 255
    1326:	31 f0       	breq	.+12     	; 0x1334 <.L1^B1>

00001328 <__fp_mpack_finite>:
    1328:	91 50       	subi	r25, 0x01	; 1
    132a:	20 f4       	brcc	.+8      	; 0x1334 <.L1^B1>
    132c:	87 95       	ror	r24
    132e:	77 95       	ror	r23
    1330:	67 95       	ror	r22
    1332:	b7 95       	ror	r27

00001334 <.L1^B1>:
    1334:	88 0f       	add	r24, r24
    1336:	91 1d       	adc	r25, r1
    1338:	96 95       	lsr	r25
    133a:	87 95       	ror	r24
    133c:	97 f9       	bld	r25, 7
    133e:	08 95       	ret

00001340 <__fp_nan>:
    1340:	9f ef       	ldi	r25, 0xFF	; 255
    1342:	80 ec       	ldi	r24, 0xC0	; 192
    1344:	08 95       	ret

00001346 <__fp_powser>:
    1346:	df 93       	push	r29
    1348:	cf 93       	push	r28
    134a:	1f 93       	push	r17
    134c:	0f 93       	push	r16
    134e:	ff 92       	push	r15
    1350:	ef 92       	push	r14
    1352:	df 92       	push	r13
    1354:	7b 01       	movw	r14, r22
    1356:	8c 01       	movw	r16, r24
    1358:	68 94       	set
    135a:	06 c0       	rjmp	.+12     	; 0x1368 <.Load5>

0000135c <.L1^B1>:
    135c:	da 2e       	mov	r13, r26

0000135e <.Loop>:
    135e:	ef 01       	movw	r28, r30
    1360:	0e 94 03 0b 	call	0x1606	; 0x1606 <__mulsf3x>
    1364:	fe 01       	movw	r30, r28
    1366:	e8 94       	clt

00001368 <.Load5>:
    1368:	a5 91       	lpm	r26, Z+
    136a:	25 91       	lpm	r18, Z+
    136c:	35 91       	lpm	r19, Z+
    136e:	45 91       	lpm	r20, Z+
    1370:	55 91       	lpm	r21, Z+
    1372:	a6 f3       	brts	.-24     	; 0x135c <.L1^B1>
    1374:	ef 01       	movw	r28, r30
    1376:	0e 94 eb 0b 	call	0x17d6	; 0x17d6 <__addsf3x>
    137a:	fe 01       	movw	r30, r28
    137c:	97 01       	movw	r18, r14
    137e:	a8 01       	movw	r20, r16
    1380:	da 94       	dec	r13
    1382:	69 f7       	brne	.-38     	; 0x135e <.Loop>
    1384:	df 90       	pop	r13
    1386:	ef 90       	pop	r14
    1388:	ff 90       	pop	r15
    138a:	0f 91       	pop	r16
    138c:	1f 91       	pop	r17
    138e:	cf 91       	pop	r28
    1390:	df 91       	pop	r29
    1392:	08 95       	ret

00001394 <__fp_pscA>:
    1394:	00 24       	eor	r0, r0
    1396:	0a 94       	dec	r0
    1398:	16 16       	cp	r1, r22
    139a:	17 06       	cpc	r1, r23
    139c:	18 06       	cpc	r1, r24
    139e:	09 06       	cpc	r0, r25
    13a0:	08 95       	ret

000013a2 <__fp_pscB>:
    13a2:	00 24       	eor	r0, r0
    13a4:	0a 94       	dec	r0
    13a6:	12 16       	cp	r1, r18
    13a8:	13 06       	cpc	r1, r19
    13aa:	14 06       	cpc	r1, r20
    13ac:	05 06       	cpc	r0, r21
    13ae:	08 95       	ret

000013b0 <.L0^B1>:
    13b0:	0c 94 a0 09 	jmp	0x1340	; 0x1340 <__fp_nan>

000013b4 <__fp_rempio2>:
    13b4:	0e 94 30 0a 	call	0x1460	; 0x1460 <__fp_splitA>
    13b8:	d8 f3       	brcs	.-10     	; 0x13b0 <.L0^B1>
    13ba:	e8 94       	clt
    13bc:	e0 e0       	ldi	r30, 0x00	; 0
    13be:	bb 27       	eor	r27, r27
    13c0:	9f 57       	subi	r25, 0x7F	; 127
    13c2:	f0 f0       	brcs	.+60     	; 0x1400 <.L5^B1>
    13c4:	2a ed       	ldi	r18, 0xDA	; 218
    13c6:	3f e0       	ldi	r19, 0x0F	; 15
    13c8:	49 ec       	ldi	r20, 0xC9	; 201
    13ca:	06 c0       	rjmp	.+12     	; 0x13d8 <.L1^B1>

000013cc <.Loop>:
    13cc:	ee 0f       	add	r30, r30
    13ce:	bb 0f       	add	r27, r27
    13d0:	66 1f       	adc	r22, r22
    13d2:	77 1f       	adc	r23, r23
    13d4:	88 1f       	adc	r24, r24
    13d6:	28 f0       	brcs	.+10     	; 0x13e2 <.L2^B1>

000013d8 <.L1^B1>:
    13d8:	b2 3a       	cpi	r27, 0xA2	; 162
    13da:	62 07       	cpc	r22, r18
    13dc:	73 07       	cpc	r23, r19
    13de:	84 07       	cpc	r24, r20
    13e0:	28 f0       	brcs	.+10     	; 0x13ec <.L3^B1>

000013e2 <.L2^B1>:
    13e2:	b2 5a       	subi	r27, 0xA2	; 162
    13e4:	62 0b       	sbc	r22, r18
    13e6:	73 0b       	sbc	r23, r19
    13e8:	84 0b       	sbc	r24, r20
    13ea:	e3 95       	inc	r30

000013ec <.L3^B1>:
    13ec:	9a 95       	dec	r25
    13ee:	72 f7       	brpl	.-36     	; 0x13cc <.Loop>
    13f0:	80 38       	cpi	r24, 0x80	; 128
    13f2:	30 f4       	brcc	.+12     	; 0x1400 <.L5^B1>

000013f4 <.L4^B1>:
    13f4:	9a 95       	dec	r25
    13f6:	bb 0f       	add	r27, r27
    13f8:	66 1f       	adc	r22, r22
    13fa:	77 1f       	adc	r23, r23
    13fc:	88 1f       	adc	r24, r24
    13fe:	d2 f7       	brpl	.-12     	; 0x13f4 <.L4^B1>

00001400 <.L5^B1>:
    1400:	90 48       	sbci	r25, 0x80	; 128
    1402:	0c 94 94 09 	jmp	0x1328	; 0x1328 <__fp_mpack_finite>

00001406 <__fp_round>:
    1406:	09 2e       	mov	r0, r25
    1408:	03 94       	inc	r0
    140a:	00 0c       	add	r0, r0
    140c:	11 f4       	brne	.+4      	; 0x1412 <.L1^B1>
    140e:	88 23       	and	r24, r24
    1410:	52 f0       	brmi	.+20     	; 0x1426 <.L3^B1>

00001412 <.L1^B1>:
    1412:	bb 0f       	add	r27, r27
    1414:	40 f4       	brcc	.+16     	; 0x1426 <.L3^B1>
    1416:	bf 2b       	or	r27, r31
    1418:	11 f4       	brne	.+4      	; 0x141e <.L2^B1>
    141a:	60 ff       	sbrs	r22, 0
    141c:	04 c0       	rjmp	.+8      	; 0x1426 <.L3^B1>

0000141e <.L2^B1>:
    141e:	6f 5f       	subi	r22, 0xFF	; 255
    1420:	7f 4f       	sbci	r23, 0xFF	; 255
    1422:	8f 4f       	sbci	r24, 0xFF	; 255
    1424:	9f 4f       	sbci	r25, 0xFF	; 255

00001426 <.L3^B1>:
    1426:	08 95       	ret

00001428 <__fp_sinus>:
    1428:	ef 93       	push	r30
    142a:	e0 ff       	sbrs	r30, 0
    142c:	07 c0       	rjmp	.+14     	; 0x143c <.L1^B1>
    142e:	a2 ea       	ldi	r26, 0xA2	; 162
    1430:	2a ed       	ldi	r18, 0xDA	; 218
    1432:	3f e0       	ldi	r19, 0x0F	; 15
    1434:	49 ec       	ldi	r20, 0xC9	; 201
    1436:	5f eb       	ldi	r21, 0xBF	; 191
    1438:	0e 94 eb 0b 	call	0x17d6	; 0x17d6 <__addsf3x>

0000143c <.L1^B1>:
    143c:	0e 94 03 0a 	call	0x1406	; 0x1406 <__fp_round>
    1440:	0f 90       	pop	r0
    1442:	03 94       	inc	r0
    1444:	01 fc       	sbrc	r0, 1
    1446:	90 58       	subi	r25, 0x80	; 128
    1448:	e3 e1       	ldi	r30, 0x13	; 19
    144a:	fe e1       	ldi	r31, 0x1E	; 30
    144c:	0c 94 88 0c 	jmp	0x1910	; 0x1910 <__fp_powsodd>

00001450 <__fp_split3>:
    1450:	57 fd       	sbrc	r21, 7
    1452:	90 58       	subi	r25, 0x80	; 128
    1454:	44 0f       	add	r20, r20
    1456:	55 1f       	adc	r21, r21
    1458:	59 f0       	breq	.+22     	; 0x1470 <.L4^B1>
    145a:	5f 3f       	cpi	r21, 0xFF	; 255
    145c:	71 f0       	breq	.+28     	; 0x147a <.L5^B1>

0000145e <.L1^B1>:
    145e:	47 95       	ror	r20

00001460 <__fp_splitA>:
    1460:	88 0f       	add	r24, r24
    1462:	97 fb       	bst	r25, 7
    1464:	99 1f       	adc	r25, r25
    1466:	61 f0       	breq	.+24     	; 0x1480 <.L6^B1>
    1468:	9f 3f       	cpi	r25, 0xFF	; 255
    146a:	79 f0       	breq	.+30     	; 0x148a <.L7^B1>

0000146c <.L3^B1>:
    146c:	87 95       	ror	r24
    146e:	08 95       	ret

00001470 <.L4^B1>:
    1470:	12 16       	cp	r1, r18
    1472:	13 06       	cpc	r1, r19
    1474:	14 06       	cpc	r1, r20
    1476:	55 1f       	adc	r21, r21
    1478:	f2 cf       	rjmp	.-28     	; 0x145e <.L1^B1>

0000147a <.L5^B1>:
    147a:	46 95       	lsr	r20
    147c:	f1 df       	rcall	.-30     	; 0x1460 <__fp_splitA>
    147e:	08 c0       	rjmp	.+16     	; 0x1490 <.L8^B1>

00001480 <.L6^B1>:
    1480:	16 16       	cp	r1, r22
    1482:	17 06       	cpc	r1, r23
    1484:	18 06       	cpc	r1, r24
    1486:	99 1f       	adc	r25, r25
    1488:	f1 cf       	rjmp	.-30     	; 0x146c <.L3^B1>

0000148a <.L7^B1>:
    148a:	86 95       	lsr	r24
    148c:	71 05       	cpc	r23, r1
    148e:	61 05       	cpc	r22, r1

00001490 <.L8^B1>:
    1490:	08 94       	sec
    1492:	08 95       	ret

00001494 <__fp_trunc>:
    1494:	0e 94 30 0a 	call	0x1460	; 0x1460 <__fp_splitA>
    1498:	a0 f0       	brcs	.+40     	; 0x14c2 <.L9^B1>
    149a:	be e7       	ldi	r27, 0x7E	; 126
    149c:	b9 17       	cp	r27, r25
    149e:	88 f4       	brcc	.+34     	; 0x14c2 <.L9^B1>
    14a0:	bb 27       	eor	r27, r27

000014a2 <.L3^B1>:
    14a2:	9f 38       	cpi	r25, 0x8F	; 143
    14a4:	60 f4       	brcc	.+24     	; 0x14be <.L5^B1>
    14a6:	16 16       	cp	r1, r22
    14a8:	b1 1d       	adc	r27, r1
    14aa:	67 2f       	mov	r22, r23
    14ac:	78 2f       	mov	r23, r24
    14ae:	88 27       	eor	r24, r24
    14b0:	98 5f       	subi	r25, 0xF8	; 248
    14b2:	f7 cf       	rjmp	.-18     	; 0x14a2 <.L3^B1>

000014b4 <.L4^B1>:
    14b4:	86 95       	lsr	r24
    14b6:	77 95       	ror	r23
    14b8:	67 95       	ror	r22
    14ba:	b1 1d       	adc	r27, r1
    14bc:	93 95       	inc	r25

000014be <.L5^B1>:
    14be:	96 39       	cpi	r25, 0x96	; 150
    14c0:	c8 f3       	brcs	.-14     	; 0x14b4 <.L4^B1>

000014c2 <.L9^B1>:
    14c2:	08 95       	ret

000014c4 <__fp_zero>:
    14c4:	e8 94       	clt

000014c6 <__fp_szero>:
    14c6:	bb 27       	eor	r27, r27
    14c8:	66 27       	eor	r22, r22
    14ca:	77 27       	eor	r23, r23
    14cc:	cb 01       	movw	r24, r22
    14ce:	97 f9       	bld	r25, 7
    14d0:	08 95       	ret

000014d2 <__inversef>:
    14d2:	9b 01       	movw	r18, r22
    14d4:	ac 01       	movw	r20, r24
    14d6:	60 e0       	ldi	r22, 0x00	; 0
    14d8:	70 e0       	ldi	r23, 0x00	; 0
    14da:	80 e8       	ldi	r24, 0x80	; 128
    14dc:	9f e3       	ldi	r25, 0x3F	; 63
    14de:	0c 94 40 0c 	jmp	0x1880	; 0x1880 <__divsf3>

000014e2 <.L_nf>:
    14e2:	16 f0       	brts	.+4      	; 0x14e8 <.L_nan>
    14e4:	0c 94 92 09 	jmp	0x1324	; 0x1324 <__fp_mpack>

000014e8 <.L_nan>:
    14e8:	0c 94 a0 09 	jmp	0x1340	; 0x1340 <__fp_nan>

000014ec <.L_min>:
    14ec:	68 94       	set
    14ee:	0c 94 71 09 	jmp	0x12e2	; 0x12e2 <__fp_inf>

000014f2 <logf>:
    14f2:	0e 94 30 0a 	call	0x1460	; 0x1460 <__fp_splitA>
    14f6:	a8 f3       	brcs	.-22     	; 0x14e2 <.L_nf>
    14f8:	99 23       	and	r25, r25
    14fa:	c1 f3       	breq	.-16     	; 0x14ec <.L_min>
    14fc:	ae f3       	brts	.-22     	; 0x14e8 <.L_nan>
    14fe:	df 93       	push	r29
    1500:	cf 93       	push	r28
    1502:	1f 93       	push	r17
    1504:	0f 93       	push	r16
    1506:	ff 92       	push	r15
    1508:	c9 2f       	mov	r28, r25
    150a:	dd 27       	eor	r29, r29
    150c:	88 23       	and	r24, r24
    150e:	2a f0       	brmi	.+10     	; 0x151a <.L2^B1>

00001510 <.L1^B1>:
    1510:	21 97       	sbiw	r28, 0x01	; 1
    1512:	66 0f       	add	r22, r22
    1514:	77 1f       	adc	r23, r23
    1516:	88 1f       	adc	r24, r24
    1518:	da f7       	brpl	.-10     	; 0x1510 <.L1^B1>

0000151a <.L2^B1>:
    151a:	20 e0       	ldi	r18, 0x00	; 0
    151c:	30 e0       	ldi	r19, 0x00	; 0
    151e:	40 e8       	ldi	r20, 0x80	; 128
    1520:	5f eb       	ldi	r21, 0xBF	; 191
    1522:	9f e3       	ldi	r25, 0x3F	; 63
    1524:	88 39       	cpi	r24, 0x98	; 152
    1526:	20 f0       	brcs	.+8      	; 0x1530 <.L3^B1>
    1528:	80 3e       	cpi	r24, 0xE0	; 224
    152a:	38 f0       	brcs	.+14     	; 0x153a <.L4^B1>
    152c:	21 96       	adiw	r28, 0x01	; 1
    152e:	8f 77       	andi	r24, 0x7F	; 127

00001530 <.L3^B1>:
    1530:	0e 94 d4 0b 	call	0x17a8	; 0x17a8 <__addsf3>
    1534:	e1 e3       	ldi	r30, 0x31	; 49
    1536:	fe e1       	ldi	r31, 0x1E	; 30
    1538:	04 c0       	rjmp	.+8      	; 0x1542 <.L5^B1>

0000153a <.L4^B1>:
    153a:	0e 94 d4 0b 	call	0x17a8	; 0x17a8 <__addsf3>
    153e:	ee e5       	ldi	r30, 0x5E	; 94
    1540:	fe e1       	ldi	r31, 0x1E	; 30

00001542 <.L5^B1>:
    1542:	0e 94 a3 09 	call	0x1346	; 0x1346 <__fp_powser>
    1546:	8b 01       	movw	r16, r22
    1548:	be 01       	movw	r22, r28
    154a:	ec 01       	movw	r28, r24
    154c:	fb 2e       	mov	r15, r27
    154e:	6f 57       	subi	r22, 0x7F	; 127
    1550:	71 09       	sbc	r23, r1
    1552:	75 95       	asr	r23
    1554:	77 1f       	adc	r23, r23
    1556:	88 0b       	sbc	r24, r24
    1558:	99 0b       	sbc	r25, r25
    155a:	0e 94 46 0c 	call	0x188c	; 0x188c <__floatsisf>
    155e:	28 e1       	ldi	r18, 0x18	; 24
    1560:	32 e7       	ldi	r19, 0x72	; 114
    1562:	41 e3       	ldi	r20, 0x31	; 49
    1564:	5f e3       	ldi	r21, 0x3F	; 63
    1566:	0e 94 03 0b 	call	0x1606	; 0x1606 <__mulsf3x>
    156a:	af 2d       	mov	r26, r15
    156c:	98 01       	movw	r18, r16
    156e:	ae 01       	movw	r20, r28
    1570:	ff 90       	pop	r15
    1572:	0f 91       	pop	r16
    1574:	1f 91       	pop	r17
    1576:	cf 91       	pop	r28
    1578:	df 91       	pop	r29
    157a:	0e 94 eb 0b 	call	0x17d6	; 0x17d6 <__addsf3x>
    157e:	0c 94 03 0a 	jmp	0x1406	; 0x1406 <__fp_round>

00001582 <lroundf>:
    1582:	0e 94 30 0a 	call	0x1460	; 0x1460 <__fp_splitA>
    1586:	58 f1       	brcs	.+86     	; 0x15de <.L_err>
    1588:	9e 57       	subi	r25, 0x7E	; 126
    158a:	60 f1       	brcs	.+88     	; 0x15e4 <.L_zr>
    158c:	98 51       	subi	r25, 0x18	; 24
    158e:	a0 f0       	brcs	.+40     	; 0x15b8 <.L2^B1>
    1590:	e9 f0       	breq	.+58     	; 0x15cc <.L_sign>
    1592:	98 30       	cpi	r25, 0x08	; 8
    1594:	20 f5       	brcc	.+72     	; 0x15de <.L_err>
    1596:	09 2e       	mov	r0, r25
    1598:	99 27       	eor	r25, r25

0000159a <.L1^B1>:
    159a:	66 0f       	add	r22, r22
    159c:	77 1f       	adc	r23, r23
    159e:	88 1f       	adc	r24, r24
    15a0:	99 1f       	adc	r25, r25
    15a2:	0a 94       	dec	r0
    15a4:	d1 f7       	brne	.-12     	; 0x159a <.L1^B1>
    15a6:	12 c0       	rjmp	.+36     	; 0x15cc <.L_sign>

000015a8 <.L5^B1>:
    15a8:	06 2e       	mov	r0, r22
    15aa:	67 2f       	mov	r22, r23
    15ac:	78 2f       	mov	r23, r24
    15ae:	88 27       	eor	r24, r24
    15b0:	98 5f       	subi	r25, 0xF8	; 248
    15b2:	11 f4       	brne	.+4      	; 0x15b8 <.L2^B1>
    15b4:	00 0c       	add	r0, r0
    15b6:	07 c0       	rjmp	.+14     	; 0x15c6 <.L4^B1>

000015b8 <.L2^B1>:
    15b8:	99 3f       	cpi	r25, 0xF9	; 249
    15ba:	b4 f3       	brlt	.-20     	; 0x15a8 <.L5^B1>

000015bc <.L3^B1>:
    15bc:	86 95       	lsr	r24
    15be:	77 95       	ror	r23
    15c0:	67 95       	ror	r22
    15c2:	93 95       	inc	r25
    15c4:	d9 f7       	brne	.-10     	; 0x15bc <.L3^B1>

000015c6 <.L4^B1>:
    15c6:	61 1d       	adc	r22, r1
    15c8:	71 1d       	adc	r23, r1
    15ca:	81 1d       	adc	r24, r1

000015cc <.L_sign>:
    15cc:	3e f4       	brtc	.+14     	; 0x15dc <.L6^B1>
    15ce:	90 95       	com	r25
    15d0:	80 95       	com	r24
    15d2:	70 95       	com	r23
    15d4:	61 95       	neg	r22
    15d6:	7f 4f       	sbci	r23, 0xFF	; 255
    15d8:	8f 4f       	sbci	r24, 0xFF	; 255
    15da:	9f 4f       	sbci	r25, 0xFF	; 255

000015dc <.L6^B1>:
    15dc:	08 95       	ret

000015de <.L_err>:
    15de:	68 94       	set
    15e0:	0c 94 63 0a 	jmp	0x14c6	; 0x14c6 <__fp_szero>

000015e4 <.L_zr>:
    15e4:	0c 94 62 0a 	jmp	0x14c4	; 0x14c4 <__fp_zero>

000015e8 <.L0^B1>:
    15e8:	0e 94 ca 09 	call	0x1394	; 0x1394 <__fp_pscA>
    15ec:	38 f0       	brcs	.+14     	; 0x15fc <.L1^B1>
    15ee:	0e 94 d1 09 	call	0x13a2	; 0x13a2 <__fp_pscB>
    15f2:	20 f0       	brcs	.+8      	; 0x15fc <.L1^B1>
    15f4:	95 23       	and	r25, r21
    15f6:	11 f0       	breq	.+4      	; 0x15fc <.L1^B1>
    15f8:	0c 94 71 09 	jmp	0x12e2	; 0x12e2 <__fp_inf>

000015fc <.L1^B1>:
    15fc:	0c 94 a0 09 	jmp	0x1340	; 0x1340 <__fp_nan>

00001600 <.L2^B1>:
    1600:	11 24       	eor	r1, r1
    1602:	0c 94 63 0a 	jmp	0x14c6	; 0x14c6 <__fp_szero>

00001606 <__mulsf3x>:
    1606:	0e 94 28 0a 	call	0x1450	; 0x1450 <__fp_split3>
    160a:	70 f3       	brcs	.-36     	; 0x15e8 <.L0^B1>

0000160c <__mulsf3_pse>:
    160c:	95 9f       	mul	r25, r21
    160e:	c1 f3       	breq	.-16     	; 0x1600 <.L2^B1>
    1610:	95 0f       	add	r25, r21
    1612:	50 e0       	ldi	r21, 0x00	; 0
    1614:	55 1f       	adc	r21, r21
    1616:	62 9f       	mul	r22, r18
    1618:	f0 01       	movw	r30, r0
    161a:	72 9f       	mul	r23, r18
    161c:	bb 27       	eor	r27, r27
    161e:	f0 0d       	add	r31, r0
    1620:	b1 1d       	adc	r27, r1
    1622:	63 9f       	mul	r22, r19
    1624:	aa 27       	eor	r26, r26
    1626:	f0 0d       	add	r31, r0
    1628:	b1 1d       	adc	r27, r1
    162a:	aa 1f       	adc	r26, r26
    162c:	64 9f       	mul	r22, r20
    162e:	66 27       	eor	r22, r22
    1630:	b0 0d       	add	r27, r0
    1632:	a1 1d       	adc	r26, r1
    1634:	66 1f       	adc	r22, r22
    1636:	82 9f       	mul	r24, r18
    1638:	22 27       	eor	r18, r18
    163a:	b0 0d       	add	r27, r0
    163c:	a1 1d       	adc	r26, r1
    163e:	62 1f       	adc	r22, r18
    1640:	73 9f       	mul	r23, r19
    1642:	b0 0d       	add	r27, r0
    1644:	a1 1d       	adc	r26, r1
    1646:	62 1f       	adc	r22, r18
    1648:	83 9f       	mul	r24, r19
    164a:	a0 0d       	add	r26, r0
    164c:	61 1d       	adc	r22, r1
    164e:	22 1f       	adc	r18, r18
    1650:	74 9f       	mul	r23, r20
    1652:	33 27       	eor	r19, r19
    1654:	a0 0d       	add	r26, r0
    1656:	61 1d       	adc	r22, r1
    1658:	23 1f       	adc	r18, r19
    165a:	84 9f       	mul	r24, r20
    165c:	60 0d       	add	r22, r0
    165e:	21 1d       	adc	r18, r1
    1660:	82 2f       	mov	r24, r18
    1662:	76 2f       	mov	r23, r22
    1664:	6a 2f       	mov	r22, r26
    1666:	11 24       	eor	r1, r1
    1668:	9f 57       	subi	r25, 0x7F	; 127
    166a:	50 40       	sbci	r21, 0x00	; 0
    166c:	9a f0       	brmi	.+38     	; 0x1694 <.L13^B1>
    166e:	f1 f0       	breq	.+60     	; 0x16ac <.L15^B1>

00001670 <.L10^B1>:
    1670:	88 23       	and	r24, r24
    1672:	4a f0       	brmi	.+18     	; 0x1686 <.L11^B1>
    1674:	ee 0f       	add	r30, r30
    1676:	ff 1f       	adc	r31, r31
    1678:	bb 1f       	adc	r27, r27
    167a:	66 1f       	adc	r22, r22
    167c:	77 1f       	adc	r23, r23
    167e:	88 1f       	adc	r24, r24
    1680:	91 50       	subi	r25, 0x01	; 1
    1682:	50 40       	sbci	r21, 0x00	; 0
    1684:	a9 f7       	brne	.-22     	; 0x1670 <.L10^B1>

00001686 <.L11^B1>:
    1686:	9e 3f       	cpi	r25, 0xFE	; 254
    1688:	51 05       	cpc	r21, r1
    168a:	80 f0       	brcs	.+32     	; 0x16ac <.L15^B1>
    168c:	0c 94 71 09 	jmp	0x12e2	; 0x12e2 <__fp_inf>

00001690 <.L12^B1>:
    1690:	0c 94 63 0a 	jmp	0x14c6	; 0x14c6 <__fp_szero>

00001694 <.L13^B1>:
    1694:	5f 3f       	cpi	r21, 0xFF	; 255
    1696:	e4 f3       	brlt	.-8      	; 0x1690 <.L12^B1>
    1698:	98 3e       	cpi	r25, 0xE8	; 232
    169a:	d4 f3       	brlt	.-12     	; 0x1690 <.L12^B1>

0000169c <.L14^B1>:
    169c:	86 95       	lsr	r24
    169e:	77 95       	ror	r23
    16a0:	67 95       	ror	r22
    16a2:	b7 95       	ror	r27
    16a4:	f7 95       	ror	r31
    16a6:	e7 95       	ror	r30
    16a8:	9f 5f       	subi	r25, 0xFF	; 255
    16aa:	c1 f7       	brne	.-16     	; 0x169c <.L14^B1>

000016ac <.L15^B1>:
    16ac:	fe 2b       	or	r31, r30
    16ae:	88 0f       	add	r24, r24
    16b0:	91 1d       	adc	r25, r1
    16b2:	96 95       	lsr	r25
    16b4:	87 95       	ror	r24
    16b6:	97 f9       	bld	r25, 7
    16b8:	08 95       	ret

000016ba <roundf>:
    16ba:	0e 94 30 0a 	call	0x1460	; 0x1460 <__fp_splitA>
    16be:	e8 f0       	brcs	.+58     	; 0x16fa <.L_nf>
    16c0:	9e 37       	cpi	r25, 0x7E	; 126
    16c2:	e8 f0       	brcs	.+58     	; 0x16fe <.L_zr>
    16c4:	96 39       	cpi	r25, 0x96	; 150
    16c6:	b8 f4       	brcc	.+46     	; 0x16f6 <.L4^B1>

000016c8 <.L1^B1>:
    16c8:	9e 38       	cpi	r25, 0x8E	; 142
    16ca:	48 f4       	brcc	.+18     	; 0x16de <.L3^B1>
    16cc:	67 2f       	mov	r22, r23
    16ce:	78 2f       	mov	r23, r24
    16d0:	88 27       	eor	r24, r24
    16d2:	98 5f       	subi	r25, 0xF8	; 248
    16d4:	f9 cf       	rjmp	.-14     	; 0x16c8 <.L1^B1>

000016d6 <.L2^B1>:
    16d6:	86 95       	lsr	r24
    16d8:	77 95       	ror	r23
    16da:	67 95       	ror	r22
    16dc:	93 95       	inc	r25

000016de <.L3^B1>:
    16de:	95 39       	cpi	r25, 0x95	; 149
    16e0:	d0 f3       	brcs	.-12     	; 0x16d6 <.L2^B1>
    16e2:	b6 2f       	mov	r27, r22
    16e4:	b1 70       	andi	r27, 0x01	; 1
    16e6:	6b 0f       	add	r22, r27
    16e8:	71 1d       	adc	r23, r1
    16ea:	81 1d       	adc	r24, r1
    16ec:	20 f4       	brcc	.+8      	; 0x16f6 <.L4^B1>
    16ee:	87 95       	ror	r24
    16f0:	77 95       	ror	r23
    16f2:	67 95       	ror	r22
    16f4:	93 95       	inc	r25

000016f6 <.L4^B1>:
    16f6:	0c 94 77 09 	jmp	0x12ee	; 0x12ee <__fp_mintl>

000016fa <.L_nf>:
    16fa:	0c 94 92 09 	jmp	0x1324	; 0x1324 <__fp_mpack>

000016fe <.L_zr>:
    16fe:	0c 94 63 0a 	jmp	0x14c6	; 0x14c6 <__fp_szero>

00001702 <sinf>:
    1702:	9f 93       	push	r25
    1704:	0e 94 da 09 	call	0x13b4	; 0x13b4 <__fp_rempio2>
    1708:	0f 90       	pop	r0
    170a:	07 fc       	sbrc	r0, 7
    170c:	ee 5f       	subi	r30, 0xFE	; 254
    170e:	0c 94 14 0a 	jmp	0x1428	; 0x1428 <__fp_sinus>

00001712 <.L_nf>:
    1712:	19 f4       	brne	.+6      	; 0x171a <.L_pk>
    1714:	16 f4       	brtc	.+4      	; 0x171a <.L_pk>

00001716 <.L_nan>:
    1716:	0c 94 a0 09 	jmp	0x1340	; 0x1340 <__fp_nan>

0000171a <.L_pk>:
    171a:	0c 94 92 09 	jmp	0x1324	; 0x1324 <__fp_mpack>

0000171e <sqrtf>:
    171e:	0e 94 30 0a 	call	0x1460	; 0x1460 <__fp_splitA>
    1722:	b8 f3       	brcs	.-18     	; 0x1712 <.L_nf>
    1724:	99 23       	and	r25, r25
    1726:	c9 f3       	breq	.-14     	; 0x171a <.L_pk>
    1728:	b6 f3       	brts	.-20     	; 0x1716 <.L_nan>
    172a:	9f 57       	subi	r25, 0x7F	; 127
    172c:	55 0b       	sbc	r21, r21
    172e:	87 ff       	sbrs	r24, 7
    1730:	0e 94 81 0c 	call	0x1902	; 0x1902 <__fp_norm2>
    1734:	00 24       	eor	r0, r0
    1736:	a0 e6       	ldi	r26, 0x60	; 96
    1738:	40 ea       	ldi	r20, 0xA0	; 160
    173a:	90 01       	movw	r18, r0
    173c:	80 58       	subi	r24, 0x80	; 128
    173e:	56 95       	lsr	r21
    1740:	97 95       	ror	r25
    1742:	28 f4       	brcc	.+10     	; 0x174e <.L1^B1>
    1744:	80 5c       	subi	r24, 0xC0	; 192

00001746 <.Loop>:
    1746:	66 0f       	add	r22, r22
    1748:	77 1f       	adc	r23, r23
    174a:	88 1f       	adc	r24, r24
    174c:	20 f0       	brcs	.+8      	; 0x1756 <.L2^B1>

0000174e <.L1^B1>:
    174e:	26 17       	cp	r18, r22
    1750:	37 07       	cpc	r19, r23
    1752:	48 07       	cpc	r20, r24
    1754:	30 f4       	brcc	.+12     	; 0x1762 <.L3^B1>

00001756 <.L2^B1>:
    1756:	62 1b       	sub	r22, r18
    1758:	73 0b       	sbc	r23, r19
    175a:	84 0b       	sbc	r24, r20
    175c:	20 29       	or	r18, r0
    175e:	31 29       	or	r19, r1
    1760:	4a 2b       	or	r20, r26

00001762 <.L3^B1>:
    1762:	a6 95       	lsr	r26
    1764:	17 94       	ror	r1
    1766:	07 94       	ror	r0
    1768:	20 25       	eor	r18, r0
    176a:	31 25       	eor	r19, r1
    176c:	4a 27       	eor	r20, r26
    176e:	58 f7       	brcc	.-42     	; 0x1746 <.Loop>

00001770 <.Loop1>:
    1770:	66 0f       	add	r22, r22
    1772:	77 1f       	adc	r23, r23
    1774:	88 1f       	adc	r24, r24
    1776:	20 f0       	brcs	.+8      	; 0x1780 <.L4^B1>
    1778:	26 17       	cp	r18, r22
    177a:	37 07       	cpc	r19, r23
    177c:	48 07       	cpc	r20, r24
    177e:	30 f4       	brcc	.+12     	; 0x178c <.L5^B1>

00001780 <.L4^B1>:
    1780:	62 0b       	sbc	r22, r18
    1782:	73 0b       	sbc	r23, r19
    1784:	84 0b       	sbc	r24, r20
    1786:	20 0d       	add	r18, r0
    1788:	31 1d       	adc	r19, r1
    178a:	41 1d       	adc	r20, r1

0000178c <.L5^B1>:
    178c:	a0 95       	com	r26
    178e:	81 f7       	brne	.-32     	; 0x1770 <.Loop1>
    1790:	b9 01       	movw	r22, r18
    1792:	84 2f       	mov	r24, r20
    1794:	91 58       	subi	r25, 0x81	; 129
    1796:	88 0f       	add	r24, r24
    1798:	96 95       	lsr	r25
    179a:	87 95       	ror	r24
    179c:	08 95       	ret

0000179e <squaref>:
    179e:	9b 01       	movw	r18, r22
    17a0:	ac 01       	movw	r20, r24
    17a2:	0c 94 9c 0c 	jmp	0x1938	; 0x1938 <__mulsf3>

000017a6 <__subsf3>:
    17a6:	50 58       	subi	r21, 0x80	; 128

000017a8 <__addsf3>:
    17a8:	bb 27       	eor	r27, r27
    17aa:	aa 27       	eor	r26, r26
    17ac:	0e 94 eb 0b 	call	0x17d6	; 0x17d6 <__addsf3x>
    17b0:	0c 94 03 0a 	jmp	0x1406	; 0x1406 <__fp_round>

000017b4 <.L0^B1>:
    17b4:	0e 94 ca 09 	call	0x1394	; 0x1394 <__fp_pscA>
    17b8:	38 f0       	brcs	.+14     	; 0x17c8 <.L_nan>
    17ba:	0e 94 d1 09 	call	0x13a2	; 0x13a2 <__fp_pscB>
    17be:	20 f0       	brcs	.+8      	; 0x17c8 <.L_nan>
    17c0:	39 f4       	brne	.+14     	; 0x17d0 <.L_inf>
    17c2:	9f 3f       	cpi	r25, 0xFF	; 255
    17c4:	19 f4       	brne	.+6      	; 0x17cc <.L_infB>
    17c6:	26 f4       	brtc	.+8      	; 0x17d0 <.L_inf>

000017c8 <.L_nan>:
    17c8:	0c 94 a0 09 	jmp	0x1340	; 0x1340 <__fp_nan>

000017cc <.L_infB>:
    17cc:	0e f4       	brtc	.+2      	; 0x17d0 <.L_inf>
    17ce:	e0 95       	com	r30

000017d0 <.L_inf>:
    17d0:	e7 fb       	bst	r30, 7
    17d2:	0c 94 71 09 	jmp	0x12e2	; 0x12e2 <__fp_inf>

000017d6 <__addsf3x>:
    17d6:	e9 2f       	mov	r30, r25
    17d8:	0e 94 28 0a 	call	0x1450	; 0x1450 <__fp_split3>
    17dc:	58 f3       	brcs	.-42     	; 0x17b4 <.L0^B1>
    17de:	ba 17       	cp	r27, r26
    17e0:	62 07       	cpc	r22, r18
    17e2:	73 07       	cpc	r23, r19
    17e4:	84 07       	cpc	r24, r20
    17e6:	95 07       	cpc	r25, r21
    17e8:	20 f0       	brcs	.+8      	; 0x17f2 <.L2^B1>
    17ea:	79 f4       	brne	.+30     	; 0x180a <.L4^B1>
    17ec:	a6 f5       	brtc	.+104    	; 0x1856 <.L_add>
    17ee:	0c 94 62 0a 	jmp	0x14c4	; 0x14c4 <__fp_zero>

000017f2 <.L2^B1>:
    17f2:	0e f4       	brtc	.+2      	; 0x17f6 <.L3^B1>
    17f4:	e0 95       	com	r30

000017f6 <.L3^B1>:
    17f6:	0b 2e       	mov	r0, r27
    17f8:	ba 2f       	mov	r27, r26
    17fa:	a0 2d       	mov	r26, r0
    17fc:	0b 01       	movw	r0, r22
    17fe:	b9 01       	movw	r22, r18
    1800:	90 01       	movw	r18, r0
    1802:	0c 01       	movw	r0, r24
    1804:	ca 01       	movw	r24, r20
    1806:	a0 01       	movw	r20, r0
    1808:	11 24       	eor	r1, r1

0000180a <.L4^B1>:
    180a:	ff 27       	eor	r31, r31
    180c:	59 1b       	sub	r21, r25

0000180e <.L5^B1>:
    180e:	99 f0       	breq	.+38     	; 0x1836 <.L7^B1>
    1810:	59 3f       	cpi	r21, 0xF9	; 249
    1812:	50 f4       	brcc	.+20     	; 0x1828 <.L6^B1>
    1814:	50 3e       	cpi	r21, 0xE0	; 224
    1816:	68 f1       	brcs	.+90     	; 0x1872 <.L_ret>
    1818:	1a 16       	cp	r1, r26
    181a:	f0 40       	sbci	r31, 0x00	; 0
    181c:	a2 2f       	mov	r26, r18
    181e:	23 2f       	mov	r18, r19
    1820:	34 2f       	mov	r19, r20
    1822:	44 27       	eor	r20, r20
    1824:	58 5f       	subi	r21, 0xF8	; 248
    1826:	f3 cf       	rjmp	.-26     	; 0x180e <.L5^B1>

00001828 <.L6^B1>:
    1828:	46 95       	lsr	r20
    182a:	37 95       	ror	r19
    182c:	27 95       	ror	r18
    182e:	a7 95       	ror	r26
    1830:	f0 40       	sbci	r31, 0x00	; 0
    1832:	53 95       	inc	r21
    1834:	c9 f7       	brne	.-14     	; 0x1828 <.L6^B1>

00001836 <.L7^B1>:
    1836:	7e f4       	brtc	.+30     	; 0x1856 <.L_add>
    1838:	1f 16       	cp	r1, r31
    183a:	ba 0b       	sbc	r27, r26
    183c:	62 0b       	sbc	r22, r18
    183e:	73 0b       	sbc	r23, r19
    1840:	84 0b       	sbc	r24, r20
    1842:	ba f0       	brmi	.+46     	; 0x1872 <.L_ret>

00001844 <.L8^B1>:
    1844:	91 50       	subi	r25, 0x01	; 1
    1846:	a1 f0       	breq	.+40     	; 0x1870 <.L9^B1>
    1848:	ff 0f       	add	r31, r31
    184a:	bb 1f       	adc	r27, r27
    184c:	66 1f       	adc	r22, r22
    184e:	77 1f       	adc	r23, r23
    1850:	88 1f       	adc	r24, r24
    1852:	c2 f7       	brpl	.-16     	; 0x1844 <.L8^B1>
    1854:	0e c0       	rjmp	.+28     	; 0x1872 <.L_ret>

00001856 <.L_add>:
    1856:	ba 0f       	add	r27, r26
    1858:	62 1f       	adc	r22, r18
    185a:	73 1f       	adc	r23, r19
    185c:	84 1f       	adc	r24, r20
    185e:	48 f4       	brcc	.+18     	; 0x1872 <.L_ret>
    1860:	87 95       	ror	r24
    1862:	77 95       	ror	r23
    1864:	67 95       	ror	r22
    1866:	b7 95       	ror	r27
    1868:	f7 95       	ror	r31
    186a:	9e 3f       	cpi	r25, 0xFE	; 254
    186c:	08 f0       	brcs	.+2      	; 0x1870 <.L9^B1>
    186e:	b0 cf       	rjmp	.-160    	; 0x17d0 <.L_inf>

00001870 <.L9^B1>:
    1870:	93 95       	inc	r25

00001872 <.L_ret>:
    1872:	88 0f       	add	r24, r24
    1874:	08 f0       	brcs	.+2      	; 0x1878 <.L1^B1>
    1876:	99 27       	eor	r25, r25

00001878 <.L1^B1>:
    1878:	ee 0f       	add	r30, r30
    187a:	97 95       	ror	r25
    187c:	87 95       	ror	r24
    187e:	08 95       	ret

00001880 <__divsf3>:
    1880:	0e 94 fc 08 	call	0x11f8	; 0x11f8 <__divsf3x>
    1884:	0c 94 03 0a 	jmp	0x1406	; 0x1406 <__fp_round>

00001888 <__floatunsisf>:
    1888:	e8 94       	clt
    188a:	09 c0       	rjmp	.+18     	; 0x189e <.L1^B1>

0000188c <__floatsisf>:
    188c:	97 fb       	bst	r25, 7
    188e:	3e f4       	brtc	.+14     	; 0x189e <.L1^B1>
    1890:	90 95       	com	r25
    1892:	80 95       	com	r24
    1894:	70 95       	com	r23
    1896:	61 95       	neg	r22
    1898:	7f 4f       	sbci	r23, 0xFF	; 255
    189a:	8f 4f       	sbci	r24, 0xFF	; 255
    189c:	9f 4f       	sbci	r25, 0xFF	; 255

0000189e <.L1^B1>:
    189e:	99 23       	and	r25, r25
    18a0:	a9 f0       	breq	.+42     	; 0x18cc <.L4^B1>
    18a2:	f9 2f       	mov	r31, r25
    18a4:	96 e9       	ldi	r25, 0x96	; 150
    18a6:	bb 27       	eor	r27, r27

000018a8 <.L2^B1>:
    18a8:	93 95       	inc	r25
    18aa:	f6 95       	lsr	r31
    18ac:	87 95       	ror	r24
    18ae:	77 95       	ror	r23
    18b0:	67 95       	ror	r22
    18b2:	b7 95       	ror	r27
    18b4:	f1 11       	cpse	r31, r1
    18b6:	f8 cf       	rjmp	.-16     	; 0x18a8 <.L2^B1>
    18b8:	fa f4       	brpl	.+62     	; 0x18f8 <.L_pack>
    18ba:	bb 0f       	add	r27, r27
    18bc:	11 f4       	brne	.+4      	; 0x18c2 <.L3^B1>
    18be:	60 ff       	sbrs	r22, 0
    18c0:	1b c0       	rjmp	.+54     	; 0x18f8 <.L_pack>

000018c2 <.L3^B1>:
    18c2:	6f 5f       	subi	r22, 0xFF	; 255
    18c4:	7f 4f       	sbci	r23, 0xFF	; 255
    18c6:	8f 4f       	sbci	r24, 0xFF	; 255
    18c8:	9f 4f       	sbci	r25, 0xFF	; 255
    18ca:	16 c0       	rjmp	.+44     	; 0x18f8 <.L_pack>

000018cc <.L4^B1>:
    18cc:	88 23       	and	r24, r24
    18ce:	11 f0       	breq	.+4      	; 0x18d4 <.L5^B1>
    18d0:	96 e9       	ldi	r25, 0x96	; 150
    18d2:	11 c0       	rjmp	.+34     	; 0x18f6 <.L8^B1>

000018d4 <.L5^B1>:
    18d4:	77 23       	and	r23, r23
    18d6:	21 f0       	breq	.+8      	; 0x18e0 <.L6^B1>
    18d8:	9e e8       	ldi	r25, 0x8E	; 142
    18da:	87 2f       	mov	r24, r23
    18dc:	76 2f       	mov	r23, r22
    18de:	05 c0       	rjmp	.+10     	; 0x18ea <.L7^B1>

000018e0 <.L6^B1>:
    18e0:	66 23       	and	r22, r22
    18e2:	71 f0       	breq	.+28     	; 0x1900 <.L9^B1>
    18e4:	96 e8       	ldi	r25, 0x86	; 134
    18e6:	86 2f       	mov	r24, r22
    18e8:	70 e0       	ldi	r23, 0x00	; 0

000018ea <.L7^B1>:
    18ea:	60 e0       	ldi	r22, 0x00	; 0
    18ec:	2a f0       	brmi	.+10     	; 0x18f8 <.L_pack>

000018ee <.L10^B1>:
    18ee:	9a 95       	dec	r25
    18f0:	66 0f       	add	r22, r22
    18f2:	77 1f       	adc	r23, r23
    18f4:	88 1f       	adc	r24, r24

000018f6 <.L8^B1>:
    18f6:	da f7       	brpl	.-10     	; 0x18ee <.L10^B1>

000018f8 <.L_pack>:
    18f8:	88 0f       	add	r24, r24
    18fa:	96 95       	lsr	r25
    18fc:	87 95       	ror	r24
    18fe:	97 f9       	bld	r25, 7

00001900 <.L9^B1>:
    1900:	08 95       	ret

00001902 <__fp_norm2>:
    1902:	91 50       	subi	r25, 0x01	; 1
    1904:	50 40       	sbci	r21, 0x00	; 0
    1906:	66 0f       	add	r22, r22
    1908:	77 1f       	adc	r23, r23
    190a:	88 1f       	adc	r24, r24
    190c:	d2 f7       	brpl	.-12     	; 0x1902 <__fp_norm2>
    190e:	08 95       	ret

00001910 <__fp_powsodd>:
    1910:	9f 93       	push	r25
    1912:	8f 93       	push	r24
    1914:	7f 93       	push	r23
    1916:	6f 93       	push	r22
    1918:	ff 93       	push	r31
    191a:	ef 93       	push	r30
    191c:	9b 01       	movw	r18, r22
    191e:	ac 01       	movw	r20, r24
    1920:	0e 94 9c 0c 	call	0x1938	; 0x1938 <__mulsf3>
    1924:	ef 91       	pop	r30
    1926:	ff 91       	pop	r31
    1928:	0e 94 a3 09 	call	0x1346	; 0x1346 <__fp_powser>
    192c:	2f 91       	pop	r18
    192e:	3f 91       	pop	r19
    1930:	4f 91       	pop	r20
    1932:	5f 91       	pop	r21
    1934:	0c 94 9c 0c 	jmp	0x1938	; 0x1938 <__mulsf3>

00001938 <__mulsf3>:
    1938:	0e 94 03 0b 	call	0x1606	; 0x1606 <__mulsf3x>
    193c:	0c 94 03 0a 	jmp	0x1406	; 0x1406 <__fp_round>

00001940 <__cmpsf2>:
    1940:	0e 94 db 0c 	call	0x19b6	; 0x19b6 <__fp_cmp>
    1944:	08 f4       	brcc	.+2      	; 0x1948 <.L1^B1>
    1946:	81 e0       	ldi	r24, 0x01	; 1

00001948 <.L1^B1>:
    1948:	08 95       	ret

0000194a <__fixsfsi>:
    194a:	0e 94 ac 0c 	call	0x1958	; 0x1958 <__fixunssfsi>
    194e:	68 94       	set
    1950:	b1 11       	cpse	r27, r1
    1952:	0c 94 63 0a 	jmp	0x14c6	; 0x14c6 <__fp_szero>
    1956:	08 95       	ret

00001958 <__fixunssfsi>:
    1958:	0e 94 30 0a 	call	0x1460	; 0x1460 <__fp_splitA>
    195c:	88 f0       	brcs	.+34     	; 0x1980 <.L_err>
    195e:	9f 57       	subi	r25, 0x7F	; 127
    1960:	98 f0       	brcs	.+38     	; 0x1988 <.L_zr>
    1962:	b9 2f       	mov	r27, r25
    1964:	99 27       	eor	r25, r25
    1966:	b7 51       	subi	r27, 0x17	; 23
    1968:	b0 f0       	brcs	.+44     	; 0x1996 <.L4^B1>
    196a:	e1 f0       	breq	.+56     	; 0x19a4 <.L_sign>

0000196c <.L1^B1>:
    196c:	66 0f       	add	r22, r22
    196e:	77 1f       	adc	r23, r23
    1970:	88 1f       	adc	r24, r24
    1972:	99 1f       	adc	r25, r25
    1974:	1a f0       	brmi	.+6      	; 0x197c <.L2^B1>
    1976:	ba 95       	dec	r27
    1978:	c9 f7       	brne	.-14     	; 0x196c <.L1^B1>
    197a:	14 c0       	rjmp	.+40     	; 0x19a4 <.L_sign>

0000197c <.L2^B1>:
    197c:	b1 30       	cpi	r27, 0x01	; 1
    197e:	91 f0       	breq	.+36     	; 0x19a4 <.L_sign>

00001980 <.L_err>:
    1980:	0e 94 62 0a 	call	0x14c4	; 0x14c4 <__fp_zero>
    1984:	b1 e0       	ldi	r27, 0x01	; 1
    1986:	08 95       	ret

00001988 <.L_zr>:
    1988:	0c 94 62 0a 	jmp	0x14c4	; 0x14c4 <__fp_zero>

0000198c <.L3^B1>:
    198c:	67 2f       	mov	r22, r23
    198e:	78 2f       	mov	r23, r24
    1990:	88 27       	eor	r24, r24
    1992:	b8 5f       	subi	r27, 0xF8	; 248
    1994:	39 f0       	breq	.+14     	; 0x19a4 <.L_sign>

00001996 <.L4^B1>:
    1996:	b9 3f       	cpi	r27, 0xF9	; 249
    1998:	cc f3       	brlt	.-14     	; 0x198c <.L3^B1>

0000199a <.L5^B1>:
    199a:	86 95       	lsr	r24
    199c:	77 95       	ror	r23
    199e:	67 95       	ror	r22
    19a0:	b3 95       	inc	r27
    19a2:	d9 f7       	brne	.-10     	; 0x199a <.L5^B1>

000019a4 <.L_sign>:
    19a4:	3e f4       	brtc	.+14     	; 0x19b4 <.L6^B1>
    19a6:	90 95       	com	r25
    19a8:	80 95       	com	r24
    19aa:	70 95       	com	r23
    19ac:	61 95       	neg	r22
    19ae:	7f 4f       	sbci	r23, 0xFF	; 255
    19b0:	8f 4f       	sbci	r24, 0xFF	; 255
    19b2:	9f 4f       	sbci	r25, 0xFF	; 255

000019b4 <.L6^B1>:
    19b4:	08 95       	ret

000019b6 <__fp_cmp>:
    19b6:	99 0f       	add	r25, r25
    19b8:	00 08       	sbc	r0, r0
    19ba:	55 0f       	add	r21, r21
    19bc:	aa 0b       	sbc	r26, r26
    19be:	e0 e8       	ldi	r30, 0x80	; 128
    19c0:	fe ef       	ldi	r31, 0xFE	; 254
    19c2:	16 16       	cp	r1, r22
    19c4:	17 06       	cpc	r1, r23
    19c6:	e8 07       	cpc	r30, r24
    19c8:	f9 07       	cpc	r31, r25
    19ca:	c0 f0       	brcs	.+48     	; 0x19fc <.L9^B1>
    19cc:	12 16       	cp	r1, r18
    19ce:	13 06       	cpc	r1, r19
    19d0:	e4 07       	cpc	r30, r20
    19d2:	f5 07       	cpc	r31, r21
    19d4:	98 f0       	brcs	.+38     	; 0x19fc <.L9^B1>
    19d6:	62 1b       	sub	r22, r18
    19d8:	73 0b       	sbc	r23, r19
    19da:	84 0b       	sbc	r24, r20
    19dc:	95 0b       	sbc	r25, r21
    19de:	39 f4       	brne	.+14     	; 0x19ee <.L1^B1>
    19e0:	0a 26       	eor	r0, r26
    19e2:	61 f0       	breq	.+24     	; 0x19fc <.L9^B1>
    19e4:	23 2b       	or	r18, r19
    19e6:	24 2b       	or	r18, r20
    19e8:	25 2b       	or	r18, r21
    19ea:	21 f4       	brne	.+8      	; 0x19f4 <.L2^B1>
    19ec:	08 95       	ret

000019ee <.L1^B1>:
    19ee:	0a 26       	eor	r0, r26
    19f0:	09 f4       	brne	.+2      	; 0x19f4 <.L2^B1>
    19f2:	a1 40       	sbci	r26, 0x01	; 1

000019f4 <.L2^B1>:
    19f4:	a6 95       	lsr	r26
    19f6:	8f ef       	ldi	r24, 0xFF	; 255
    19f8:	81 1d       	adc	r24, r1
    19fa:	81 1d       	adc	r24, r1

000019fc <.L9^B1>:
    19fc:	08 95       	ret

000019fe <__gesf2>:
    19fe:	0e 94 db 0c 	call	0x19b6	; 0x19b6 <__fp_cmp>
    1a02:	08 f4       	brcc	.+2      	; 0x1a06 <.L1^B1>
    1a04:	8f ef       	ldi	r24, 0xFF	; 255

00001a06 <.L1^B1>:
    1a06:	08 95       	ret

00001a08 <__umulhisi3>:
    1a08:	a2 9f       	mul	r26, r18

00001a0a <.Loc.1>:
    1a0a:	b0 01       	movw	r22, r0

00001a0c <.Loc.2>:
    1a0c:	b3 9f       	mul	r27, r19

00001a0e <.Loc.3>:
    1a0e:	c0 01       	movw	r24, r0

00001a10 <.Loc.4>:
    1a10:	a3 9f       	mul	r26, r19

00001a12 <.Loc.5>:
    1a12:	70 0d       	add	r23, r0

00001a14 <.Loc.6>:
    1a14:	81 1d       	adc	r24, r1

00001a16 <.Loc.7>:
    1a16:	11 24       	eor	r1, r1

00001a18 <.Loc.8>:
    1a18:	91 1d       	adc	r25, r1

00001a1a <.Loc.9>:
    1a1a:	b2 9f       	mul	r27, r18

00001a1c <.Loc.10>:
    1a1c:	70 0d       	add	r23, r0

00001a1e <.Loc.11>:
    1a1e:	81 1d       	adc	r24, r1

00001a20 <.Loc.12>:
    1a20:	11 24       	eor	r1, r1

00001a22 <.Loc.13>:
    1a22:	91 1d       	adc	r25, r1

00001a24 <.Loc.14>:
    1a24:	08 95       	ret

00001a26 <__udivmodhi4>:
    1a26:	aa 1b       	sub	r26, r26

00001a28 <.Loc.1>:
    1a28:	bb 1b       	sub	r27, r27

00001a2a <.Loc.2>:
    1a2a:	51 e1       	ldi	r21, 0x11	; 17

00001a2c <.Loc.3>:
    1a2c:	07 c0       	rjmp	.+14     	; 0x1a3c <__udivmodhi4_ep>

00001a2e <__udivmodhi4_loop>:
    1a2e:	aa 1f       	adc	r26, r26

00001a30 <.Loc.5>:
    1a30:	bb 1f       	adc	r27, r27

00001a32 <.Loc.6>:
    1a32:	a6 17       	cp	r26, r22

00001a34 <.Loc.7>:
    1a34:	b7 07       	cpc	r27, r23

00001a36 <.Loc.8>:
    1a36:	10 f0       	brcs	.+4      	; 0x1a3c <__udivmodhi4_ep>

00001a38 <.Loc.9>:
    1a38:	a6 1b       	sub	r26, r22

00001a3a <.Loc.10>:
    1a3a:	b7 0b       	sbc	r27, r23

00001a3c <__udivmodhi4_ep>:
    1a3c:	88 1f       	adc	r24, r24

00001a3e <.Loc.12>:
    1a3e:	99 1f       	adc	r25, r25

00001a40 <.Loc.13>:
    1a40:	5a 95       	dec	r21

00001a42 <.Loc.14>:
    1a42:	a9 f7       	brne	.-22     	; 0x1a2e <__udivmodhi4_loop>

00001a44 <.Loc.15>:
    1a44:	80 95       	com	r24

00001a46 <.Loc.16>:
    1a46:	90 95       	com	r25

00001a48 <.Loc.17>:
    1a48:	bc 01       	movw	r22, r24

00001a4a <.Loc.18>:
    1a4a:	cd 01       	movw	r24, r26

00001a4c <.Loc.19>:
    1a4c:	08 95       	ret

00001a4e <__divmodhi4>:
    1a4e:	97 fb       	bst	r25, 7

00001a50 <.Loc.1>:
    1a50:	07 2e       	mov	r0, r23

00001a52 <.Loc.2>:
    1a52:	16 f4       	brtc	.+4      	; 0x1a58 <.L0^B1>

00001a54 <.Loc.3>:
    1a54:	00 94       	com	r0

00001a56 <.Loc.4>:
    1a56:	07 d0       	rcall	.+14     	; 0x1a66 <__divmodhi4_neg1>

00001a58 <.L0^B1>:
    1a58:	77 fd       	sbrc	r23, 7

00001a5a <.Loc.6>:
    1a5a:	09 d0       	rcall	.+18     	; 0x1a6e <__divmodhi4_neg2>

00001a5c <.Loc.7>:
    1a5c:	0e 94 13 0d 	call	0x1a26	; 0x1a26 <__udivmodhi4>

00001a60 <.Loc.8>:
    1a60:	07 fc       	sbrc	r0, 7

00001a62 <.Loc.9>:
    1a62:	05 d0       	rcall	.+10     	; 0x1a6e <__divmodhi4_neg2>

00001a64 <.Loc.10>:
    1a64:	3e f4       	brtc	.+14     	; 0x1a74 <__divmodhi4_exit>

00001a66 <__divmodhi4_neg1>:
    1a66:	90 95       	com	r25

00001a68 <.Loc.12>:
    1a68:	81 95       	neg	r24

00001a6a <.Loc.13>:
    1a6a:	9f 4f       	sbci	r25, 0xFF	; 255

00001a6c <.Loc.14>:
    1a6c:	08 95       	ret

00001a6e <__divmodhi4_neg2>:
    1a6e:	70 95       	com	r23

00001a70 <.Loc.16>:
    1a70:	61 95       	neg	r22

00001a72 <.Loc.17>:
    1a72:	7f 4f       	sbci	r23, 0xFF	; 255

00001a74 <__divmodhi4_exit>:
    1a74:	08 95       	ret

00001a76 <__udivmodsi4>:
    1a76:	a1 e2       	ldi	r26, 0x21	; 33

00001a78 <.Loc.1>:
    1a78:	1a 2e       	mov	r1, r26

00001a7a <.Loc.2>:
    1a7a:	aa 1b       	sub	r26, r26

00001a7c <.Loc.3>:
    1a7c:	bb 1b       	sub	r27, r27

00001a7e <.Loc.4>:
    1a7e:	fd 01       	movw	r30, r26

00001a80 <.Loc.5>:
    1a80:	0d c0       	rjmp	.+26     	; 0x1a9c <__udivmodsi4_ep>

00001a82 <__udivmodsi4_loop>:
    1a82:	aa 1f       	adc	r26, r26

00001a84 <.Loc.7>:
    1a84:	bb 1f       	adc	r27, r27

00001a86 <.Loc.8>:
    1a86:	ee 1f       	adc	r30, r30

00001a88 <.Loc.9>:
    1a88:	ff 1f       	adc	r31, r31

00001a8a <.Loc.10>:
    1a8a:	a2 17       	cp	r26, r18

00001a8c <.Loc.11>:
    1a8c:	b3 07       	cpc	r27, r19

00001a8e <.Loc.12>:
    1a8e:	e4 07       	cpc	r30, r20

00001a90 <.Loc.13>:
    1a90:	f5 07       	cpc	r31, r21

00001a92 <.Loc.14>:
    1a92:	20 f0       	brcs	.+8      	; 0x1a9c <__udivmodsi4_ep>

00001a94 <.Loc.15>:
    1a94:	a2 1b       	sub	r26, r18

00001a96 <.Loc.16>:
    1a96:	b3 0b       	sbc	r27, r19

00001a98 <.Loc.17>:
    1a98:	e4 0b       	sbc	r30, r20

00001a9a <.Loc.18>:
    1a9a:	f5 0b       	sbc	r31, r21

00001a9c <__udivmodsi4_ep>:
    1a9c:	66 1f       	adc	r22, r22

00001a9e <.Loc.20>:
    1a9e:	77 1f       	adc	r23, r23

00001aa0 <.Loc.21>:
    1aa0:	88 1f       	adc	r24, r24

00001aa2 <.Loc.22>:
    1aa2:	99 1f       	adc	r25, r25

00001aa4 <.Loc.23>:
    1aa4:	1a 94       	dec	r1

00001aa6 <.Loc.24>:
    1aa6:	69 f7       	brne	.-38     	; 0x1a82 <__udivmodsi4_loop>

00001aa8 <.Loc.25>:
    1aa8:	60 95       	com	r22

00001aaa <.Loc.26>:
    1aaa:	70 95       	com	r23

00001aac <.Loc.27>:
    1aac:	80 95       	com	r24

00001aae <.Loc.28>:
    1aae:	90 95       	com	r25

00001ab0 <.Loc.29>:
    1ab0:	9b 01       	movw	r18, r22

00001ab2 <.Loc.30>:
    1ab2:	ac 01       	movw	r20, r24

00001ab4 <.Loc.31>:
    1ab4:	bd 01       	movw	r22, r26

00001ab6 <.Loc.32>:
    1ab6:	cf 01       	movw	r24, r30

00001ab8 <.Loc.33>:
    1ab8:	08 95       	ret

00001aba <__divmodsi4>:
    1aba:	05 2e       	mov	r0, r21

00001abc <.Loc.1>:
    1abc:	97 fb       	bst	r25, 7

00001abe <.Loc.2>:
    1abe:	1e f4       	brtc	.+6      	; 0x1ac6 <.L0^B1>

00001ac0 <.Loc.3>:
    1ac0:	00 94       	com	r0

00001ac2 <.Loc.4>:
    1ac2:	0e 94 74 0d 	call	0x1ae8	; 0x1ae8 <__negsi2>

00001ac6 <.L0^B1>:
    1ac6:	57 fd       	sbrc	r21, 7

00001ac8 <.Loc.6>:
    1ac8:	07 d0       	rcall	.+14     	; 0x1ad8 <__divmodsi4_neg2>

00001aca <.Loc.7>:
    1aca:	0e 94 3b 0d 	call	0x1a76	; 0x1a76 <__udivmodsi4>

00001ace <.Loc.8>:
    1ace:	07 fc       	sbrc	r0, 7

00001ad0 <.Loc.9>:
    1ad0:	03 d0       	rcall	.+6      	; 0x1ad8 <__divmodsi4_neg2>

00001ad2 <.Loc.10>:
    1ad2:	4e f4       	brtc	.+18     	; 0x1ae6 <__divmodsi4_exit>

00001ad4 <.Loc.11>:
    1ad4:	0c 94 74 0d 	jmp	0x1ae8	; 0x1ae8 <__negsi2>

00001ad8 <__divmodsi4_neg2>:
    1ad8:	50 95       	com	r21

00001ada <.Loc.13>:
    1ada:	40 95       	com	r20

00001adc <.Loc.14>:
    1adc:	30 95       	com	r19

00001ade <.Loc.15>:
    1ade:	21 95       	neg	r18

00001ae0 <.Loc.16>:
    1ae0:	3f 4f       	sbci	r19, 0xFF	; 255

00001ae2 <.Loc.17>:
    1ae2:	4f 4f       	sbci	r20, 0xFF	; 255

00001ae4 <.Loc.18>:
    1ae4:	5f 4f       	sbci	r21, 0xFF	; 255

00001ae6 <__divmodsi4_exit>:
    1ae6:	08 95       	ret

00001ae8 <__negsi2>:
    1ae8:	90 95       	com	r25
    1aea:	80 95       	com	r24
    1aec:	70 95       	com	r23
    1aee:	61 95       	neg	r22
    1af0:	7f 4f       	sbci	r23, 0xFF	; 255
    1af2:	8f 4f       	sbci	r24, 0xFF	; 255
    1af4:	9f 4f       	sbci	r25, 0xFF	; 255

00001af6 <.Loc.1>:
    1af6:	08 95       	ret

00001af8 <__usmulhisi3>:
    1af8:	0e 94 04 0d 	call	0x1a08	; 0x1a08 <__umulhisi3>

00001afc <__usmulhisi3_tail>:
    1afc:	b7 ff       	sbrs	r27, 7

00001afe <.Loc.2>:
    1afe:	08 95       	ret

00001b00 <.Loc.3>:
    1b00:	82 1b       	sub	r24, r18

00001b02 <.Loc.4>:
    1b02:	93 0b       	sbc	r25, r19

00001b04 <.Loc.5>:
    1b04:	08 95       	ret

00001b06 <__muluhisi3>:
    1b06:	0e 94 04 0d 	call	0x1a08	; 0x1a08 <__umulhisi3>

00001b0a <.Loc.1>:
    1b0a:	a5 9f       	mul	r26, r21

00001b0c <.Loc.2>:
    1b0c:	90 0d       	add	r25, r0

00001b0e <.Loc.3>:
    1b0e:	b4 9f       	mul	r27, r20

00001b10 <.Loc.4>:
    1b10:	90 0d       	add	r25, r0

00001b12 <.Loc.5>:
    1b12:	a4 9f       	mul	r26, r20

00001b14 <.Loc.6>:
    1b14:	80 0d       	add	r24, r0

00001b16 <.Loc.7>:
    1b16:	91 1d       	adc	r25, r1

00001b18 <.Loc.8>:
    1b18:	11 24       	eor	r1, r1

00001b1a <.Loc.9>:
    1b1a:	08 95       	ret

00001b1c <__muldi3>:
    1b1c:	df 93       	push	r29

00001b1e <.Loc.1>:
    1b1e:	cf 93       	push	r28

00001b20 <.Loc.2>:
    1b20:	1f 93       	push	r17

00001b22 <.Loc.3>:
    1b22:	0f 93       	push	r16

00001b24 <.Loc.4>:
    1b24:	9a 9d       	mul	r25, r10
    1b26:	f0 2d       	mov	r31, r0

00001b28 <.Loc.5>:
    1b28:	21 9f       	mul	r18, r17
    1b2a:	f0 0d       	add	r31, r0

00001b2c <.Loc.6>:
    1b2c:	8b 9d       	mul	r24, r11
    1b2e:	f0 0d       	add	r31, r0

00001b30 <.Loc.7>:
    1b30:	8a 9d       	mul	r24, r10
    1b32:	e0 2d       	mov	r30, r0
    1b34:	f1 0d       	add	r31, r1

00001b36 <.Loc.8>:
    1b36:	03 9f       	mul	r16, r19
    1b38:	f0 0d       	add	r31, r0

00001b3a <.Loc.9>:
    1b3a:	02 9f       	mul	r16, r18
    1b3c:	e0 0d       	add	r30, r0
    1b3e:	f1 1d       	adc	r31, r1

00001b40 <.Loc.10>:
    1b40:	4e 9d       	mul	r20, r14
    1b42:	e0 0d       	add	r30, r0
    1b44:	f1 1d       	adc	r31, r1

00001b46 <.Loc.11>:
    1b46:	5e 9d       	mul	r21, r14
    1b48:	f0 0d       	add	r31, r0

00001b4a <.Loc.12>:
    1b4a:	4f 9d       	mul	r20, r15
    1b4c:	f0 0d       	add	r31, r0

00001b4e <.Loc.13>:
    1b4e:	7f 93       	push	r23

00001b50 <.Loc.14>:
    1b50:	6f 93       	push	r22

00001b52 <.Loc.15>:
    1b52:	bf 92       	push	r11

00001b54 <.Loc.16>:
    1b54:	af 92       	push	r10

00001b56 <.Loc.17>:
    1b56:	5f 93       	push	r21

00001b58 <.Loc.18>:
    1b58:	4f 93       	push	r20

00001b5a <.Loc.19>:
    1b5a:	d5 01       	movw	r26, r10

00001b5c <.Loc.20>:
    1b5c:	0e 94 04 0d 	call	0x1a08	; 0x1a08 <__umulhisi3>

00001b60 <.Loc.21>:
    1b60:	8b 01       	movw	r16, r22

00001b62 <.Loc.22>:
    1b62:	ac 01       	movw	r20, r24

00001b64 <.Loc.23>:
    1b64:	d7 01       	movw	r26, r14

00001b66 <.Loc.24>:
    1b66:	0e 94 04 0d 	call	0x1a08	; 0x1a08 <__umulhisi3>
    1b6a:	eb 01       	movw	r28, r22
    1b6c:	e8 0f       	add	r30, r24
    1b6e:	f9 1f       	adc	r31, r25

00001b70 <.Loc.25>:
    1b70:	d6 01       	movw	r26, r12

00001b72 <.Loc.26>:
    1b72:	0e 94 dd 0d 	call	0x1bba	; 0x1bba <__muldi3_6>

00001b76 <.Loc.27>:
    1b76:	2f 91       	pop	r18

00001b78 <.Loc.28>:
    1b78:	3f 91       	pop	r19

00001b7a <.Loc.29>:
    1b7a:	d6 01       	movw	r26, r12

00001b7c <.Loc.30>:
    1b7c:	0e 94 04 0d 	call	0x1a08	; 0x1a08 <__umulhisi3>
    1b80:	c6 0f       	add	r28, r22
    1b82:	d7 1f       	adc	r29, r23
    1b84:	e8 1f       	adc	r30, r24
    1b86:	f9 1f       	adc	r31, r25

00001b88 <.Loc.31>:
    1b88:	af 91       	pop	r26

00001b8a <.Loc.32>:
    1b8a:	bf 91       	pop	r27

00001b8c <.Loc.33>:
    1b8c:	0e 94 dd 0d 	call	0x1bba	; 0x1bba <__muldi3_6>

00001b90 <.Loc.34>:
    1b90:	2f 91       	pop	r18

00001b92 <.Loc.35>:
    1b92:	3f 91       	pop	r19

00001b94 <.Loc.36>:
    1b94:	0e 94 04 0d 	call	0x1a08	; 0x1a08 <__umulhisi3>
    1b98:	c6 0f       	add	r28, r22
    1b9a:	d7 1f       	adc	r29, r23
    1b9c:	e8 1f       	adc	r30, r24
    1b9e:	f9 1f       	adc	r31, r25

00001ba0 <.Loc.37>:
    1ba0:	d6 01       	movw	r26, r12

00001ba2 <.Loc.38>:
    1ba2:	0e 94 04 0d 	call	0x1a08	; 0x1a08 <__umulhisi3>
    1ba6:	e6 0f       	add	r30, r22
    1ba8:	f7 1f       	adc	r31, r23

00001baa <.Loc.39>:
    1baa:	98 01       	movw	r18, r16

00001bac <.Loc.40>:
    1bac:	be 01       	movw	r22, r28

00001bae <.Loc.41>:
    1bae:	cf 01       	movw	r24, r30

00001bb0 <.Loc.42>:
    1bb0:	0f 91       	pop	r16

00001bb2 <.Loc.43>:
    1bb2:	1f 91       	pop	r17

00001bb4 <.Loc.44>:
    1bb4:	cf 91       	pop	r28

00001bb6 <.Loc.45>:
    1bb6:	df 91       	pop	r29

00001bb8 <.Loc.46>:
    1bb8:	08 95       	ret

00001bba <__muldi3_6>:
    1bba:	0e 94 04 0d 	call	0x1a08	; 0x1a08 <__umulhisi3>

00001bbe <.Loc.1>:
    1bbe:	46 0f       	add	r20, r22

00001bc0 <.Loc.2>:
    1bc0:	57 1f       	adc	r21, r23

00001bc2 <.Loc.3>:
    1bc2:	c8 1f       	adc	r28, r24

00001bc4 <.Loc.4>:
    1bc4:	d9 1f       	adc	r29, r25

00001bc6 <.Loc.5>:
    1bc6:	08 f4       	brcc	.+2      	; 0x1bca <.L0^B1>

00001bc8 <.Loc.6>:
    1bc8:	31 96       	adiw	r30, 0x01	; 1

00001bca <.L0^B1>:
    1bca:	08 95       	ret

00001bcc <__mulsidi3>:
    1bcc:	97 fb       	bst	r25, 7

00001bce <.Loc.1>:
    1bce:	57 ff       	sbrs	r21, 7

00001bd0 <.Loc.2>:
    1bd0:	0c 94 f6 0d 	jmp	0x1bec	; 0x1bec <__umulsidi3_helper>

00001bd4 <.Loc.3>:
    1bd4:	9f 93       	push	r25

00001bd6 <.Loc.4>:
    1bd6:	8f 93       	push	r24

00001bd8 <.Loc.5>:
    1bd8:	0e 94 f6 0d 	call	0x1bec	; 0x1bec <__umulsidi3_helper>

00001bdc <.Loc.6>:
    1bdc:	6e 1b       	sub	r22, r30

00001bde <.Loc.7>:
    1bde:	7f 0b       	sbc	r23, r31

00001be0 <.Loc.8>:
    1be0:	af 91       	pop	r26

00001be2 <.Loc.9>:
    1be2:	bf 91       	pop	r27

00001be4 <.Loc.10>:
    1be4:	8a 0b       	sbc	r24, r26

00001be6 <.Loc.11>:
    1be6:	9b 0b       	sbc	r25, r27

00001be8 <.Loc.12>:
    1be8:	08 95       	ret

00001bea <__umulsidi3>:
    1bea:	e8 94       	clt

00001bec <__umulsidi3_helper>:
    1bec:	df 93       	push	r29
    1bee:	cf 93       	push	r28

00001bf0 <.Loc.2>:
    1bf0:	fc 01       	movw	r30, r24

00001bf2 <.Loc.3>:
    1bf2:	db 01       	movw	r26, r22

00001bf4 <.Loc.4>:
    1bf4:	0e 94 04 0d 	call	0x1a08	; 0x1a08 <__umulhisi3>

00001bf8 <.Loc.5>:
    1bf8:	7f 93       	push	r23
    1bfa:	6f 93       	push	r22

00001bfc <.Loc.6>:
    1bfc:	e9 01       	movw	r28, r18

00001bfe <.Loc.7>:
    1bfe:	9a 01       	movw	r18, r20

00001c00 <.Loc.8>:
    1c00:	ac 01       	movw	r20, r24

00001c02 <.Loc.9>:
    1c02:	bf 93       	push	r27
    1c04:	af 93       	push	r26

00001c06 <.Loc.10>:
    1c06:	3f 93       	push	r19
    1c08:	2f 93       	push	r18

00001c0a <.Loc.11>:
    1c0a:	df 01       	movw	r26, r30

00001c0c <.Loc.12>:
    1c0c:	0e 94 04 0d 	call	0x1a08	; 0x1a08 <__umulhisi3>

00001c10 <.Loc.13>:
    1c10:	26 f4       	brtc	.+8      	; 0x1c1a <.L0^B1>

00001c12 <.Loc.14>:
    1c12:	6c 1b       	sub	r22, r28

00001c14 <.Loc.15>:
    1c14:	7d 0b       	sbc	r23, r29

00001c16 <.Loc.16>:
    1c16:	82 0b       	sbc	r24, r18

00001c18 <.Loc.17>:
    1c18:	93 0b       	sbc	r25, r19

00001c1a <.L0^B1>:
    1c1a:	9e 01       	movw	r18, r28

00001c1c <.Loc.19>:
    1c1c:	eb 01       	movw	r28, r22

00001c1e <.Loc.20>:
    1c1e:	fc 01       	movw	r30, r24

00001c20 <.Loc.21>:
    1c20:	0e 94 dd 0d 	call	0x1bba	; 0x1bba <__muldi3_6>

00001c24 <.Loc.22>:
    1c24:	af 91       	pop	r26
    1c26:	bf 91       	pop	r27

00001c28 <.Loc.23>:
    1c28:	2f 91       	pop	r18
    1c2a:	3f 91       	pop	r19

00001c2c <.Loc.24>:
    1c2c:	0e 94 dd 0d 	call	0x1bba	; 0x1bba <__muldi3_6>

00001c30 <.Loc.25>:
    1c30:	be 01       	movw	r22, r28

00001c32 <.Loc.26>:
    1c32:	cf 01       	movw	r24, r30

00001c34 <.Loc.27>:
    1c34:	f9 01       	movw	r30, r18

00001c36 <.Loc.28>:
    1c36:	2f 91       	pop	r18
    1c38:	3f 91       	pop	r19

00001c3a <.Loc.29>:
    1c3a:	cf 91       	pop	r28
    1c3c:	df 91       	pop	r29

00001c3e <.Loc.30>:
    1c3e:	08 95       	ret

00001c40 <__moddi3>:
    1c40:	68 94       	set

00001c42 <.Loc.1>:
    1c42:	01 c0       	rjmp	.+2      	; 0x1c46 <__divdi3_moddi3>

00001c44 <__divdi3>:
    1c44:	e8 94       	clt

00001c46 <__divdi3_moddi3>:
    1c46:	f9 2f       	mov	r31, r25

00001c48 <.Loc.4>:
    1c48:	f1 2b       	or	r31, r17

00001c4a <.Loc.5>:
    1c4a:	12 f0       	brmi	.+4      	; 0x1c50 <.L0^B1>

00001c4c <.Loc.6>:
    1c4c:	0c 94 54 0e 	jmp	0x1ca8	; 0x1ca8 <__udivdi3_umoddi3>

00001c50 <.L0^B1>:
    1c50:	a0 e0       	ldi	r26, 0x00	; 0
    1c52:	b0 e0       	ldi	r27, 0x00	; 0
    1c54:	ee e2       	ldi	r30, 0x2E	; 46
    1c56:	fe e0       	ldi	r31, 0x0E	; 14
    1c58:	0c 94 c6 0e 	jmp	0x1d8c	; 0x1d8c <.Loc.6>

00001c5c <.L_prologue_saves.5>:
    1c5c:	09 2e       	mov	r0, r25

00001c5e <.Loc.9>:
    1c5e:	05 94       	asr	r0

00001c60 <.Loc.10>:
    1c60:	22 f4       	brpl	.+8      	; 0x1c6a <.L22^B1>

00001c62 <.Loc.11>:
    1c62:	0e 94 b0 0e 	call	0x1d60	; 0x1d60 <__negdi2>

00001c66 <.Loc.12>:
    1c66:	11 23       	and	r17, r17

00001c68 <.Loc.13>:
    1c68:	92 f4       	brpl	.+36     	; 0x1c8e <.L3^B1>

00001c6a <.L22^B1>:
    1c6a:	f0 e8       	ldi	r31, 0x80	; 128

00001c6c <.Loc.15>:
    1c6c:	0f 26       	eor	r0, r31

00001c6e <.Loc.16>:
    1c6e:	ff ef       	ldi	r31, 0xFF	; 255

00001c70 <.Loc.17>:
    1c70:	e0 94       	com	r14
    1c72:	f0 94       	com	r15
    1c74:	00 95       	com	r16
    1c76:	10 95       	com	r17

00001c78 <.Loc.18>:
    1c78:	b0 94       	com	r11
    1c7a:	c0 94       	com	r12
    1c7c:	d0 94       	com	r13

00001c7e <.Loc.19>:
    1c7e:	a1 94       	neg	r10

00001c80 <.Loc.20>:
    1c80:	bf 0a       	sbc	r11, r31
    1c82:	cf 0a       	sbc	r12, r31
    1c84:	df 0a       	sbc	r13, r31

00001c86 <.Loc.21>:
    1c86:	ef 0a       	sbc	r14, r31
    1c88:	ff 0a       	sbc	r15, r31
    1c8a:	0f 0b       	sbc	r16, r31
    1c8c:	1f 0b       	sbc	r17, r31

00001c8e <.L3^B1>:
    1c8e:	0e 94 5f 0e 	call	0x1cbe	; 0x1cbe <__udivmod64>

00001c92 <.Loc.23>:
    1c92:	07 fc       	sbrc	r0, 7

00001c94 <.Loc.24>:
    1c94:	0e 94 b0 0e 	call	0x1d60	; 0x1d60 <__negdi2>

00001c98 <.Loc.25>:
    1c98:	cd b7       	in	r28, 0x3d	; 61
    1c9a:	de b7       	in	r29, 0x3e	; 62
    1c9c:	ec e0       	ldi	r30, 0x0C	; 12
    1c9e:	0c 94 df 0e 	jmp	0x1dbe	; 0x1dbe <.Loc.6>

00001ca2 <__umoddi3>:
    1ca2:	68 94       	set

00001ca4 <.Loc.1>:
    1ca4:	01 c0       	rjmp	.+2      	; 0x1ca8 <__udivdi3_umoddi3>

00001ca6 <__udivdi3>:
    1ca6:	e8 94       	clt

00001ca8 <__udivdi3_umoddi3>:
    1ca8:	8f 92       	push	r8

00001caa <.Loc.4>:
    1caa:	9f 92       	push	r9

00001cac <.Loc.5>:
    1cac:	cf 93       	push	r28

00001cae <.Loc.6>:
    1cae:	df 93       	push	r29

00001cb0 <.Loc.7>:
    1cb0:	0e 94 5f 0e 	call	0x1cbe	; 0x1cbe <__udivmod64>

00001cb4 <.Loc.8>:
    1cb4:	df 91       	pop	r29

00001cb6 <.Loc.9>:
    1cb6:	cf 91       	pop	r28

00001cb8 <.Loc.10>:
    1cb8:	9f 90       	pop	r9

00001cba <.Loc.11>:
    1cba:	8f 90       	pop	r8

00001cbc <.Loc.12>:
    1cbc:	08 95       	ret

00001cbe <__udivmod64>:
    1cbe:	88 24       	eor	r8, r8

00001cc0 <.Loc.1>:
    1cc0:	99 24       	eor	r9, r9

00001cc2 <.Loc.2>:
    1cc2:	f4 01       	movw	r30, r8

00001cc4 <.Loc.3>:
    1cc4:	e4 01       	movw	r28, r8

00001cc6 <.Loc.4>:
    1cc6:	b0 e4       	ldi	r27, 0x40	; 64

00001cc8 <.Loc.5>:
    1cc8:	9f 93       	push	r25

00001cca <.Loc.6>:
    1cca:	aa 27       	eor	r26, r26

00001ccc <.L1^B1>:
    1ccc:	9a 15       	cp	r25, r10
    1cce:	8b 04       	cpc	r8, r11
    1cd0:	9c 04       	cpc	r9, r12
    1cd2:	ed 05       	cpc	r30, r13

00001cd4 <.Loc.8>:
    1cd4:	fe 05       	cpc	r31, r14
    1cd6:	cf 05       	cpc	r28, r15
    1cd8:	d0 07       	cpc	r29, r16
    1cda:	a1 07       	cpc	r26, r17

00001cdc <.Loc.9>:
    1cdc:	98 f4       	brcc	.+38     	; 0x1d04 <.L2^B1>

00001cde <.Loc.10>:
    1cde:	ad 2f       	mov	r26, r29
    1ce0:	dc 2f       	mov	r29, r28
    1ce2:	cf 2f       	mov	r28, r31

00001ce4 <.Loc.11>:
    1ce4:	fe 2f       	mov	r31, r30
    1ce6:	e9 2d       	mov	r30, r9
    1ce8:	98 2c       	mov	r9, r8
    1cea:	89 2e       	mov	r8, r25

00001cec <.Loc.12>:
    1cec:	98 2f       	mov	r25, r24
    1cee:	87 2f       	mov	r24, r23
    1cf0:	76 2f       	mov	r23, r22
    1cf2:	65 2f       	mov	r22, r21

00001cf4 <.Loc.13>:
    1cf4:	54 2f       	mov	r21, r20
    1cf6:	43 2f       	mov	r20, r19
    1cf8:	32 2f       	mov	r19, r18
    1cfa:	22 27       	eor	r18, r18

00001cfc <.Loc.14>:
    1cfc:	b8 50       	subi	r27, 0x08	; 8

00001cfe <.Loc.15>:
    1cfe:	31 f7       	brne	.-52     	; 0x1ccc <.L1^B1>

00001d00 <.Loc.16>:
    1d00:	bf 91       	pop	r27

00001d02 <.Loc.17>:
    1d02:	27 c0       	rjmp	.+78     	; 0x1d52 <.L5^B1>

00001d04 <.L2^B1>:
    1d04:	1b 2e       	mov	r1, r27

00001d06 <.Loc.19>:
    1d06:	bf 91       	pop	r27

00001d08 <.Loc.20>:
    1d08:	bb 27       	eor	r27, r27

00001d0a <.L3^B1>:
    1d0a:	22 0f       	add	r18, r18
    1d0c:	33 1f       	adc	r19, r19
    1d0e:	44 1f       	adc	r20, r20
    1d10:	55 1f       	adc	r21, r21

00001d12 <.Loc.22>:
    1d12:	66 1f       	adc	r22, r22
    1d14:	77 1f       	adc	r23, r23
    1d16:	88 1f       	adc	r24, r24
    1d18:	99 1f       	adc	r25, r25

00001d1a <.Loc.23>:
    1d1a:	88 1c       	adc	r8, r8
    1d1c:	99 1c       	adc	r9, r9
    1d1e:	ee 1f       	adc	r30, r30
    1d20:	ff 1f       	adc	r31, r31

00001d22 <.Loc.24>:
    1d22:	cc 1f       	adc	r28, r28
    1d24:	dd 1f       	adc	r29, r29
    1d26:	aa 1f       	adc	r26, r26
    1d28:	bb 1f       	adc	r27, r27

00001d2a <.Loc.25>:
    1d2a:	8a 14       	cp	r8, r10
    1d2c:	9b 04       	cpc	r9, r11
    1d2e:	ec 05       	cpc	r30, r12
    1d30:	fd 05       	cpc	r31, r13

00001d32 <.Loc.26>:
    1d32:	ce 05       	cpc	r28, r14
    1d34:	df 05       	cpc	r29, r15
    1d36:	a0 07       	cpc	r26, r16
    1d38:	b1 07       	cpc	r27, r17

00001d3a <.Loc.27>:
    1d3a:	48 f0       	brcs	.+18     	; 0x1d4e <.L4^B1>

00001d3c <.Loc.28>:
    1d3c:	8a 18       	sub	r8, r10
    1d3e:	9b 08       	sbc	r9, r11
    1d40:	ec 09       	sbc	r30, r12
    1d42:	fd 09       	sbc	r31, r13

00001d44 <.Loc.29>:
    1d44:	ce 09       	sbc	r28, r14
    1d46:	df 09       	sbc	r29, r15
    1d48:	a0 0b       	sbc	r26, r16
    1d4a:	b1 0b       	sbc	r27, r17

00001d4c <.Loc.30>:
    1d4c:	21 60       	ori	r18, 0x01	; 1

00001d4e <.L4^B1>:
    1d4e:	1a 94       	dec	r1

00001d50 <.Loc.32>:
    1d50:	e1 f6       	brne	.-72     	; 0x1d0a <.L3^B1>

00001d52 <.L5^B1>:
    1d52:	2e f4       	brtc	.+10     	; 0x1d5e <.L6^B1>

00001d54 <.Loc.34>:
    1d54:	94 01       	movw	r18, r8

00001d56 <.Loc.35>:
    1d56:	af 01       	movw	r20, r30

00001d58 <.Loc.36>:
    1d58:	be 01       	movw	r22, r28

00001d5a <.Loc.37>:
    1d5a:	cd 01       	movw	r24, r26

00001d5c <.Loc.38>:
    1d5c:	00 0c       	add	r0, r0

00001d5e <.L6^B1>:
    1d5e:	08 95       	ret

00001d60 <__negdi2>:
    1d60:	60 95       	com	r22
    1d62:	70 95       	com	r23
    1d64:	80 95       	com	r24
    1d66:	90 95       	com	r25

00001d68 <.Loc.1>:
    1d68:	30 95       	com	r19
    1d6a:	40 95       	com	r20
    1d6c:	50 95       	com	r21

00001d6e <.Loc.2>:
    1d6e:	21 95       	neg	r18

00001d70 <.Loc.3>:
    1d70:	3f 4f       	sbci	r19, 0xFF	; 255
    1d72:	4f 4f       	sbci	r20, 0xFF	; 255
    1d74:	5f 4f       	sbci	r21, 0xFF	; 255

00001d76 <.Loc.4>:
    1d76:	6f 4f       	sbci	r22, 0xFF	; 255
    1d78:	7f 4f       	sbci	r23, 0xFF	; 255
    1d7a:	8f 4f       	sbci	r24, 0xFF	; 255
    1d7c:	9f 4f       	sbci	r25, 0xFF	; 255

00001d7e <.Loc.5>:
    1d7e:	08 95       	ret

00001d80 <__prologue_saves__>:
    1d80:	2f 92       	push	r2

00001d82 <.Loc.1>:
    1d82:	3f 92       	push	r3

00001d84 <.Loc.2>:
    1d84:	4f 92       	push	r4

00001d86 <.Loc.3>:
    1d86:	5f 92       	push	r5

00001d88 <.Loc.4>:
    1d88:	6f 92       	push	r6

00001d8a <.Loc.5>:
    1d8a:	7f 92       	push	r7

00001d8c <.Loc.6>:
    1d8c:	8f 92       	push	r8

00001d8e <.Loc.7>:
    1d8e:	9f 92       	push	r9

00001d90 <.Loc.8>:
    1d90:	af 92       	push	r10

00001d92 <.Loc.9>:
    1d92:	bf 92       	push	r11

00001d94 <.Loc.10>:
    1d94:	cf 92       	push	r12

00001d96 <.Loc.11>:
    1d96:	df 92       	push	r13

00001d98 <.Loc.12>:
    1d98:	ef 92       	push	r14

00001d9a <.Loc.13>:
    1d9a:	ff 92       	push	r15

00001d9c <.Loc.14>:
    1d9c:	0f 93       	push	r16

00001d9e <.Loc.15>:
    1d9e:	1f 93       	push	r17

00001da0 <.Loc.16>:
    1da0:	cf 93       	push	r28

00001da2 <.Loc.17>:
    1da2:	df 93       	push	r29

00001da4 <.Loc.18>:
    1da4:	cd b7       	in	r28, 0x3d	; 61

00001da6 <.Loc.19>:
    1da6:	de b7       	in	r29, 0x3e	; 62

00001da8 <.Loc.20>:
    1da8:	ca 1b       	sub	r28, r26

00001daa <.Loc.21>:
    1daa:	db 0b       	sbc	r29, r27

00001dac <.Loc.22>:
    1dac:	cd bf       	out	0x3d, r28	; 61

00001dae <.Loc.23>:
    1dae:	de bf       	out	0x3e, r29	; 62

00001db0 <.Loc.24>:
    1db0:	09 94       	ijmp

00001db2 <__epilogue_restores__>:
    1db2:	2a 88       	ldd	r2, Y+18	; 0x12

00001db4 <.Loc.1>:
    1db4:	39 88       	ldd	r3, Y+17	; 0x11

00001db6 <.Loc.2>:
    1db6:	48 88       	ldd	r4, Y+16	; 0x10

00001db8 <.Loc.3>:
    1db8:	5f 84       	ldd	r5, Y+15	; 0x0f

00001dba <.Loc.4>:
    1dba:	6e 84       	ldd	r6, Y+14	; 0x0e

00001dbc <.Loc.5>:
    1dbc:	7d 84       	ldd	r7, Y+13	; 0x0d

00001dbe <.Loc.6>:
    1dbe:	8c 84       	ldd	r8, Y+12	; 0x0c

00001dc0 <.Loc.7>:
    1dc0:	9b 84       	ldd	r9, Y+11	; 0x0b

00001dc2 <.Loc.8>:
    1dc2:	aa 84       	ldd	r10, Y+10	; 0x0a

00001dc4 <.Loc.9>:
    1dc4:	b9 84       	ldd	r11, Y+9	; 0x09

00001dc6 <.Loc.10>:
    1dc6:	c8 84       	ldd	r12, Y+8	; 0x08

00001dc8 <.Loc.11>:
    1dc8:	df 80       	ldd	r13, Y+7	; 0x07

00001dca <.Loc.12>:
    1dca:	ee 80       	ldd	r14, Y+6	; 0x06

00001dcc <.Loc.13>:
    1dcc:	fd 80       	ldd	r15, Y+5	; 0x05

00001dce <.Loc.14>:
    1dce:	0c 81       	ldd	r16, Y+4	; 0x04

00001dd0 <.Loc.15>:
    1dd0:	1b 81       	ldd	r17, Y+3	; 0x03

00001dd2 <.Loc.16>:
    1dd2:	aa 81       	ldd	r26, Y+2	; 0x02

00001dd4 <.Loc.17>:
    1dd4:	b9 81       	ldd	r27, Y+1	; 0x01

00001dd6 <.Loc.18>:
    1dd6:	ce 0f       	add	r28, r30

00001dd8 <.Loc.19>:
    1dd8:	d1 1d       	adc	r29, r1

00001dda <.Loc.20>:
    1dda:	cd bf       	out	0x3d, r28	; 61

00001ddc <.Loc.21>:
    1ddc:	de bf       	out	0x3e, r29	; 62

00001dde <.Loc.22>:
    1dde:	ed 01       	movw	r28, r26

00001de0 <.Loc.23>:
    1de0:	08 95       	ret

00001de2 <_exit>:
    1de2:	f8 94       	cli

00001de4 <__stop_program>:
    1de4:	ff cf       	rjmp	.-2      	; 0x1de4 <__stop_program>

00001de6 <L0^A>:
    1de6:	08 4a       	sbci	r16, 0xA8	; 168
    1de8:	d7 3b       	cpi	r29, 0xB7	; 183
    1dea:	3b ce       	rjmp	.-906    	; 0x1a62 <.Loc.9>
    1dec:	01 6e       	ori	r16, 0xE1	; 225
    1dee:	84 bc       	out	0x24, r8	; 36
    1df0:	bf fd       	.word	0xfdbf	; ????
    1df2:	c1 2f       	mov	r28, r17
    1df4:	3d 6c       	ori	r19, 0xCD	; 205
    1df6:	74 31       	cpi	r23, 0x14	; 20
    1df8:	9a bd       	out	0x2a, r25	; 42
    1dfa:	56 83       	std	Z+6, r21	; 0x06
    1dfc:	3d da       	rcall	.-2950   	; 0x1278 <.L14^B1+0x2>
    1dfe:	3d 00       	.word	0x003d	; ????
    1e00:	c7 7f       	andi	r28, 0xF7	; 247
    1e02:	11 be       	out	0x31, r1	; 49
    1e04:	d9 e4       	ldi	r29, 0x49	; 73
    1e06:	bb 4c       	sbci	r27, 0xCB	; 203
    1e08:	3e 91       	ld	r19, -X
    1e0a:	6b aa       	std	Y+51, r6	; 0x33
    1e0c:	aa be       	out	0x3a, r10	; 58
    1e0e:	00 00       	nop
    1e10:	00 80       	ld	r0, Z
    1e12:	Address 0x1e12 is out of bounds.


00001e13 <.L_table>:
    1e13:	05 a8       	ldd	r0, Z+53	; 0x35
    1e15:	4c cd       	rjmp	.-1384   	; 0x18af <.L2^B1+0x7>
    1e17:	b2 d4       	rcall	.+2404   	; 0x277d <__data_load_end+0x878>
    1e19:	4e b9       	out	0x0e, r20	; 14
    1e1b:	38 36       	cpi	r19, 0x68	; 104
    1e1d:	a9 02       	muls	r26, r25
    1e1f:	0c 50       	subi	r16, 0x0C	; 12
    1e21:	b9 91       	ld	r27, Y+
    1e23:	86 88       	ldd	r8, Z+22	; 0x16
    1e25:	08 3c       	cpi	r16, 0xC8	; 200
    1e27:	a6 aa       	std	Z+54, r10	; 0x36
    1e29:	aa 2a       	or	r10, r26
    1e2b:	be 00       	.word	0x00be	; ????
    1e2d:	00 00       	nop
    1e2f:	80 3f       	cpi	r24, 0xF0	; 240

00001e31 <.L_tlow>:
    1e31:	08 00       	.word	0x0008	; ????
    1e33:	00 00       	nop
    1e35:	be 92       	st	-X, r11
    1e37:	24 49       	sbci	r18, 0x94	; 148
    1e39:	12 3e       	cpi	r17, 0xE2	; 226
    1e3b:	ab aa       	std	Y+51, r10	; 0x33
    1e3d:	aa 2a       	or	r10, r26
    1e3f:	be cd       	rjmp	.-1156   	; 0x19bd <__fp_cmp+0x7>
    1e41:	cc cc       	rjmp	.-1640   	; 0x17db <__addsf3x+0x5>
    1e43:	4c 3e       	cpi	r20, 0xEC	; 236
    1e45:	00 00       	nop
    1e47:	00 80       	ld	r0, Z
    1e49:	be ab       	std	Y+54, r27	; 0x36
    1e4b:	aa aa       	std	Y+50, r10	; 0x32
    1e4d:	aa 3e       	cpi	r26, 0xEA	; 234
    1e4f:	00 00       	nop
    1e51:	00 00       	nop
    1e53:	bf 00       	.word	0x00bf	; ????
    1e55:	00 00       	nop
    1e57:	80 3f       	cpi	r24, 0xF0	; 240
    1e59:	00 00       	nop
    1e5b:	00 00       	nop
	...

00001e5e <.L_thigh>:
    1e5e:	08 41       	sbci	r16, 0x18	; 24
    1e60:	78 d3       	rcall	.+1776   	; 0x2552 <__data_load_end+0x64d>
    1e62:	bb 43       	sbci	r27, 0x3B	; 59
    1e64:	87 d1       	rcall	.+782    	; 0x2174 <__data_load_end+0x26f>
    1e66:	13 3d       	cpi	r17, 0xD3	; 211
    1e68:	19 0e       	add	r1, r25
    1e6a:	3c c3       	rjmp	.+1656   	; 0x24e4 <__data_load_end+0x5df>
    1e6c:	bd 42       	sbci	r27, 0x2D	; 45
    1e6e:	82 ad       	ldd	r24, Z+58	; 0x3a
    1e70:	2b 3e       	cpi	r18, 0xEB	; 235
    1e72:	68 ec       	ldi	r22, 0xC8	; 200
    1e74:	82 76       	andi	r24, 0x62	; 98
    1e76:	be d9       	rcall	.-3204   	; 0x11f4 <.L_nan>
    1e78:	8f e1       	ldi	r24, 0x1F	; 31
    1e7a:	a9 3e       	cpi	r26, 0xE9	; 233
    1e7c:	4c 80       	ldd	r4, Y+4	; 0x04
    1e7e:	ef ff       	.word	0xffef	; ????
    1e80:	be 01       	movw	r22, r28
    1e82:	c4 ff       	sbrs	r28, 4
    1e84:	7f 3f       	cpi	r23, 0xFF	; 255
    1e86:	00 00       	nop
    1e88:	00 00       	nop
	...
