
main.elf:     file format elf32-avr

Sections:
Idx Name          Size      VMA       LMA       File off  Algn
  0 .data         00000000  00803800  00803800  00001100  2**0
                  CONTENTS, ALLOC, LOAD, DATA
  1 .text         00001026  00000000  00000000  00000074  2**1
                  CONTENTS, ALLOC, LOAD, READONLY, CODE
  2 .rodata       00000066  00009026  00001026  0000109a  2**0
                  CONTENTS, ALLOC, LOAD, READONLY, DATA
  3 .comment      00000012  00000000  00000000  00001100  2**0
                  CONTENTS, READONLY
  4 .note.gnu.avr.deviceinfo 00000040  00000000  00000000  00001114  2**2
                  CONTENTS, READONLY, OCTETS
  5 .debug_aranges 00000220  00000000  00000000  00001158  2**3
                  CONTENTS, READONLY, DEBUGGING, OCTETS
  6 .debug_info   00001f5d  00000000  00000000  00001378  2**0
                  CONTENTS, READONLY, DEBUGGING, OCTETS
  7 .debug_abbrev 00001cbe  00000000  00000000  000032d5  2**0
                  CONTENTS, READONLY, DEBUGGING, OCTETS
  8 .debug_line   00000bd2  00000000  00000000  00004f93  2**0
                  CONTENTS, READONLY, DEBUGGING, OCTETS
  9 .debug_str    00000c4e  00000000  00000000  00005b65  2**0
                  CONTENTS, READONLY, DEBUGGING, OCTETS
 10 .debug_line_str 00000061  00000000  00000000  000067b3  2**0
                  CONTENTS, READONLY, DEBUGGING, OCTETS

Disassembly of section .text:

00000000 <__vectors>:
       0:	0c 94 3e 00 	jmp	0x7c	; 0x7c <__ctors_end>
       4:	0c 94 48 00 	jmp	0x90	; 0x90 <__bad_interrupt>
       8:	0c 94 48 00 	jmp	0x90	; 0x90 <__bad_interrupt>
       c:	0c 94 48 00 	jmp	0x90	; 0x90 <__bad_interrupt>
      10:	0c 94 48 00 	jmp	0x90	; 0x90 <__bad_interrupt>
      14:	0c 94 48 00 	jmp	0x90	; 0x90 <__bad_interrupt>
      18:	0c 94 48 00 	jmp	0x90	; 0x90 <__bad_interrupt>
      1c:	0c 94 14 01 	jmp	0x228	; 0x228 <__vector_7>
      20:	0c 94 48 00 	jmp	0x90	; 0x90 <__bad_interrupt>
      24:	0c 94 48 00 	jmp	0x90	; 0x90 <__bad_interrupt>
      28:	0c 94 48 00 	jmp	0x90	; 0x90 <__bad_interrupt>
      2c:	0c 94 48 00 	jmp	0x90	; 0x90 <__bad_interrupt>
      30:	0c 94 48 00 	jmp	0x90	; 0x90 <__bad_interrupt>
      34:	0c 94 48 00 	jmp	0x90	; 0x90 <__bad_interrupt>
      38:	0c 94 48 00 	jmp	0x90	; 0x90 <__bad_interrupt>
      3c:	0c 94 48 00 	jmp	0x90	; 0x90 <__bad_interrupt>
      40:	0c 94 48 00 	jmp	0x90	; 0x90 <__bad_interrupt>
      44:	0c 94 48 00 	jmp	0x90	; 0x90 <__bad_interrupt>
      48:	0c 94 48 00 	jmp	0x90	; 0x90 <__bad_interrupt>
      4c:	0c 94 48 00 	jmp	0x90	; 0x90 <__bad_interrupt>
      50:	0c 94 48 00 	jmp	0x90	; 0x90 <__bad_interrupt>
      54:	0c 94 48 00 	jmp	0x90	; 0x90 <__bad_interrupt>
      58:	0c 94 48 00 	jmp	0x90	; 0x90 <__bad_interrupt>
      5c:	0c 94 48 00 	jmp	0x90	; 0x90 <__bad_interrupt>
      60:	0c 94 48 00 	jmp	0x90	; 0x90 <__bad_interrupt>
      64:	0c 94 48 00 	jmp	0x90	; 0x90 <__bad_interrupt>
      68:	0c 94 48 00 	jmp	0x90	; 0x90 <__bad_interrupt>
      6c:	0c 94 48 00 	jmp	0x90	; 0x90 <__bad_interrupt>
      70:	0c 94 48 00 	jmp	0x90	; 0x90 <__bad_interrupt>
      74:	0c 94 48 00 	jmp	0x90	; 0x90 <__bad_interrupt>
      78:	0c 94 48 00 	jmp	0x90	; 0x90 <__bad_interrupt>

0000007c <__ctors_end>:
      7c:	11 24       	eor	r1, r1
      7e:	1f be       	out	0x3f, r1	; 63
      80:	cf ef       	ldi	r28, 0xFF	; 255
      82:	cd bf       	out	0x3d, r28	; 61
      84:	df e3       	ldi	r29, 0x3F	; 63
      86:	de bf       	out	0x3e, r29	; 62
      88:	0e 94 1a 01 	call	0x234	; 0x234 <main>
      8c:	0c 94 e4 07 	jmp	0xfc8	; 0xfc8 <_exit>

00000090 <__bad_interrupt>:
      90:	0c 94 00 00 	jmp	0	; 0x0 <__vectors>

00000094 <usart_putc>:
      94:	90 91 04 08 	lds	r25, 0x0804	; 0x800804 <__RODATA_PM_OFFSET__+0x7f8804>
      98:	95 ff       	sbrs	r25, 5
      9a:	fc cf       	rjmp	.-8      	; 0x94 <usart_putc>
      9c:	80 93 02 08 	sts	0x0802, r24	; 0x800802 <__RODATA_PM_OFFSET__+0x7f8802>
      a0:	08 95       	ret

000000a2 <usart_print>:
      a2:	cf 93       	push	r28
      a4:	df 93       	push	r29
      a6:	ec 01       	movw	r28, r24

000000a8 <.L6>:
      a8:	88 81       	ld	r24, Y
      aa:	81 11       	cpse	r24, r1
      ac:	03 c0       	rjmp	.+6      	; 0xb4 <.L7>
      ae:	df 91       	pop	r29
      b0:	cf 91       	pop	r28
      b2:	08 95       	ret

000000b4 <.L7>:
      b4:	21 96       	adiw	r28, 0x01	; 1
      b6:	0e 94 4a 00 	call	0x94	; 0x94 <usart_putc>
      ba:	f6 cf       	rjmp	.-20     	; 0xa8 <.L6>

000000bc <usart_print_u16>:
      bc:	ff 92       	push	r15
      be:	0f 93       	push	r16
      c0:	1f 93       	push	r17
      c2:	cf 93       	push	r28
      c4:	df 93       	push	r29
      c6:	00 d0       	rcall	.+0      	; 0xc8 <L0^A>

000000c8 <L0^A>:
      c8:	00 d0       	rcall	.+0      	; 0xca <L0^A>

000000ca <L0^A>:
      ca:	00 d0       	rcall	.+0      	; 0xcc <L0^A>

000000cc <L0^A>:
      cc:	cd b7       	in	r28, 0x3d	; 61
      ce:	de b7       	in	r29, 0x3e	; 62
      d0:	9c 01       	movw	r18, r24
      d2:	89 2b       	or	r24, r25
      d4:	59 f4       	brne	.+22     	; 0xec <.L9>
      d6:	80 e3       	ldi	r24, 0x30	; 48
      d8:	26 96       	adiw	r28, 0x06	; 6
      da:	cd bf       	out	0x3d, r28	; 61
      dc:	de bf       	out	0x3e, r29	; 62
      de:	df 91       	pop	r29
      e0:	cf 91       	pop	r28
      e2:	1f 91       	pop	r17
      e4:	0f 91       	pop	r16
      e6:	ff 90       	pop	r15
      e8:	0c 94 4a 00 	jmp	0x94	; 0x94 <usart_putc>

000000ec <.L9>:
      ec:	fe 01       	movw	r30, r28
      ee:	31 96       	adiw	r30, 0x01	; 1
      f0:	40 e0       	ldi	r20, 0x00	; 0
      f2:	8f 01       	movw	r16, r30

000000f4 <.L11>:
      f4:	c9 01       	movw	r24, r18
      f6:	6a e0       	ldi	r22, 0x0A	; 10
      f8:	70 e0       	ldi	r23, 0x00	; 0
      fa:	0e 94 93 03 	call	0x726	; 0x726 <__udivmodhi4>
      fe:	f4 2e       	mov	r15, r20
     100:	80 5d       	subi	r24, 0xD0	; 208
     102:	80 83       	st	Z, r24
     104:	2a 30       	cpi	r18, 0x0A	; 10
     106:	31 05       	cpc	r19, r1
     108:	38 f0       	brcs	.+14     	; 0x118 <.L12>
     10a:	41 e0       	ldi	r20, 0x01	; 1
     10c:	4f 0d       	add	r20, r15
     10e:	31 96       	adiw	r30, 0x01	; 1
     110:	9b 01       	movw	r18, r22
     112:	84 e0       	ldi	r24, 0x04	; 4
     114:	f8 12       	cpse	r15, r24
     116:	ee cf       	rjmp	.-36     	; 0xf4 <.L11>

00000118 <.L12>:
     118:	f8 01       	movw	r30, r16
     11a:	ef 0d       	add	r30, r15
     11c:	f1 1d       	adc	r31, r1
     11e:	80 81       	ld	r24, Z
     120:	0e 94 4a 00 	call	0x94	; 0x94 <usart_putc>
     124:	fa 94       	dec	r15
     126:	8f ef       	ldi	r24, 0xFF	; 255
     128:	f8 12       	cpse	r15, r24
     12a:	f6 cf       	rjmp	.-20     	; 0x118 <.L12>
     12c:	26 96       	adiw	r28, 0x06	; 6
     12e:	cd bf       	out	0x3d, r28	; 61
     130:	de bf       	out	0x3e, r29	; 62
     132:	df 91       	pop	r29
     134:	cf 91       	pop	r28
     136:	1f 91       	pop	r17
     138:	0f 91       	pop	r16
     13a:	ff 90       	pop	r15
     13c:	08 95       	ret

0000013e <measure_once_mm>:
     13e:	8f 92       	push	r8
     140:	9f 92       	push	r9
     142:	af 92       	push	r10
     144:	bf 92       	push	r11
     146:	cf 92       	push	r12
     148:	df 92       	push	r13
     14a:	ef 92       	push	r14
     14c:	ff 92       	push	r15
     14e:	0f 93       	push	r16
     150:	1f 93       	push	r17
     152:	dc 01       	movw	r26, r24
     154:	91 e0       	ldi	r25, 0x01	; 1
     156:	90 93 26 04 	sts	0x0426, r25	; 0x800426 <__RODATA_PM_OFFSET__+0x7f8426>
     15a:	10 92 4a 0a 	sts	0x0A4A, r1	; 0x800a4a <__RODATA_PM_OFFSET__+0x7f8a4a>
     15e:	10 92 4b 0a 	sts	0x0A4B, r1	; 0x800a4b <__RODATA_PM_OFFSET__+0x7f8a4b>
     162:	90 93 46 0a 	sts	0x0A46, r25	; 0x800a46 <__RODATA_PM_OFFSET__+0x7f8a46>

00000166 <.L16>:
     166:	61 50       	subi	r22, 0x01	; 1
     168:	90 93 25 04 	sts	0x0425, r25	; 0x800425 <__RODATA_PM_OFFSET__+0x7f8425>
     16c:	28 e2       	ldi	r18, 0x28	; 40

0000016e <.L1^B1>:
     16e:	2a 95       	dec	r18
     170:	f1 f7       	brne	.-4      	; 0x16e <.L1^B1>
     172:	90 93 26 04 	sts	0x0426, r25	; 0x800426 <__RODATA_PM_OFFSET__+0x7f8426>
     176:	88 e2       	ldi	r24, 0x28	; 40

00000178 <.L1^B2>:
     178:	8a 95       	dec	r24
     17a:	f1 f7       	brne	.-4      	; 0x178 <.L1^B2>
     17c:	61 11       	cpse	r22, r1
     17e:	f3 cf       	rjmp	.-26     	; 0x166 <.L16>
     180:	90 93 26 04 	sts	0x0426, r25	; 0x800426 <__RODATA_PM_OFFSET__+0x7f8426>
     184:	ea e6       	ldi	r30, 0x6A	; 106
     186:	f3 e0       	ldi	r31, 0x03	; 3

00000188 <.L1^B3>:
     188:	31 97       	sbiw	r30, 0x01	; 1
     18a:	f1 f7       	brne	.-4      	; 0x188 <.L1^B3>
     18c:	00 c0       	rjmp	.+0      	; 0x18e <L0^A>

0000018e <L0^A>:
     18e:	00 00       	nop
     190:	90 93 46 0a 	sts	0x0A46, r25	; 0x800a46 <__RODATA_PM_OFFSET__+0x7f8a46>

00000194 <.L18>:
     194:	80 91 4a 0a 	lds	r24, 0x0A4A	; 0x800a4a <__RODATA_PM_OFFSET__+0x7f8a4a>
     198:	90 91 4b 0a 	lds	r25, 0x0A4B	; 0x800a4b <__RODATA_PM_OFFSET__+0x7f8a4b>
     19c:	80 34       	cpi	r24, 0x40	; 64
     19e:	9c 49       	sbci	r25, 0x9C	; 156
     1a0:	68 f0       	brcs	.+26     	; 0x1bc <.L20>
     1a2:	8f ef       	ldi	r24, 0xFF	; 255
     1a4:	9f ef       	ldi	r25, 0xFF	; 255

000001a6 <.L15>:
     1a6:	1f 91       	pop	r17
     1a8:	0f 91       	pop	r16
     1aa:	ff 90       	pop	r15
     1ac:	ef 90       	pop	r14
     1ae:	df 90       	pop	r13
     1b0:	cf 90       	pop	r12
     1b2:	bf 90       	pop	r11
     1b4:	af 90       	pop	r10
     1b6:	9f 90       	pop	r9
     1b8:	8f 90       	pop	r8
     1ba:	08 95       	ret

000001bc <.L20>:
     1bc:	80 91 46 0a 	lds	r24, 0x0A46	; 0x800a46 <__RODATA_PM_OFFSET__+0x7f8a46>
     1c0:	80 ff       	sbrs	r24, 0
     1c2:	e8 cf       	rjmp	.-48     	; 0x194 <.L18>
     1c4:	80 90 4c 0a 	lds	r8, 0x0A4C	; 0x800a4c <__RODATA_PM_OFFSET__+0x7f8a4c>
     1c8:	90 90 4d 0a 	lds	r9, 0x0A4D	; 0x800a4d <__RODATA_PM_OFFSET__+0x7f8a4d>
     1cc:	81 e0       	ldi	r24, 0x01	; 1
     1ce:	80 93 46 0a 	sts	0x0A46, r24	; 0x800a46 <__RODATA_PM_OFFSET__+0x7f8a46>
     1d2:	c4 01       	movw	r24, r8
     1d4:	88 5b       	subi	r24, 0xB8	; 184
     1d6:	9b 40       	sbci	r25, 0x0B	; 11
     1d8:	89 38       	cpi	r24, 0x89	; 137
     1da:	90 49       	sbci	r25, 0x90	; 144
     1dc:	d8 f6       	brcc	.-74     	; 0x194 <.L18>
     1de:	2e e5       	ldi	r18, 0x5E	; 94
     1e0:	32 e0       	ldi	r19, 0x02	; 2
     1e2:	0e 94 da 03 	call	0x7b4	; 0x7b4 <__usmulhisi3>
     1e6:	2a e0       	ldi	r18, 0x0A	; 10
     1e8:	30 e0       	ldi	r19, 0x00	; 0
     1ea:	40 e0       	ldi	r20, 0x00	; 0
     1ec:	50 e0       	ldi	r21, 0x00	; 0
     1ee:	0e 94 bb 03 	call	0x776	; 0x776 <__divmodsi4>
     1f2:	89 01       	movw	r16, r18
     1f4:	9a 01       	movw	r18, r20
     1f6:	0c 5d       	subi	r16, 0xDC	; 220
     1f8:	11 4f       	sbci	r17, 0xF1	; 241
     1fa:	2a 4f       	sbci	r18, 0xFA	; 250
     1fc:	3f 4f       	sbci	r19, 0xFF	; 255
     1fe:	a1 2c       	mov	r10, r1
     200:	b1 2c       	mov	r11, r1
     202:	b8 01       	movw	r22, r16
     204:	c9 01       	movw	r24, r18
     206:	94 01       	movw	r18, r8
     208:	a5 01       	movw	r20, r10
     20a:	0e 94 e1 03 	call	0x7c2	; 0x7c2 <__mulsidi3>
     20e:	ed e2       	ldi	r30, 0x2D	; 45
     210:	be 2e       	mov	r11, r30
     212:	f1 e3       	ldi	r31, 0x31	; 49
     214:	cf 2e       	mov	r12, r31
     216:	f1 e0       	ldi	r31, 0x01	; 1
     218:	df 2e       	mov	r13, r31
     21a:	e1 2c       	mov	r14, r1
     21c:	f1 2c       	mov	r15, r1
     21e:	87 01       	movw	r16, r14
     220:	0e 94 1d 04 	call	0x83a	; 0x83a <__divdi3>
     224:	c9 01       	movw	r24, r18
     226:	bf cf       	rjmp	.-130    	; 0x1a6 <.L15>

00000228 <__vector_7>:
     228:	8f 93       	push	r24
     22a:	81 e0       	ldi	r24, 0x01	; 1
     22c:	80 93 53 01 	sts	0x0153, r24	; 0x800153 <__RODATA_PM_OFFSET__+0x7f8153>
     230:	8f 91       	pop	r24
     232:	18 95       	reti

00000234 <main>:
     234:	cd b7       	in	r28, 0x3d	; 61
     236:	de b7       	in	r29, 0x3e	; 62
     238:	6a 97       	sbiw	r28, 0x1a	; 26
     23a:	cd bf       	out	0x3d, r28	; 61
     23c:	de bf       	out	0x3e, r29	; 62
     23e:	88 ed       	ldi	r24, 0xD8	; 216
     240:	21 e0       	ldi	r18, 0x01	; 1
     242:	30 e0       	ldi	r19, 0x00	; 0
     244:	84 bf       	out	0x34, r24	; 52
     246:	20 93 61 00 	sts	0x0061, r18	; 0x800061 <__RODATA_PM_OFFSET__+0x7f8061>
     24a:	88 e0       	ldi	r24, 0x08	; 8
     24c:	80 93 02 04 	sts	0x0402, r24	; 0x800402 <__RODATA_PM_OFFSET__+0x7f8402>
     250:	80 93 13 04 	sts	0x0413, r24	; 0x800413 <__RODATA_PM_OFFSET__+0x7f8413>
     254:	20 e1       	ldi	r18, 0x10	; 16
     256:	20 93 01 04 	sts	0x0401, r18	; 0x800401 <__RODATA_PM_OFFSET__+0x7f8401>
     25a:	20 93 06 04 	sts	0x0406, r18	; 0x800406 <__RODATA_PM_OFFSET__+0x7f8406>
     25e:	40 e2       	ldi	r20, 0x20	; 32
     260:	40 93 02 04 	sts	0x0402, r20	; 0x800402 <__RODATA_PM_OFFSET__+0x7f8402>
     264:	84 e0       	ldi	r24, 0x04	; 4
     266:	80 93 15 04 	sts	0x0415, r24	; 0x800415 <__RODATA_PM_OFFSET__+0x7f8415>
     26a:	30 e4       	ldi	r19, 0x40	; 64
     26c:	30 93 01 04 	sts	0x0401, r19	; 0x800401 <__RODATA_PM_OFFSET__+0x7f8401>
     270:	30 93 05 04 	sts	0x0405, r19	; 0x800405 <__RODATA_PM_OFFSET__+0x7f8405>
     274:	91 e0       	ldi	r25, 0x01	; 1
     276:	90 93 21 04 	sts	0x0421, r25	; 0x800421 <__RODATA_PM_OFFSET__+0x7f8421>
     27a:	90 93 26 04 	sts	0x0426, r25	; 0x800426 <__RODATA_PM_OFFSET__+0x7f8426>
     27e:	80 93 21 04 	sts	0x0421, r24	; 0x800421 <__RODATA_PM_OFFSET__+0x7f8421>
     282:	80 93 25 04 	sts	0x0425, r24	; 0x800425 <__RODATA_PM_OFFSET__+0x7f8425>
     286:	20 93 22 04 	sts	0x0422, r18	; 0x800422 <__RODATA_PM_OFFSET__+0x7f8422>
     28a:	80 93 34 04 	sts	0x0434, r24	; 0x800434 <__RODATA_PM_OFFSET__+0x7f8434>
     28e:	80 93 10 04 	sts	0x0410, r24	; 0x800410 <__RODATA_PM_OFFSET__+0x7f8410>
     292:	80 93 11 04 	sts	0x0411, r24	; 0x800411 <__RODATA_PM_OFFSET__+0x7f8411>
     296:	80 93 12 04 	sts	0x0412, r24	; 0x800412 <__RODATA_PM_OFFSET__+0x7f8412>
     29a:	80 93 17 04 	sts	0x0417, r24	; 0x800417 <__RODATA_PM_OFFSET__+0x7f8417>
     29e:	80 93 31 04 	sts	0x0431, r24	; 0x800431 <__RODATA_PM_OFFSET__+0x7f8431>
     2a2:	80 93 33 04 	sts	0x0433, r24	; 0x800433 <__RODATA_PM_OFFSET__+0x7f8433>
     2a6:	80 93 35 04 	sts	0x0435, r24	; 0x800435 <__RODATA_PM_OFFSET__+0x7f8435>
     2aa:	80 93 50 04 	sts	0x0450, r24	; 0x800450 <__RODATA_PM_OFFSET__+0x7f8450>
     2ae:	80 93 51 04 	sts	0x0451, r24	; 0x800451 <__RODATA_PM_OFFSET__+0x7f8451>
     2b2:	80 93 52 04 	sts	0x0452, r24	; 0x800452 <__RODATA_PM_OFFSET__+0x7f8452>
     2b6:	80 93 53 04 	sts	0x0453, r24	; 0x800453 <__RODATA_PM_OFFSET__+0x7f8453>
     2ba:	6b e5       	ldi	r22, 0x5B	; 91
     2bc:	71 e0       	ldi	r23, 0x01	; 1
     2be:	60 93 08 08 	sts	0x0808, r22	; 0x800808 <__RODATA_PM_OFFSET__+0x7f8808>
     2c2:	70 93 09 08 	sts	0x0809, r23	; 0x800809 <__RODATA_PM_OFFSET__+0x7f8809>
     2c6:	23 e0       	ldi	r18, 0x03	; 3
     2c8:	20 93 07 08 	sts	0x0807, r18	; 0x800807 <__RODATA_PM_OFFSET__+0x7f8807>
     2cc:	30 93 06 08 	sts	0x0806, r19	; 0x800806 <__RODATA_PM_OFFSET__+0x7f8806>
     2d0:	82 e5       	ldi	r24, 0x52	; 82
     2d2:	80 93 02 06 	sts	0x0602, r24	; 0x800602 <__RODATA_PM_OFFSET__+0x7f8602>
     2d6:	40 93 03 06 	sts	0x0603, r20	; 0x800603 <__RODATA_PM_OFFSET__+0x7f8603>
     2da:	10 92 05 06 	sts	0x0605, r1	; 0x800605 <__RODATA_PM_OFFSET__+0x7f8605>
     2de:	10 92 00 06 	sts	0x0600, r1	; 0x800600 <__RODATA_PM_OFFSET__+0x7f8600>
     2e2:	80 91 a2 00 	lds	r24, 0x00A2	; 0x8000a2 <__RODATA_PM_OFFSET__+0x7f80a2>
     2e6:	88 7f       	andi	r24, 0xF8	; 248
     2e8:	82 60       	ori	r24, 0x02	; 2
     2ea:	80 93 a2 00 	sts	0x00A2, r24	; 0x8000a2 <__RODATA_PM_OFFSET__+0x7f80a2>
     2ee:	80 91 a1 00 	lds	r24, 0x00A1	; 0x8000a1 <__RODATA_PM_OFFSET__+0x7f80a1>
     2f2:	88 60       	ori	r24, 0x08	; 8
     2f4:	80 93 a1 00 	sts	0x00A1, r24	; 0x8000a1 <__RODATA_PM_OFFSET__+0x7f80a1>
     2f8:	8f ef       	ldi	r24, 0xFF	; 255
     2fa:	80 93 a9 06 	sts	0x06A9, r24	; 0x8006a9 <__RODATA_PM_OFFSET__+0x7f86a9>
     2fe:	90 93 a8 06 	sts	0x06A8, r25	; 0x8006a8 <__RODATA_PM_OFFSET__+0x7f86a8>
     302:	8b e1       	ldi	r24, 0x1B	; 27
     304:	80 93 8a 06 	sts	0x068A, r24	; 0x80068a <__RODATA_PM_OFFSET__+0x7f868a>
     308:	20 93 88 06 	sts	0x0688, r18	; 0x800688 <__RODATA_PM_OFFSET__+0x7f8688>
     30c:	83 e1       	ldi	r24, 0x13	; 19
     30e:	80 93 82 01 	sts	0x0182, r24	; 0x800182 <__RODATA_PM_OFFSET__+0x7f8182>
     312:	20 93 92 01 	sts	0x0192, r18	; 0x800192 <__RODATA_PM_OFFSET__+0x7f8192>
     316:	82 e0       	ldi	r24, 0x02	; 2
     318:	80 93 41 0a 	sts	0x0A41, r24	; 0x800a41 <__RODATA_PM_OFFSET__+0x7f8a41>
     31c:	90 93 44 0a 	sts	0x0A44, r25	; 0x800a44 <__RODATA_PM_OFFSET__+0x7f8a44>
     320:	10 92 45 0a 	sts	0x0A45, r1	; 0x800a45 <__RODATA_PM_OFFSET__+0x7f8a45>
     324:	10 92 4a 0a 	sts	0x0A4A, r1	; 0x800a4a <__RODATA_PM_OFFSET__+0x7f8a4a>
     328:	10 92 4b 0a 	sts	0x0A4B, r1	; 0x800a4b <__RODATA_PM_OFFSET__+0x7f8a4b>
     32c:	90 93 46 0a 	sts	0x0A46, r25	; 0x800a46 <__RODATA_PM_OFFSET__+0x7f8a46>
     330:	90 93 40 0a 	sts	0x0A40, r25	; 0x800a40 <__RODATA_PM_OFFSET__+0x7f8a40>

00000334 <.L27>:
     334:	80 91 41 01 	lds	r24, 0x0141	; 0x800141 <__RODATA_PM_OFFSET__+0x7f8141>
     338:	80 fd       	sbrc	r24, 0
     33a:	fc cf       	rjmp	.-8      	; 0x334 <.L27>
     33c:	10 92 47 01 	sts	0x0147, r1	; 0x800147 <__RODATA_PM_OFFSET__+0x7f8147>

00000340 <.L28>:
     340:	80 91 51 01 	lds	r24, 0x0151	; 0x800151 <__RODATA_PM_OFFSET__+0x7f8151>
     344:	80 fd       	sbrc	r24, 0
     346:	fc cf       	rjmp	.-8      	; 0x340 <.L28>
     348:	81 e0       	ldi	r24, 0x01	; 1
     34a:	80 93 52 01 	sts	0x0152, r24	; 0x800152 <__RODATA_PM_OFFSET__+0x7f8152>
     34e:	89 e5       	ldi	r24, 0x59	; 89
     350:	80 93 50 01 	sts	0x0150, r24	; 0x800150 <__RODATA_PM_OFFSET__+0x7f8150>
     354:	83 e0       	ldi	r24, 0x03	; 3
     356:	90 e1       	ldi	r25, 0x10	; 16

00000358 <.L29>:
     358:	90 93 05 04 	sts	0x0405, r25	; 0x800405 <__RODATA_PM_OFFSET__+0x7f8405>
     35c:	2f ed       	ldi	r18, 0xDF	; 223
     35e:	33 e9       	ldi	r19, 0x93	; 147
     360:	44 e0       	ldi	r20, 0x04	; 4

00000362 <.L1^B4>:
     362:	21 50       	subi	r18, 0x01	; 1
     364:	30 40       	sbci	r19, 0x00	; 0
     366:	40 40       	sbci	r20, 0x00	; 0
     368:	e1 f7       	brne	.-8      	; 0x362 <.L1^B4>
     36a:	00 c0       	rjmp	.+0      	; 0x36c <L0^A>

0000036c <L0^A>:
     36c:	00 00       	nop
     36e:	90 93 06 04 	sts	0x0406, r25	; 0x800406 <__RODATA_PM_OFFSET__+0x7f8406>
     372:	2f ed       	ldi	r18, 0xDF	; 223
     374:	33 e9       	ldi	r19, 0x93	; 147
     376:	44 e0       	ldi	r20, 0x04	; 4

00000378 <.L1^B5>:
     378:	21 50       	subi	r18, 0x01	; 1
     37a:	30 40       	sbci	r19, 0x00	; 0
     37c:	40 40       	sbci	r20, 0x00	; 0
     37e:	e1 f7       	brne	.-8      	; 0x378 <.L1^B5>
     380:	00 c0       	rjmp	.+0      	; 0x382 <L0^A>

00000382 <L0^A>:
     382:	00 00       	nop
     384:	81 50       	subi	r24, 0x01	; 1
     386:	41 f7       	brne	.-48     	; 0x358 <.L29>
     388:	10 91 40 00 	lds	r17, 0x0040	; 0x800040 <__RODATA_PM_OFFSET__+0x7f8040>
     38c:	10 93 40 00 	sts	0x0040, r17	; 0x800040 <__RODATA_PM_OFFSET__+0x7f8040>
     390:	86 e2       	ldi	r24, 0x26	; 38
     392:	90 e9       	ldi	r25, 0x90	; 144
     394:	0e 94 51 00 	call	0xa2	; 0xa2 <usart_print>
     398:	e1 2f       	mov	r30, r17
     39a:	e2 95       	swap	r30
     39c:	ef 70       	andi	r30, 0x0F	; 15
     39e:	f0 e0       	ldi	r31, 0x00	; 0
     3a0:	e5 58       	subi	r30, 0x85	; 133
     3a2:	ff 46       	sbci	r31, 0x6F	; 111
     3a4:	80 81       	ld	r24, Z
     3a6:	0e 94 4a 00 	call	0x94	; 0x94 <usart_putc>
     3aa:	1f 70       	andi	r17, 0x0F	; 15
     3ac:	e1 2f       	mov	r30, r17
     3ae:	f0 e0       	ldi	r31, 0x00	; 0
     3b0:	e5 58       	subi	r30, 0x85	; 133
     3b2:	ff 46       	sbci	r31, 0x6F	; 111
     3b4:	80 81       	ld	r24, Z
     3b6:	0e 94 4a 00 	call	0x94	; 0x94 <usart_putc>
     3ba:	81 e5       	ldi	r24, 0x51	; 81
     3bc:	90 e9       	ldi	r25, 0x90	; 144
     3be:	0e 94 51 00 	call	0xa2	; 0xa2 <usart_print>
     3c2:	c1 2c       	mov	r12, r1
     3c4:	d1 2c       	mov	r13, r1
     3c6:	90 e4       	ldi	r25, 0x40	; 64
     3c8:	69 2e       	mov	r6, r25
     3ca:	95 e0       	ldi	r25, 0x05	; 5
     3cc:	79 2e       	mov	r7, r25
     3ce:	ee 24       	eor	r14, r14
     3d0:	e3 94       	inc	r14
     3d2:	30 e1       	ldi	r19, 0x10	; 16
     3d4:	83 2e       	mov	r8, r19

000003d6 <.L30>:
     3d6:	80 91 50 00 	lds	r24, 0x0050	; 0x800050 <__RODATA_PM_OFFSET__+0x7f8050>
     3da:	89 7f       	andi	r24, 0xF9	; 249
     3dc:	82 60       	ori	r24, 0x02	; 2
     3de:	80 93 50 00 	sts	0x0050, r24	; 0x800050 <__RODATA_PM_OFFSET__+0x7f8050>
     3e2:	80 91 50 00 	lds	r24, 0x0050	; 0x800050 <__RODATA_PM_OFFSET__+0x7f8050>
     3e6:	81 60       	ori	r24, 0x01	; 1
     3e8:	80 93 50 00 	sts	0x0050, r24	; 0x800050 <__RODATA_PM_OFFSET__+0x7f8050>
     3ec:	78 94       	sei
     3ee:	88 95       	sleep
     3f0:	80 91 50 00 	lds	r24, 0x0050	; 0x800050 <__RODATA_PM_OFFSET__+0x7f8050>
     3f4:	8e 7f       	andi	r24, 0xFE	; 254
     3f6:	80 93 50 00 	sts	0x0050, r24	; 0x800050 <__RODATA_PM_OFFSET__+0x7f8050>
     3fa:	80 91 08 04 	lds	r24, 0x0408	; 0x800408 <__RODATA_PM_OFFSET__+0x7f8408>
     3fe:	83 fd       	sbrc	r24, 3
     400:	ea cf       	rjmp	.-44     	; 0x3d6 <.L30>
     402:	8f e4       	ldi	r24, 0x4F	; 79
     404:	93 ec       	ldi	r25, 0xC3	; 195

00000406 <.L1^B6>:
     406:	01 97       	sbiw	r24, 0x01	; 1
     408:	f1 f7       	brne	.-4      	; 0x406 <.L1^B6>
     40a:	00 c0       	rjmp	.+0      	; 0x40c <L0^A>

0000040c <L0^A>:
     40c:	00 00       	nop
     40e:	80 91 08 04 	lds	r24, 0x0408	; 0x800408 <__RODATA_PM_OFFSET__+0x7f8408>
     412:	83 fb       	bst	r24, 3
     414:	ff 24       	eor	r15, r15
     416:	f3 f8       	bld	r15, 3
     418:	83 fd       	sbrc	r24, 3
     41a:	dd cf       	rjmp	.-70     	; 0x3d6 <.L30>
     41c:	9f ef       	ldi	r25, 0xFF	; 255
     41e:	c9 1a       	sub	r12, r25
     420:	d9 0a       	sbc	r13, r25
     422:	60 92 06 04 	sts	0x0406, r6	; 0x800406 <__RODATA_PM_OFFSET__+0x7f8406>
     426:	80 91 00 06 	lds	r24, 0x0600	; 0x800600 <__RODATA_PM_OFFSET__+0x7f8600>
     42a:	81 60       	ori	r24, 0x01	; 1
     42c:	80 93 00 06 	sts	0x0600, r24	; 0x800600 <__RODATA_PM_OFFSET__+0x7f8600>
     430:	87 e8       	ldi	r24, 0x87	; 135
     432:	93 e1       	ldi	r25, 0x13	; 19

00000434 <.L1^B7>:
     434:	01 97       	sbiw	r24, 0x01	; 1
     436:	f1 f7       	brne	.-4      	; 0x434 <.L1^B7>
     438:	00 c0       	rjmp	.+0      	; 0x43a <L0^A>

0000043a <L0^A>:
     43a:	00 00       	nop
     43c:	70 92 06 06 	sts	0x0606, r7	; 0x800606 <__RODATA_PM_OFFSET__+0x7f8606>
     440:	e0 92 0b 06 	sts	0x060B, r14	; 0x80060b <__RODATA_PM_OFFSET__+0x7f860b>
     444:	e0 92 08 06 	sts	0x0608, r14	; 0x800608 <__RODATA_PM_OFFSET__+0x7f8608>

00000448 <.L32>:
     448:	80 91 0b 06 	lds	r24, 0x060B	; 0x80060b <__RODATA_PM_OFFSET__+0x7f860b>
     44c:	80 ff       	sbrs	r24, 0
     44e:	fc cf       	rjmp	.-8      	; 0x448 <.L32>
     450:	80 91 10 06 	lds	r24, 0x0610	; 0x800610 <__RODATA_PM_OFFSET__+0x7f8610>
     454:	90 91 11 06 	lds	r25, 0x0611	; 0x800611 <__RODATA_PM_OFFSET__+0x7f8611>
     458:	80 92 05 04 	sts	0x0405, r8	; 0x800405 <__RODATA_PM_OFFSET__+0x7f8405>
     45c:	70 92 06 06 	sts	0x0606, r7	; 0x800606 <__RODATA_PM_OFFSET__+0x7f8606>
     460:	e0 92 0b 06 	sts	0x060B, r14	; 0x80060b <__RODATA_PM_OFFSET__+0x7f860b>
     464:	e0 92 08 06 	sts	0x0608, r14	; 0x800608 <__RODATA_PM_OFFSET__+0x7f8608>

00000468 <.L33>:
     468:	80 91 0b 06 	lds	r24, 0x060B	; 0x80060b <__RODATA_PM_OFFSET__+0x7f860b>
     46c:	80 fb       	bst	r24, 0
     46e:	99 24       	eor	r9, r9
     470:	90 f8       	bld	r9, 0
     472:	80 ff       	sbrs	r24, 0
     474:	f9 cf       	rjmp	.-14     	; 0x468 <.L33>
     476:	00 91 10 06 	lds	r16, 0x0610	; 0x800610 <__RODATA_PM_OFFSET__+0x7f8610>
     47a:	10 91 11 06 	lds	r17, 0x0611	; 0x800611 <__RODATA_PM_OFFSET__+0x7f8611>
     47e:	01 15       	cp	r16, r1
     480:	11 05       	cpc	r17, r1
     482:	09 f4       	brne	.+2      	; 0x486 <L0^A+0x2>

00000484 <L0^A>:
     484:	12 c1       	rjmp	.+548    	; 0x6aa <.L53>
     486:	0f 3f       	cpi	r16, 0xFF	; 255
     488:	93 e0       	ldi	r25, 0x03	; 3
     48a:	19 07       	cpc	r17, r25
     48c:	08 f0       	brcs	.+2      	; 0x490 <L0^A+0x2>

0000048e <L0^A>:
     48e:	10 c1       	rjmp	.+544    	; 0x6b0 <.L54>
     490:	6f ef       	ldi	r22, 0xFF	; 255
     492:	73 e0       	ldi	r23, 0x03	; 3
     494:	60 1b       	sub	r22, r16
     496:	71 0b       	sbc	r23, r17
     498:	80 e0       	ldi	r24, 0x00	; 0
     49a:	90 e0       	ldi	r25, 0x00	; 0
     49c:	0e 94 4c 06 	call	0xc98	; 0xc98 <__floatunsisf>
     4a0:	20 e0       	ldi	r18, 0x00	; 0
     4a2:	30 e4       	ldi	r19, 0x40	; 64
     4a4:	4c e1       	ldi	r20, 0x1C	; 28
     4a6:	56 e4       	ldi	r21, 0x46	; 70
     4a8:	0e 94 bc 07 	call	0xf78	; 0xf78 <__mulsf3>
     4ac:	6b 8b       	std	Y+19, r22	; 0x13
     4ae:	7c 8b       	std	Y+20, r23	; 0x14
     4b0:	8d 8b       	std	Y+21, r24	; 0x15
     4b2:	9e 8b       	std	Y+22, r25	; 0x16
     4b4:	b8 01       	movw	r22, r16
     4b6:	80 e0       	ldi	r24, 0x00	; 0
     4b8:	90 e0       	ldi	r25, 0x00	; 0
     4ba:	0e 94 4c 06 	call	0xc98	; 0xc98 <__floatunsisf>
     4be:	9b 01       	movw	r18, r22
     4c0:	ac 01       	movw	r20, r24
     4c2:	6b 89       	ldd	r22, Y+19	; 0x13
     4c4:	7c 89       	ldd	r23, Y+20	; 0x14
     4c6:	8d 89       	ldd	r24, Y+21	; 0x15
     4c8:	9e 89       	ldd	r25, Y+22	; 0x16
     4ca:	0e 94 0f 07 	call	0xe1e	; 0xe1e <__divsf3>
     4ce:	20 e0       	ldi	r18, 0x00	; 0
     4d0:	30 e4       	ldi	r19, 0x40	; 64
     4d2:	4c e1       	ldi	r20, 0x1C	; 28
     4d4:	56 e4       	ldi	r21, 0x46	; 70
     4d6:	0e 94 0f 07 	call	0xe1e	; 0xe1e <__divsf3>
     4da:	0e 94 2e 05 	call	0xa5c	; 0xa5c <logf>
     4de:	20 e0       	ldi	r18, 0x00	; 0
     4e0:	30 ee       	ldi	r19, 0xE0	; 224
     4e2:	46 e7       	ldi	r20, 0x76	; 118
     4e4:	55 e4       	ldi	r21, 0x45	; 69
     4e6:	0e 94 0f 07 	call	0xe1e	; 0xe1e <__divsf3>
     4ea:	2f e0       	ldi	r18, 0x0F	; 15
     4ec:	3f ec       	ldi	r19, 0xCF	; 207
     4ee:	4b e5       	ldi	r20, 0x5B	; 91
     4f0:	5b e3       	ldi	r21, 0x3B	; 59
     4f2:	0e 94 e0 05 	call	0xbc0	; 0xbc0 <__addsf3>
     4f6:	9b 01       	movw	r18, r22
     4f8:	ac 01       	movw	r20, r24
     4fa:	60 e0       	ldi	r22, 0x00	; 0
     4fc:	70 e0       	ldi	r23, 0x00	; 0
     4fe:	80 e8       	ldi	r24, 0x80	; 128
     500:	9f e3       	ldi	r25, 0x3F	; 63
     502:	0e 94 0f 07 	call	0xe1e	; 0xe1e <__divsf3>
     506:	23 e3       	ldi	r18, 0x33	; 51
     508:	33 e9       	ldi	r19, 0x93	; 147
     50a:	48 e8       	ldi	r20, 0x88	; 136
     50c:	53 e4       	ldi	r21, 0x43	; 67
     50e:	0e 94 df 05 	call	0xbbe	; 0xbbe <__subsf3>
     512:	6b 8b       	std	Y+19, r22	; 0x13
     514:	7c 8b       	std	Y+20, r23	; 0x14
     516:	8d 8b       	std	Y+21, r24	; 0x15
     518:	9e 8b       	std	Y+22, r25	; 0x16
     51a:	20 e0       	ldi	r18, 0x00	; 0
     51c:	30 e0       	ldi	r19, 0x00	; 0
     51e:	40 e2       	ldi	r20, 0x20	; 32
     520:	51 e4       	ldi	r21, 0x41	; 65
     522:	0e 94 bc 07 	call	0xf78	; 0xf78 <__mulsf3>
     526:	6f 8b       	std	Y+23, r22	; 0x17
     528:	78 8f       	std	Y+24, r23	; 0x18
     52a:	89 8f       	std	Y+25, r24	; 0x19
     52c:	9a 8f       	std	Y+26, r25	; 0x1a
     52e:	40 e0       	ldi	r20, 0x00	; 0
     530:	50 e0       	ldi	r21, 0x00	; 0
     532:	9a 01       	movw	r18, r20
     534:	6b 89       	ldd	r22, Y+19	; 0x13
     536:	7c 89       	ldd	r23, Y+20	; 0x14
     538:	8d 89       	ldd	r24, Y+21	; 0x15
     53a:	9e 89       	ldd	r25, Y+22	; 0x16
     53c:	0e 94 b7 07 	call	0xf6e	; 0xf6e <__gesf2>
     540:	40 e0       	ldi	r20, 0x00	; 0
     542:	30 e0       	ldi	r19, 0x00	; 0
     544:	2f e3       	ldi	r18, 0x3F	; 63
     546:	87 fd       	sbrc	r24, 7
     548:	2f eb       	ldi	r18, 0xBF	; 191
     54a:	82 2f       	mov	r24, r18
     54c:	20 e0       	ldi	r18, 0x00	; 0
     54e:	58 2f       	mov	r21, r24
     550:	6f 89       	ldd	r22, Y+23	; 0x17
     552:	78 8d       	ldd	r23, Y+24	; 0x18
     554:	89 8d       	ldd	r24, Y+25	; 0x19
     556:	9a 8d       	ldd	r25, Y+26	; 0x1a
     558:	0e 94 e0 05 	call	0xbc0	; 0xbc0 <__addsf3>
     55c:	0e 94 81 07 	call	0xf02	; 0xf02 <__fixsfsi>
     560:	69 35       	cpi	r22, 0x59	; 89
     562:	22 e0       	ldi	r18, 0x02	; 2
     564:	72 07       	cpc	r23, r18
     566:	81 05       	cpc	r24, r1
     568:	91 05       	cpc	r25, r1
     56a:	0c f4       	brge	.+2      	; 0x56e <L0^A+0x2>

0000056c <L0^A>:
     56c:	94 c0       	rjmp	.+296    	; 0x696 <.L37>
     56e:	68 e5       	ldi	r22, 0x58	; 88
     570:	72 e0       	ldi	r23, 0x02	; 2

00000572 <.L38>:
     572:	8b 01       	movw	r16, r22

00000574 <.L34>:
     574:	68 e0       	ldi	r22, 0x08	; 8
     576:	c8 01       	movw	r24, r16
     578:	0e 94 9f 00 	call	0x13e	; 0x13e <measure_once_mm>
     57c:	8f 3f       	cpi	r24, 0xFF	; 255
     57e:	98 07       	cpc	r25, r24
     580:	09 f4       	brne	.+2      	; 0x584 <L0^A+0x2>

00000582 <L0^A>:
     582:	99 c0       	rjmp	.+306    	; 0x6b6 <.L56>
     584:	86 39       	cpi	r24, 0x96	; 150
     586:	91 05       	cpc	r25, r1
     588:	08 f4       	brcc	.+2      	; 0x58c <L0^A+0x2>

0000058a <L0^A>:
     58a:	98 c0       	rjmp	.+304    	; 0x6bc <.L57>
     58c:	8a 3f       	cpi	r24, 0xFA	; 250
     58e:	91 05       	cpc	r25, r1
     590:	08 f4       	brcc	.+2      	; 0x594 <L0^A+0x2>

00000592 <L0^A>:
     592:	97 c0       	rjmp	.+302    	; 0x6c2 <.L58>
     594:	88 e0       	ldi	r24, 0x08	; 8
     596:	8b 8b       	std	Y+19, r24	; 0x13

00000598 <.L39>:
     598:	89 e0       	ldi	r24, 0x09	; 9
     59a:	b8 2e       	mov	r11, r24

0000059c <.L41>:
     59c:	6b 89       	ldd	r22, Y+19	; 0x13
     59e:	c8 01       	movw	r24, r16
     5a0:	0e 94 9f 00 	call	0x13e	; 0x13e <measure_once_mm>
     5a4:	8f 3f       	cpi	r24, 0xFF	; 255
     5a6:	98 07       	cpc	r25, r24
     5a8:	49 f0       	breq	.+18     	; 0x5bc <.L40>
     5aa:	fe 01       	movw	r30, r28
     5ac:	31 96       	adiw	r30, 0x01	; 1
     5ae:	ef 0d       	add	r30, r15
     5b0:	f1 1d       	adc	r31, r1
     5b2:	ef 0d       	add	r30, r15
     5b4:	f1 1d       	adc	r31, r1
     5b6:	80 83       	st	Z, r24
     5b8:	91 83       	std	Z+1, r25	; 0x01
     5ba:	f3 94       	inc	r15

000005bc <.L40>:
     5bc:	8b e7       	ldi	r24, 0x7B	; 123
     5be:	92 e9       	ldi	r25, 0x92	; 146

000005c0 <.L1^B8>:
     5c0:	01 97       	sbiw	r24, 0x01	; 1
     5c2:	f1 f7       	brne	.-4      	; 0x5c0 <.L1^B8>
     5c4:	00 c0       	rjmp	.+0      	; 0x5c6 <L0^A>

000005c6 <L0^A>:
     5c6:	00 00       	nop
     5c8:	ba 94       	dec	r11
     5ca:	41 f7       	brne	.-48     	; 0x59c <.L41>
     5cc:	80 92 06 04 	sts	0x0406, r8	; 0x800406 <__RODATA_PM_OFFSET__+0x7f8406>
     5d0:	80 91 00 06 	lds	r24, 0x0600	; 0x800600 <__RODATA_PM_OFFSET__+0x7f8600>
     5d4:	8e 7f       	andi	r24, 0xFE	; 254
     5d6:	80 93 00 06 	sts	0x0600, r24	; 0x800600 <__RODATA_PM_OFFSET__+0x7f8600>
     5da:	60 92 05 04 	sts	0x0405, r6	; 0x800405 <__RODATA_PM_OFFSET__+0x7f8405>
     5de:	fe 01       	movw	r30, r28
     5e0:	31 96       	adiw	r30, 0x01	; 1
     5e2:	5f 01       	movw	r10, r30

000005e4 <.L42>:
     5e4:	9f 14       	cp	r9, r15
     5e6:	08 f4       	brcc	.+2      	; 0x5ea <L0^A+0x2>

000005e8 <L0^A>:
     5e8:	6f c0       	rjmp	.+222    	; 0x6c8 <.L46>
     5ea:	88 e5       	ldi	r24, 0x58	; 88
     5ec:	90 e9       	ldi	r25, 0x90	; 144
     5ee:	0e 94 51 00 	call	0xa2	; 0xa2 <usart_print>
     5f2:	c6 01       	movw	r24, r12
     5f4:	0e 94 5e 00 	call	0xbc	; 0xbc <usart_print_u16>
     5f8:	80 e2       	ldi	r24, 0x20	; 32
     5fa:	0e 94 4a 00 	call	0x94	; 0x94 <usart_putc>
     5fe:	92 e0       	ldi	r25, 0x02	; 2
     600:	f9 16       	cp	r15, r25
     602:	08 f0       	brcs	.+2      	; 0x606 <L0^A+0x2>

00000604 <L0^A>:
     604:	7e c0       	rjmp	.+252    	; 0x702 <.L47>
     606:	8a e5       	ldi	r24, 0x5A	; 90
     608:	90 e9       	ldi	r25, 0x90	; 144

0000060a <.L77>:
     60a:	0e 94 51 00 	call	0xa2	; 0xa2 <usart_print>
     60e:	88 e6       	ldi	r24, 0x68	; 104
     610:	90 e9       	ldi	r25, 0x90	; 144
     612:	0e 94 51 00 	call	0xa2	; 0xa2 <usart_print>
     616:	17 ff       	sbrs	r17, 7
     618:	06 c0       	rjmp	.+12     	; 0x626 <.L49>
     61a:	8d e2       	ldi	r24, 0x2D	; 45
     61c:	0e 94 4a 00 	call	0x94	; 0x94 <usart_putc>
     620:	11 95       	neg	r17
     622:	01 95       	neg	r16
     624:	11 09       	sbc	r17, r1

00000626 <.L49>:
     626:	c8 01       	movw	r24, r16
     628:	6a e0       	ldi	r22, 0x0A	; 10
     62a:	70 e0       	ldi	r23, 0x00	; 0
     62c:	0e 94 a7 03 	call	0x74e	; 0x74e <__divmodhi4>
     630:	18 2f       	mov	r17, r24
     632:	cb 01       	movw	r24, r22
     634:	0e 94 5e 00 	call	0xbc	; 0xbc <usart_print_u16>
     638:	8e e2       	ldi	r24, 0x2E	; 46
     63a:	0e 94 4a 00 	call	0x94	; 0x94 <usart_putc>
     63e:	80 e3       	ldi	r24, 0x30	; 48
     640:	81 0f       	add	r24, r17
     642:	0e 94 4a 00 	call	0x94	; 0x94 <usart_putc>
     646:	8c e6       	ldi	r24, 0x6C	; 108
     648:	90 e9       	ldi	r25, 0x90	; 144
     64a:	0e 94 51 00 	call	0xa2	; 0xa2 <usart_print>
     64e:	2b 89       	ldd	r18, Y+19	; 0x13
     650:	82 2f       	mov	r24, r18
     652:	90 e0       	ldi	r25, 0x00	; 0
     654:	0e 94 5e 00 	call	0xbc	; 0xbc <usart_print_u16>
     658:	82 e7       	ldi	r24, 0x72	; 114
     65a:	90 e9       	ldi	r25, 0x90	; 144
     65c:	0e 94 51 00 	call	0xa2	; 0xa2 <usart_print>
     660:	8f 2d       	mov	r24, r15
     662:	90 e0       	ldi	r25, 0x00	; 0
     664:	0e 94 5e 00 	call	0xbc	; 0xbc <usart_print_u16>
     668:	85 e7       	ldi	r24, 0x75	; 117
     66a:	90 e9       	ldi	r25, 0x90	; 144
     66c:	0e 94 51 00 	call	0xa2	; 0xa2 <usart_print>
     670:	89 e0       	ldi	r24, 0x09	; 9
     672:	90 e0       	ldi	r25, 0x00	; 0
     674:	0e 94 5e 00 	call	0xbc	; 0xbc <usart_print_u16>
     678:	87 e7       	ldi	r24, 0x77	; 119
     67a:	90 e9       	ldi	r25, 0x90	; 144
     67c:	0e 94 51 00 	call	0xa2	; 0xa2 <usart_print>

00000680 <.L50>:
     680:	80 91 08 04 	lds	r24, 0x0408	; 0x800408 <__RODATA_PM_OFFSET__+0x7f8408>
     684:	83 fd       	sbrc	r24, 3
     686:	a7 ce       	rjmp	.-690    	; 0x3d6 <.L30>
     688:	87 ea       	ldi	r24, 0xA7	; 167
     68a:	91 e6       	ldi	r25, 0x61	; 97

0000068c <.L1^B9>:
     68c:	01 97       	sbiw	r24, 0x01	; 1
     68e:	f1 f7       	brne	.-4      	; 0x68c <.L1^B9>
     690:	00 c0       	rjmp	.+0      	; 0x692 <L0^A>

00000692 <L0^A>:
     692:	00 00       	nop
     694:	f5 cf       	rjmp	.-22     	; 0x680 <.L50>

00000696 <.L37>:
     696:	68 33       	cpi	r22, 0x38	; 56
     698:	3f ef       	ldi	r19, 0xFF	; 255
     69a:	73 07       	cpc	r23, r19
     69c:	83 07       	cpc	r24, r19
     69e:	93 07       	cpc	r25, r19
     6a0:	0c f0       	brlt	.+2      	; 0x6a4 <L0^A+0x2>

000006a2 <L0^A>:
     6a2:	67 cf       	rjmp	.-306    	; 0x572 <.L38>
     6a4:	68 e3       	ldi	r22, 0x38	; 56
     6a6:	7f ef       	ldi	r23, 0xFF	; 255
     6a8:	64 cf       	rjmp	.-312    	; 0x572 <.L38>

000006aa <.L53>:
     6aa:	08 e3       	ldi	r16, 0x38	; 56
     6ac:	1f ef       	ldi	r17, 0xFF	; 255
     6ae:	62 cf       	rjmp	.-316    	; 0x574 <.L34>

000006b0 <.L54>:
     6b0:	08 e5       	ldi	r16, 0x58	; 88
     6b2:	12 e0       	ldi	r17, 0x02	; 2
     6b4:	5f cf       	rjmp	.-322    	; 0x574 <.L34>

000006b6 <.L56>:
     6b6:	98 e0       	ldi	r25, 0x08	; 8
     6b8:	9b 8b       	std	Y+19, r25	; 0x13
     6ba:	6e cf       	rjmp	.-292    	; 0x598 <.L39>

000006bc <.L57>:
     6bc:	24 e0       	ldi	r18, 0x04	; 4
     6be:	2b 8b       	std	Y+19, r18	; 0x13
     6c0:	6b cf       	rjmp	.-298    	; 0x598 <.L39>

000006c2 <.L58>:
     6c2:	36 e0       	ldi	r19, 0x06	; 6
     6c4:	3b 8b       	std	Y+19, r19	; 0x13
     6c6:	68 cf       	rjmp	.-304    	; 0x598 <.L39>

000006c8 <.L46>:
     6c8:	82 81       	ldd	r24, Z+2	; 0x02
     6ca:	93 81       	ldd	r25, Z+3	; 0x03
     6cc:	4f ef       	ldi	r20, 0xFF	; 255
     6ce:	49 0d       	add	r20, r9
     6d0:	df 01       	movw	r26, r30

000006d2 <.L43>:
     6d2:	2d 91       	ld	r18, X+
     6d4:	3d 91       	ld	r19, X+
     6d6:	12 97       	sbiw	r26, 0x02	; 2
     6d8:	82 17       	cp	r24, r18
     6da:	93 07       	cpc	r25, r19
     6dc:	38 f4       	brcc	.+14     	; 0x6ec <.L44>
     6de:	12 96       	adiw	r26, 0x02	; 2
     6e0:	2d 93       	st	X+, r18
     6e2:	3d 93       	st	X+, r19
     6e4:	41 50       	subi	r20, 0x01	; 1
     6e6:	16 97       	sbiw	r26, 0x06	; 6
     6e8:	4f 3f       	cpi	r20, 0xFF	; 255
     6ea:	99 f7       	brne	.-26     	; 0x6d2 <.L43>

000006ec <.L44>:
     6ec:	a1 e0       	ldi	r26, 0x01	; 1
     6ee:	a4 0f       	add	r26, r20
     6f0:	aa 0f       	add	r26, r26
     6f2:	bb 0b       	sbc	r27, r27
     6f4:	aa 0d       	add	r26, r10
     6f6:	bb 1d       	adc	r27, r11
     6f8:	8d 93       	st	X+, r24
     6fa:	9d 93       	st	X+, r25
     6fc:	93 94       	inc	r9
     6fe:	32 96       	adiw	r30, 0x02	; 2
     700:	71 cf       	rjmp	.-286    	; 0x5e4 <.L42>

00000702 <.L47>:
     702:	82 e6       	ldi	r24, 0x62	; 98
     704:	90 e9       	ldi	r25, 0x90	; 144
     706:	0e 94 51 00 	call	0xa2	; 0xa2 <usart_print>
     70a:	8f 2d       	mov	r24, r15
     70c:	86 95       	lsr	r24
     70e:	f5 01       	movw	r30, r10
     710:	e8 0f       	add	r30, r24
     712:	f1 1d       	adc	r31, r1
     714:	e8 0f       	add	r30, r24
     716:	f1 1d       	adc	r31, r1
     718:	80 81       	ld	r24, Z
     71a:	91 81       	ldd	r25, Z+1	; 0x01
     71c:	0e 94 5e 00 	call	0xbc	; 0xbc <usart_print_u16>
     720:	85 e6       	ldi	r24, 0x65	; 101
     722:	90 e9       	ldi	r25, 0x90	; 144
     724:	72 cf       	rjmp	.-284    	; 0x60a <.L77>

00000726 <__udivmodhi4>:
     726:	aa 1b       	sub	r26, r26

00000728 <.Loc.1>:
     728:	bb 1b       	sub	r27, r27

0000072a <.Loc.2>:
     72a:	51 e1       	ldi	r21, 0x11	; 17

0000072c <.Loc.3>:
     72c:	07 c0       	rjmp	.+14     	; 0x73c <__udivmodhi4_ep>

0000072e <__udivmodhi4_loop>:
     72e:	aa 1f       	adc	r26, r26

00000730 <.Loc.5>:
     730:	bb 1f       	adc	r27, r27

00000732 <.Loc.6>:
     732:	a6 17       	cp	r26, r22

00000734 <.Loc.7>:
     734:	b7 07       	cpc	r27, r23

00000736 <.Loc.8>:
     736:	10 f0       	brcs	.+4      	; 0x73c <__udivmodhi4_ep>

00000738 <.Loc.9>:
     738:	a6 1b       	sub	r26, r22

0000073a <.Loc.10>:
     73a:	b7 0b       	sbc	r27, r23

0000073c <__udivmodhi4_ep>:
     73c:	88 1f       	adc	r24, r24

0000073e <.Loc.12>:
     73e:	99 1f       	adc	r25, r25

00000740 <.Loc.13>:
     740:	5a 95       	dec	r21

00000742 <.Loc.14>:
     742:	a9 f7       	brne	.-22     	; 0x72e <__udivmodhi4_loop>

00000744 <.Loc.15>:
     744:	80 95       	com	r24

00000746 <.Loc.16>:
     746:	90 95       	com	r25

00000748 <.Loc.17>:
     748:	bc 01       	movw	r22, r24

0000074a <.Loc.18>:
     74a:	cd 01       	movw	r24, r26

0000074c <.Loc.19>:
     74c:	08 95       	ret

0000074e <__divmodhi4>:
     74e:	97 fb       	bst	r25, 7

00000750 <.Loc.1>:
     750:	07 2e       	mov	r0, r23

00000752 <.Loc.2>:
     752:	16 f4       	brtc	.+4      	; 0x758 <.L0^B1>

00000754 <.Loc.3>:
     754:	00 94       	com	r0

00000756 <.Loc.4>:
     756:	07 d0       	rcall	.+14     	; 0x766 <__divmodhi4_neg1>

00000758 <.L0^B1>:
     758:	77 fd       	sbrc	r23, 7

0000075a <.Loc.6>:
     75a:	09 d0       	rcall	.+18     	; 0x76e <__divmodhi4_neg2>

0000075c <.Loc.7>:
     75c:	0e 94 93 03 	call	0x726	; 0x726 <__udivmodhi4>

00000760 <.Loc.8>:
     760:	07 fc       	sbrc	r0, 7

00000762 <.Loc.9>:
     762:	05 d0       	rcall	.+10     	; 0x76e <__divmodhi4_neg2>

00000764 <.Loc.10>:
     764:	3e f4       	brtc	.+14     	; 0x774 <__divmodhi4_exit>

00000766 <__divmodhi4_neg1>:
     766:	90 95       	com	r25

00000768 <.Loc.12>:
     768:	81 95       	neg	r24

0000076a <.Loc.13>:
     76a:	9f 4f       	sbci	r25, 0xFF	; 255

0000076c <.Loc.14>:
     76c:	08 95       	ret

0000076e <__divmodhi4_neg2>:
     76e:	70 95       	com	r23

00000770 <.Loc.16>:
     770:	61 95       	neg	r22

00000772 <.Loc.17>:
     772:	7f 4f       	sbci	r23, 0xFF	; 255

00000774 <__divmodhi4_exit>:
     774:	08 95       	ret

00000776 <__divmodsi4>:
     776:	05 2e       	mov	r0, r21

00000778 <.Loc.1>:
     778:	97 fb       	bst	r25, 7

0000077a <.Loc.2>:
     77a:	1e f4       	brtc	.+6      	; 0x782 <.L0^B1>

0000077c <.Loc.3>:
     77c:	00 94       	com	r0

0000077e <.Loc.4>:
     77e:	0e 94 d2 03 	call	0x7a4	; 0x7a4 <__negsi2>

00000782 <.L0^B1>:
     782:	57 fd       	sbrc	r21, 7

00000784 <.Loc.6>:
     784:	07 d0       	rcall	.+14     	; 0x794 <__divmodsi4_neg2>

00000786 <.Loc.7>:
     786:	0e 94 fb 04 	call	0x9f6	; 0x9f6 <__udivmodsi4>

0000078a <.Loc.8>:
     78a:	07 fc       	sbrc	r0, 7

0000078c <.Loc.9>:
     78c:	03 d0       	rcall	.+6      	; 0x794 <__divmodsi4_neg2>

0000078e <.Loc.10>:
     78e:	4e f4       	brtc	.+18     	; 0x7a2 <__divmodsi4_exit>

00000790 <.Loc.11>:
     790:	0c 94 d2 03 	jmp	0x7a4	; 0x7a4 <__negsi2>

00000794 <__divmodsi4_neg2>:
     794:	50 95       	com	r21

00000796 <.Loc.13>:
     796:	40 95       	com	r20

00000798 <.Loc.14>:
     798:	30 95       	com	r19

0000079a <.Loc.15>:
     79a:	21 95       	neg	r18

0000079c <.Loc.16>:
     79c:	3f 4f       	sbci	r19, 0xFF	; 255

0000079e <.Loc.17>:
     79e:	4f 4f       	sbci	r20, 0xFF	; 255

000007a0 <.Loc.18>:
     7a0:	5f 4f       	sbci	r21, 0xFF	; 255

000007a2 <__divmodsi4_exit>:
     7a2:	08 95       	ret

000007a4 <__negsi2>:
     7a4:	90 95       	com	r25
     7a6:	80 95       	com	r24
     7a8:	70 95       	com	r23
     7aa:	61 95       	neg	r22
     7ac:	7f 4f       	sbci	r23, 0xFF	; 255
     7ae:	8f 4f       	sbci	r24, 0xFF	; 255
     7b0:	9f 4f       	sbci	r25, 0xFF	; 255

000007b2 <.Loc.1>:
     7b2:	08 95       	ret

000007b4 <__usmulhisi3>:
     7b4:	0e 94 ec 04 	call	0x9d8	; 0x9d8 <__umulhisi3>

000007b8 <__usmulhisi3_tail>:
     7b8:	b7 ff       	sbrs	r27, 7

000007ba <.Loc.2>:
     7ba:	08 95       	ret

000007bc <.Loc.3>:
     7bc:	82 1b       	sub	r24, r18

000007be <.Loc.4>:
     7be:	93 0b       	sbc	r25, r19

000007c0 <.Loc.5>:
     7c0:	08 95       	ret

000007c2 <__mulsidi3>:
     7c2:	97 fb       	bst	r25, 7

000007c4 <.Loc.1>:
     7c4:	57 ff       	sbrs	r21, 7

000007c6 <.Loc.2>:
     7c6:	0c 94 f1 03 	jmp	0x7e2	; 0x7e2 <__umulsidi3_helper>

000007ca <.Loc.3>:
     7ca:	9f 93       	push	r25

000007cc <.Loc.4>:
     7cc:	8f 93       	push	r24

000007ce <.Loc.5>:
     7ce:	0e 94 f1 03 	call	0x7e2	; 0x7e2 <__umulsidi3_helper>

000007d2 <.Loc.6>:
     7d2:	6e 1b       	sub	r22, r30

000007d4 <.Loc.7>:
     7d4:	7f 0b       	sbc	r23, r31

000007d6 <.Loc.8>:
     7d6:	af 91       	pop	r26

000007d8 <.Loc.9>:
     7d8:	bf 91       	pop	r27

000007da <.Loc.10>:
     7da:	8a 0b       	sbc	r24, r26

000007dc <.Loc.11>:
     7dc:	9b 0b       	sbc	r25, r27

000007de <.Loc.12>:
     7de:	08 95       	ret

000007e0 <__umulsidi3>:
     7e0:	e8 94       	clt

000007e2 <__umulsidi3_helper>:
     7e2:	df 93       	push	r29
     7e4:	cf 93       	push	r28

000007e6 <.Loc.2>:
     7e6:	fc 01       	movw	r30, r24

000007e8 <.Loc.3>:
     7e8:	db 01       	movw	r26, r22

000007ea <.Loc.4>:
     7ea:	0e 94 ec 04 	call	0x9d8	; 0x9d8 <__umulhisi3>

000007ee <.Loc.5>:
     7ee:	7f 93       	push	r23
     7f0:	6f 93       	push	r22

000007f2 <.Loc.6>:
     7f2:	e9 01       	movw	r28, r18

000007f4 <.Loc.7>:
     7f4:	9a 01       	movw	r18, r20

000007f6 <.Loc.8>:
     7f6:	ac 01       	movw	r20, r24

000007f8 <.Loc.9>:
     7f8:	bf 93       	push	r27
     7fa:	af 93       	push	r26

000007fc <.Loc.10>:
     7fc:	3f 93       	push	r19
     7fe:	2f 93       	push	r18

00000800 <.Loc.11>:
     800:	df 01       	movw	r26, r30

00000802 <.Loc.12>:
     802:	0e 94 ec 04 	call	0x9d8	; 0x9d8 <__umulhisi3>

00000806 <.Loc.13>:
     806:	26 f4       	brtc	.+8      	; 0x810 <.L0^B1>

00000808 <.Loc.14>:
     808:	6c 1b       	sub	r22, r28

0000080a <.Loc.15>:
     80a:	7d 0b       	sbc	r23, r29

0000080c <.Loc.16>:
     80c:	82 0b       	sbc	r24, r18

0000080e <.Loc.17>:
     80e:	93 0b       	sbc	r25, r19

00000810 <.L0^B1>:
     810:	9e 01       	movw	r18, r28

00000812 <.Loc.19>:
     812:	eb 01       	movw	r28, r22

00000814 <.Loc.20>:
     814:	fc 01       	movw	r30, r24

00000816 <.Loc.21>:
     816:	0e 94 1d 05 	call	0xa3a	; 0xa3a <__muldi3_6>

0000081a <.Loc.22>:
     81a:	af 91       	pop	r26
     81c:	bf 91       	pop	r27

0000081e <.Loc.23>:
     81e:	2f 91       	pop	r18
     820:	3f 91       	pop	r19

00000822 <.Loc.24>:
     822:	0e 94 1d 05 	call	0xa3a	; 0xa3a <__muldi3_6>

00000826 <.Loc.25>:
     826:	be 01       	movw	r22, r28

00000828 <.Loc.26>:
     828:	cf 01       	movw	r24, r30

0000082a <.Loc.27>:
     82a:	f9 01       	movw	r30, r18

0000082c <.Loc.28>:
     82c:	2f 91       	pop	r18
     82e:	3f 91       	pop	r19

00000830 <.Loc.29>:
     830:	cf 91       	pop	r28
     832:	df 91       	pop	r29

00000834 <.Loc.30>:
     834:	08 95       	ret

00000836 <__moddi3>:
     836:	68 94       	set

00000838 <.Loc.1>:
     838:	01 c0       	rjmp	.+2      	; 0x83c <__divdi3_moddi3>

0000083a <__divdi3>:
     83a:	e8 94       	clt

0000083c <__divdi3_moddi3>:
     83c:	f9 2f       	mov	r31, r25

0000083e <.Loc.4>:
     83e:	f1 2b       	or	r31, r17

00000840 <.Loc.5>:
     840:	12 f0       	brmi	.+4      	; 0x846 <.L0^B1>

00000842 <.Loc.6>:
     842:	0c 94 4f 04 	jmp	0x89e	; 0x89e <__udivdi3_umoddi3>

00000846 <.L0^B1>:
     846:	a0 e0       	ldi	r26, 0x00	; 0
     848:	b0 e0       	ldi	r27, 0x00	; 0
     84a:	e9 e2       	ldi	r30, 0x29	; 41
     84c:	f4 e0       	ldi	r31, 0x04	; 4
     84e:	0c 94 c1 04 	jmp	0x982	; 0x982 <.Loc.6>

00000852 <.L_prologue_saves.5>:
     852:	09 2e       	mov	r0, r25

00000854 <.Loc.9>:
     854:	05 94       	asr	r0

00000856 <.Loc.10>:
     856:	22 f4       	brpl	.+8      	; 0x860 <.L22^B1>

00000858 <.Loc.11>:
     858:	0e 94 ab 04 	call	0x956	; 0x956 <__negdi2>

0000085c <.Loc.12>:
     85c:	11 23       	and	r17, r17

0000085e <.Loc.13>:
     85e:	92 f4       	brpl	.+36     	; 0x884 <.L3^B1>

00000860 <.L22^B1>:
     860:	f0 e8       	ldi	r31, 0x80	; 128

00000862 <.Loc.15>:
     862:	0f 26       	eor	r0, r31

00000864 <.Loc.16>:
     864:	ff ef       	ldi	r31, 0xFF	; 255

00000866 <.Loc.17>:
     866:	e0 94       	com	r14
     868:	f0 94       	com	r15
     86a:	00 95       	com	r16
     86c:	10 95       	com	r17

0000086e <.Loc.18>:
     86e:	b0 94       	com	r11
     870:	c0 94       	com	r12
     872:	d0 94       	com	r13

00000874 <.Loc.19>:
     874:	a1 94       	neg	r10

00000876 <.Loc.20>:
     876:	bf 0a       	sbc	r11, r31
     878:	cf 0a       	sbc	r12, r31
     87a:	df 0a       	sbc	r13, r31

0000087c <.Loc.21>:
     87c:	ef 0a       	sbc	r14, r31
     87e:	ff 0a       	sbc	r15, r31
     880:	0f 0b       	sbc	r16, r31
     882:	1f 0b       	sbc	r17, r31

00000884 <.L3^B1>:
     884:	0e 94 5a 04 	call	0x8b4	; 0x8b4 <__udivmod64>

00000888 <.Loc.23>:
     888:	07 fc       	sbrc	r0, 7

0000088a <.Loc.24>:
     88a:	0e 94 ab 04 	call	0x956	; 0x956 <__negdi2>

0000088e <.Loc.25>:
     88e:	cd b7       	in	r28, 0x3d	; 61
     890:	de b7       	in	r29, 0x3e	; 62
     892:	ec e0       	ldi	r30, 0x0C	; 12
     894:	0c 94 da 04 	jmp	0x9b4	; 0x9b4 <.Loc.6>

00000898 <__umoddi3>:
     898:	68 94       	set

0000089a <.Loc.1>:
     89a:	01 c0       	rjmp	.+2      	; 0x89e <__udivdi3_umoddi3>

0000089c <__udivdi3>:
     89c:	e8 94       	clt

0000089e <__udivdi3_umoddi3>:
     89e:	8f 92       	push	r8

000008a0 <.Loc.4>:
     8a0:	9f 92       	push	r9

000008a2 <.Loc.5>:
     8a2:	cf 93       	push	r28

000008a4 <.Loc.6>:
     8a4:	df 93       	push	r29

000008a6 <.Loc.7>:
     8a6:	0e 94 5a 04 	call	0x8b4	; 0x8b4 <__udivmod64>

000008aa <.Loc.8>:
     8aa:	df 91       	pop	r29

000008ac <.Loc.9>:
     8ac:	cf 91       	pop	r28

000008ae <.Loc.10>:
     8ae:	9f 90       	pop	r9

000008b0 <.Loc.11>:
     8b0:	8f 90       	pop	r8

000008b2 <.Loc.12>:
     8b2:	08 95       	ret

000008b4 <__udivmod64>:
     8b4:	88 24       	eor	r8, r8

000008b6 <.Loc.1>:
     8b6:	99 24       	eor	r9, r9

000008b8 <.Loc.2>:
     8b8:	f4 01       	movw	r30, r8

000008ba <.Loc.3>:
     8ba:	e4 01       	movw	r28, r8

000008bc <.Loc.4>:
     8bc:	b0 e4       	ldi	r27, 0x40	; 64

000008be <.Loc.5>:
     8be:	9f 93       	push	r25

000008c0 <.Loc.6>:
     8c0:	aa 27       	eor	r26, r26

000008c2 <.L1^B1>:
     8c2:	9a 15       	cp	r25, r10
     8c4:	8b 04       	cpc	r8, r11
     8c6:	9c 04       	cpc	r9, r12
     8c8:	ed 05       	cpc	r30, r13

000008ca <.Loc.8>:
     8ca:	fe 05       	cpc	r31, r14
     8cc:	cf 05       	cpc	r28, r15
     8ce:	d0 07       	cpc	r29, r16
     8d0:	a1 07       	cpc	r26, r17

000008d2 <.Loc.9>:
     8d2:	98 f4       	brcc	.+38     	; 0x8fa <.L2^B1>

000008d4 <.Loc.10>:
     8d4:	ad 2f       	mov	r26, r29
     8d6:	dc 2f       	mov	r29, r28
     8d8:	cf 2f       	mov	r28, r31

000008da <.Loc.11>:
     8da:	fe 2f       	mov	r31, r30
     8dc:	e9 2d       	mov	r30, r9
     8de:	98 2c       	mov	r9, r8
     8e0:	89 2e       	mov	r8, r25

000008e2 <.Loc.12>:
     8e2:	98 2f       	mov	r25, r24
     8e4:	87 2f       	mov	r24, r23
     8e6:	76 2f       	mov	r23, r22
     8e8:	65 2f       	mov	r22, r21

000008ea <.Loc.13>:
     8ea:	54 2f       	mov	r21, r20
     8ec:	43 2f       	mov	r20, r19
     8ee:	32 2f       	mov	r19, r18
     8f0:	22 27       	eor	r18, r18

000008f2 <.Loc.14>:
     8f2:	b8 50       	subi	r27, 0x08	; 8

000008f4 <.Loc.15>:
     8f4:	31 f7       	brne	.-52     	; 0x8c2 <.L1^B1>

000008f6 <.Loc.16>:
     8f6:	bf 91       	pop	r27

000008f8 <.Loc.17>:
     8f8:	27 c0       	rjmp	.+78     	; 0x948 <.L5^B1>

000008fa <.L2^B1>:
     8fa:	1b 2e       	mov	r1, r27

000008fc <.Loc.19>:
     8fc:	bf 91       	pop	r27

000008fe <.Loc.20>:
     8fe:	bb 27       	eor	r27, r27

00000900 <.L3^B1>:
     900:	22 0f       	add	r18, r18
     902:	33 1f       	adc	r19, r19
     904:	44 1f       	adc	r20, r20
     906:	55 1f       	adc	r21, r21

00000908 <.Loc.22>:
     908:	66 1f       	adc	r22, r22
     90a:	77 1f       	adc	r23, r23
     90c:	88 1f       	adc	r24, r24
     90e:	99 1f       	adc	r25, r25

00000910 <.Loc.23>:
     910:	88 1c       	adc	r8, r8
     912:	99 1c       	adc	r9, r9
     914:	ee 1f       	adc	r30, r30
     916:	ff 1f       	adc	r31, r31

00000918 <.Loc.24>:
     918:	cc 1f       	adc	r28, r28
     91a:	dd 1f       	adc	r29, r29
     91c:	aa 1f       	adc	r26, r26
     91e:	bb 1f       	adc	r27, r27

00000920 <.Loc.25>:
     920:	8a 14       	cp	r8, r10
     922:	9b 04       	cpc	r9, r11
     924:	ec 05       	cpc	r30, r12
     926:	fd 05       	cpc	r31, r13

00000928 <.Loc.26>:
     928:	ce 05       	cpc	r28, r14
     92a:	df 05       	cpc	r29, r15
     92c:	a0 07       	cpc	r26, r16
     92e:	b1 07       	cpc	r27, r17

00000930 <.Loc.27>:
     930:	48 f0       	brcs	.+18     	; 0x944 <.L4^B1>

00000932 <.Loc.28>:
     932:	8a 18       	sub	r8, r10
     934:	9b 08       	sbc	r9, r11
     936:	ec 09       	sbc	r30, r12
     938:	fd 09       	sbc	r31, r13

0000093a <.Loc.29>:
     93a:	ce 09       	sbc	r28, r14
     93c:	df 09       	sbc	r29, r15
     93e:	a0 0b       	sbc	r26, r16
     940:	b1 0b       	sbc	r27, r17

00000942 <.Loc.30>:
     942:	21 60       	ori	r18, 0x01	; 1

00000944 <.L4^B1>:
     944:	1a 94       	dec	r1

00000946 <.Loc.32>:
     946:	e1 f6       	brne	.-72     	; 0x900 <.L3^B1>

00000948 <.L5^B1>:
     948:	2e f4       	brtc	.+10     	; 0x954 <.L6^B1>

0000094a <.Loc.34>:
     94a:	94 01       	movw	r18, r8

0000094c <.Loc.35>:
     94c:	af 01       	movw	r20, r30

0000094e <.Loc.36>:
     94e:	be 01       	movw	r22, r28

00000950 <.Loc.37>:
     950:	cd 01       	movw	r24, r26

00000952 <.Loc.38>:
     952:	00 0c       	add	r0, r0

00000954 <.L6^B1>:
     954:	08 95       	ret

00000956 <__negdi2>:
     956:	60 95       	com	r22
     958:	70 95       	com	r23
     95a:	80 95       	com	r24
     95c:	90 95       	com	r25

0000095e <.Loc.1>:
     95e:	30 95       	com	r19
     960:	40 95       	com	r20
     962:	50 95       	com	r21

00000964 <.Loc.2>:
     964:	21 95       	neg	r18

00000966 <.Loc.3>:
     966:	3f 4f       	sbci	r19, 0xFF	; 255
     968:	4f 4f       	sbci	r20, 0xFF	; 255
     96a:	5f 4f       	sbci	r21, 0xFF	; 255

0000096c <.Loc.4>:
     96c:	6f 4f       	sbci	r22, 0xFF	; 255
     96e:	7f 4f       	sbci	r23, 0xFF	; 255
     970:	8f 4f       	sbci	r24, 0xFF	; 255
     972:	9f 4f       	sbci	r25, 0xFF	; 255

00000974 <.Loc.5>:
     974:	08 95       	ret

00000976 <__prologue_saves__>:
     976:	2f 92       	push	r2

00000978 <.Loc.1>:
     978:	3f 92       	push	r3

0000097a <.Loc.2>:
     97a:	4f 92       	push	r4

0000097c <.Loc.3>:
     97c:	5f 92       	push	r5

0000097e <.Loc.4>:
     97e:	6f 92       	push	r6

00000980 <.Loc.5>:
     980:	7f 92       	push	r7

00000982 <.Loc.6>:
     982:	8f 92       	push	r8

00000984 <.Loc.7>:
     984:	9f 92       	push	r9

00000986 <.Loc.8>:
     986:	af 92       	push	r10

00000988 <.Loc.9>:
     988:	bf 92       	push	r11

0000098a <.Loc.10>:
     98a:	cf 92       	push	r12

0000098c <.Loc.11>:
     98c:	df 92       	push	r13

0000098e <.Loc.12>:
     98e:	ef 92       	push	r14

00000990 <.Loc.13>:
     990:	ff 92       	push	r15

00000992 <.Loc.14>:
     992:	0f 93       	push	r16

00000994 <.Loc.15>:
     994:	1f 93       	push	r17

00000996 <.Loc.16>:
     996:	cf 93       	push	r28

00000998 <.Loc.17>:
     998:	df 93       	push	r29

0000099a <.Loc.18>:
     99a:	cd b7       	in	r28, 0x3d	; 61

0000099c <.Loc.19>:
     99c:	de b7       	in	r29, 0x3e	; 62

0000099e <.Loc.20>:
     99e:	ca 1b       	sub	r28, r26

000009a0 <.Loc.21>:
     9a0:	db 0b       	sbc	r29, r27

000009a2 <.Loc.22>:
     9a2:	cd bf       	out	0x3d, r28	; 61

000009a4 <.Loc.23>:
     9a4:	de bf       	out	0x3e, r29	; 62

000009a6 <.Loc.24>:
     9a6:	09 94       	ijmp

000009a8 <__epilogue_restores__>:
     9a8:	2a 88       	ldd	r2, Y+18	; 0x12

000009aa <.Loc.1>:
     9aa:	39 88       	ldd	r3, Y+17	; 0x11

000009ac <.Loc.2>:
     9ac:	48 88       	ldd	r4, Y+16	; 0x10

000009ae <.Loc.3>:
     9ae:	5f 84       	ldd	r5, Y+15	; 0x0f

000009b0 <.Loc.4>:
     9b0:	6e 84       	ldd	r6, Y+14	; 0x0e

000009b2 <.Loc.5>:
     9b2:	7d 84       	ldd	r7, Y+13	; 0x0d

000009b4 <.Loc.6>:
     9b4:	8c 84       	ldd	r8, Y+12	; 0x0c

000009b6 <.Loc.7>:
     9b6:	9b 84       	ldd	r9, Y+11	; 0x0b

000009b8 <.Loc.8>:
     9b8:	aa 84       	ldd	r10, Y+10	; 0x0a

000009ba <.Loc.9>:
     9ba:	b9 84       	ldd	r11, Y+9	; 0x09

000009bc <.Loc.10>:
     9bc:	c8 84       	ldd	r12, Y+8	; 0x08

000009be <.Loc.11>:
     9be:	df 80       	ldd	r13, Y+7	; 0x07

000009c0 <.Loc.12>:
     9c0:	ee 80       	ldd	r14, Y+6	; 0x06

000009c2 <.Loc.13>:
     9c2:	fd 80       	ldd	r15, Y+5	; 0x05

000009c4 <.Loc.14>:
     9c4:	0c 81       	ldd	r16, Y+4	; 0x04

000009c6 <.Loc.15>:
     9c6:	1b 81       	ldd	r17, Y+3	; 0x03

000009c8 <.Loc.16>:
     9c8:	aa 81       	ldd	r26, Y+2	; 0x02

000009ca <.Loc.17>:
     9ca:	b9 81       	ldd	r27, Y+1	; 0x01

000009cc <.Loc.18>:
     9cc:	ce 0f       	add	r28, r30

000009ce <.Loc.19>:
     9ce:	d1 1d       	adc	r29, r1

000009d0 <.Loc.20>:
     9d0:	cd bf       	out	0x3d, r28	; 61

000009d2 <.Loc.21>:
     9d2:	de bf       	out	0x3e, r29	; 62

000009d4 <.Loc.22>:
     9d4:	ed 01       	movw	r28, r26

000009d6 <.Loc.23>:
     9d6:	08 95       	ret

000009d8 <__umulhisi3>:
     9d8:	a2 9f       	mul	r26, r18

000009da <.Loc.1>:
     9da:	b0 01       	movw	r22, r0

000009dc <.Loc.2>:
     9dc:	b3 9f       	mul	r27, r19

000009de <.Loc.3>:
     9de:	c0 01       	movw	r24, r0

000009e0 <.Loc.4>:
     9e0:	a3 9f       	mul	r26, r19

000009e2 <.Loc.5>:
     9e2:	70 0d       	add	r23, r0

000009e4 <.Loc.6>:
     9e4:	81 1d       	adc	r24, r1

000009e6 <.Loc.7>:
     9e6:	11 24       	eor	r1, r1

000009e8 <.Loc.8>:
     9e8:	91 1d       	adc	r25, r1

000009ea <.Loc.9>:
     9ea:	b2 9f       	mul	r27, r18

000009ec <.Loc.10>:
     9ec:	70 0d       	add	r23, r0

000009ee <.Loc.11>:
     9ee:	81 1d       	adc	r24, r1

000009f0 <.Loc.12>:
     9f0:	11 24       	eor	r1, r1

000009f2 <.Loc.13>:
     9f2:	91 1d       	adc	r25, r1

000009f4 <.Loc.14>:
     9f4:	08 95       	ret

000009f6 <__udivmodsi4>:
     9f6:	a1 e2       	ldi	r26, 0x21	; 33

000009f8 <.Loc.1>:
     9f8:	1a 2e       	mov	r1, r26

000009fa <.Loc.2>:
     9fa:	aa 1b       	sub	r26, r26

000009fc <.Loc.3>:
     9fc:	bb 1b       	sub	r27, r27

000009fe <.Loc.4>:
     9fe:	fd 01       	movw	r30, r26

00000a00 <.Loc.5>:
     a00:	0d c0       	rjmp	.+26     	; 0xa1c <__udivmodsi4_ep>

00000a02 <__udivmodsi4_loop>:
     a02:	aa 1f       	adc	r26, r26

00000a04 <.Loc.7>:
     a04:	bb 1f       	adc	r27, r27

00000a06 <.Loc.8>:
     a06:	ee 1f       	adc	r30, r30

00000a08 <.Loc.9>:
     a08:	ff 1f       	adc	r31, r31

00000a0a <.Loc.10>:
     a0a:	a2 17       	cp	r26, r18

00000a0c <.Loc.11>:
     a0c:	b3 07       	cpc	r27, r19

00000a0e <.Loc.12>:
     a0e:	e4 07       	cpc	r30, r20

00000a10 <.Loc.13>:
     a10:	f5 07       	cpc	r31, r21

00000a12 <.Loc.14>:
     a12:	20 f0       	brcs	.+8      	; 0xa1c <__udivmodsi4_ep>

00000a14 <.Loc.15>:
     a14:	a2 1b       	sub	r26, r18

00000a16 <.Loc.16>:
     a16:	b3 0b       	sbc	r27, r19

00000a18 <.Loc.17>:
     a18:	e4 0b       	sbc	r30, r20

00000a1a <.Loc.18>:
     a1a:	f5 0b       	sbc	r31, r21

00000a1c <__udivmodsi4_ep>:
     a1c:	66 1f       	adc	r22, r22

00000a1e <.Loc.20>:
     a1e:	77 1f       	adc	r23, r23

00000a20 <.Loc.21>:
     a20:	88 1f       	adc	r24, r24

00000a22 <.Loc.22>:
     a22:	99 1f       	adc	r25, r25

00000a24 <.Loc.23>:
     a24:	1a 94       	dec	r1

00000a26 <.Loc.24>:
     a26:	69 f7       	brne	.-38     	; 0xa02 <__udivmodsi4_loop>

00000a28 <.Loc.25>:
     a28:	60 95       	com	r22

00000a2a <.Loc.26>:
     a2a:	70 95       	com	r23

00000a2c <.Loc.27>:
     a2c:	80 95       	com	r24

00000a2e <.Loc.28>:
     a2e:	90 95       	com	r25

00000a30 <.Loc.29>:
     a30:	9b 01       	movw	r18, r22

00000a32 <.Loc.30>:
     a32:	ac 01       	movw	r20, r24

00000a34 <.Loc.31>:
     a34:	bd 01       	movw	r22, r26

00000a36 <.Loc.32>:
     a36:	cf 01       	movw	r24, r30

00000a38 <.Loc.33>:
     a38:	08 95       	ret

00000a3a <__muldi3_6>:
     a3a:	0e 94 ec 04 	call	0x9d8	; 0x9d8 <__umulhisi3>

00000a3e <.Loc.1>:
     a3e:	46 0f       	add	r20, r22

00000a40 <.Loc.2>:
     a40:	57 1f       	adc	r21, r23

00000a42 <.Loc.3>:
     a42:	c8 1f       	adc	r28, r24

00000a44 <.Loc.4>:
     a44:	d9 1f       	adc	r29, r25

00000a46 <.Loc.5>:
     a46:	08 f4       	brcc	.+2      	; 0xa4a <.L0^B1>

00000a48 <.Loc.6>:
     a48:	31 96       	adiw	r30, 0x01	; 1

00000a4a <.L0^B1>:
     a4a:	08 95       	ret

00000a4c <L0^A>:
     a4c:	16 f0       	brts	.+4      	; 0xa52 <.L_nan>
     a4e:	0c 94 8f 06 	jmp	0xd1e	; 0xd1e <__fp_mpack>

00000a52 <.L_nan>:
     a52:	0c 94 9d 06 	jmp	0xd3a	; 0xd3a <__fp_nan>

00000a56 <.L_min>:
     a56:	68 94       	set
     a58:	0c 94 89 06 	jmp	0xd12	; 0xd12 <__fp_inf>

00000a5c <logf>:
     a5c:	0e 94 ee 06 	call	0xddc	; 0xddc <__fp_splitA>
     a60:	a8 f3       	brcs	.-22     	; 0xa4c <L0^A>
     a62:	99 23       	and	r25, r25
     a64:	c1 f3       	breq	.-16     	; 0xa56 <.L_min>
     a66:	ae f3       	brts	.-22     	; 0xa52 <.L_nan>
     a68:	df 93       	push	r29
     a6a:	cf 93       	push	r28
     a6c:	1f 93       	push	r17
     a6e:	0f 93       	push	r16
     a70:	ff 92       	push	r15
     a72:	c9 2f       	mov	r28, r25
     a74:	dd 27       	eor	r29, r29
     a76:	88 23       	and	r24, r24
     a78:	2a f0       	brmi	.+10     	; 0xa84 <.L2^B1>

00000a7a <.L1^B1>:
     a7a:	21 97       	sbiw	r28, 0x01	; 1
     a7c:	66 0f       	add	r22, r22
     a7e:	77 1f       	adc	r23, r23
     a80:	88 1f       	adc	r24, r24
     a82:	da f7       	brpl	.-10     	; 0xa7a <.L1^B1>

00000a84 <.L2^B1>:
     a84:	20 e0       	ldi	r18, 0x00	; 0
     a86:	30 e0       	ldi	r19, 0x00	; 0
     a88:	40 e8       	ldi	r20, 0x80	; 128
     a8a:	5f eb       	ldi	r21, 0xBF	; 191
     a8c:	9f e3       	ldi	r25, 0x3F	; 63
     a8e:	88 39       	cpi	r24, 0x98	; 152
     a90:	20 f0       	brcs	.+8      	; 0xa9a <.L3^B1>
     a92:	80 3e       	cpi	r24, 0xE0	; 224
     a94:	38 f0       	brcs	.+14     	; 0xaa4 <.L4^B1>
     a96:	21 96       	adiw	r28, 0x01	; 1
     a98:	8f 77       	andi	r24, 0x7F	; 127

00000a9a <.L3^B1>:
     a9a:	0e 94 e0 05 	call	0xbc0	; 0xbc0 <__addsf3>
     a9e:	ec ec       	ldi	r30, 0xCC	; 204
     aa0:	ff e0       	ldi	r31, 0x0F	; 15
     aa2:	04 c0       	rjmp	.+8      	; 0xaac <.L5^B1>

00000aa4 <.L4^B1>:
     aa4:	0e 94 e0 05 	call	0xbc0	; 0xbc0 <__addsf3>
     aa8:	e9 ef       	ldi	r30, 0xF9	; 249
     aaa:	ff e0       	ldi	r31, 0x0F	; 15

00000aac <.L5^B1>:
     aac:	0e 94 a0 06 	call	0xd40	; 0xd40 <__fp_powser>
     ab0:	8b 01       	movw	r16, r22
     ab2:	be 01       	movw	r22, r28
     ab4:	ec 01       	movw	r28, r24
     ab6:	fb 2e       	mov	r15, r27
     ab8:	6f 57       	subi	r22, 0x7F	; 127
     aba:	71 09       	sbc	r23, r1
     abc:	75 95       	asr	r23
     abe:	77 1f       	adc	r23, r23
     ac0:	88 0b       	sbc	r24, r24
     ac2:	99 0b       	sbc	r25, r25
     ac4:	0e 94 4e 06 	call	0xc9c	; 0xc9c <__floatsisf>
     ac8:	28 e1       	ldi	r18, 0x18	; 24
     aca:	32 e7       	ldi	r19, 0x72	; 114
     acc:	41 e3       	ldi	r20, 0x31	; 49
     ace:	5f e3       	ldi	r21, 0x3F	; 63
     ad0:	0e 94 85 05 	call	0xb0a	; 0xb0a <__mulsf3x>
     ad4:	af 2d       	mov	r26, r15
     ad6:	98 01       	movw	r18, r16
     ad8:	ae 01       	movw	r20, r28
     ada:	ff 90       	pop	r15
     adc:	0f 91       	pop	r16
     ade:	1f 91       	pop	r17
     ae0:	cf 91       	pop	r28
     ae2:	df 91       	pop	r29
     ae4:	0e 94 f7 05 	call	0xbee	; 0xbee <__addsf3x>
     ae8:	0c 94 d5 06 	jmp	0xdaa	; 0xdaa <__fp_round>

00000aec <.L0^B1>:
     aec:	0e 94 c7 06 	call	0xd8e	; 0xd8e <__fp_pscA>
     af0:	38 f0       	brcs	.+14     	; 0xb00 <.L1^B1>
     af2:	0e 94 ce 06 	call	0xd9c	; 0xd9c <__fp_pscB>
     af6:	20 f0       	brcs	.+8      	; 0xb00 <.L1^B1>
     af8:	95 23       	and	r25, r21
     afa:	11 f0       	breq	.+4      	; 0xb00 <.L1^B1>
     afc:	0c 94 89 06 	jmp	0xd12	; 0xd12 <__fp_inf>

00000b00 <.L1^B1>:
     b00:	0c 94 9d 06 	jmp	0xd3a	; 0xd3a <__fp_nan>

00000b04 <.L2^B1>:
     b04:	11 24       	eor	r1, r1
     b06:	0c 94 09 07 	jmp	0xe12	; 0xe12 <__fp_szero>

00000b0a <__mulsf3x>:
     b0a:	0e 94 e6 06 	call	0xdcc	; 0xdcc <__fp_split3>
     b0e:	70 f3       	brcs	.-36     	; 0xaec <.L0^B1>

00000b10 <__mulsf3_pse>:
     b10:	95 9f       	mul	r25, r21
     b12:	c1 f3       	breq	.-16     	; 0xb04 <.L2^B1>
     b14:	95 0f       	add	r25, r21
     b16:	50 e0       	ldi	r21, 0x00	; 0
     b18:	55 1f       	adc	r21, r21
     b1a:	62 9f       	mul	r22, r18
     b1c:	f0 01       	movw	r30, r0
     b1e:	72 9f       	mul	r23, r18
     b20:	bb 27       	eor	r27, r27
     b22:	f0 0d       	add	r31, r0
     b24:	b1 1d       	adc	r27, r1
     b26:	63 9f       	mul	r22, r19
     b28:	aa 27       	eor	r26, r26
     b2a:	f0 0d       	add	r31, r0
     b2c:	b1 1d       	adc	r27, r1
     b2e:	aa 1f       	adc	r26, r26
     b30:	64 9f       	mul	r22, r20
     b32:	66 27       	eor	r22, r22
     b34:	b0 0d       	add	r27, r0
     b36:	a1 1d       	adc	r26, r1
     b38:	66 1f       	adc	r22, r22
     b3a:	82 9f       	mul	r24, r18
     b3c:	22 27       	eor	r18, r18
     b3e:	b0 0d       	add	r27, r0
     b40:	a1 1d       	adc	r26, r1
     b42:	62 1f       	adc	r22, r18
     b44:	73 9f       	mul	r23, r19
     b46:	b0 0d       	add	r27, r0
     b48:	a1 1d       	adc	r26, r1
     b4a:	62 1f       	adc	r22, r18
     b4c:	83 9f       	mul	r24, r19
     b4e:	a0 0d       	add	r26, r0
     b50:	61 1d       	adc	r22, r1
     b52:	22 1f       	adc	r18, r18
     b54:	74 9f       	mul	r23, r20
     b56:	33 27       	eor	r19, r19
     b58:	a0 0d       	add	r26, r0
     b5a:	61 1d       	adc	r22, r1
     b5c:	23 1f       	adc	r18, r19
     b5e:	84 9f       	mul	r24, r20
     b60:	60 0d       	add	r22, r0
     b62:	21 1d       	adc	r18, r1
     b64:	82 2f       	mov	r24, r18
     b66:	76 2f       	mov	r23, r22
     b68:	6a 2f       	mov	r22, r26
     b6a:	11 24       	eor	r1, r1
     b6c:	9f 57       	subi	r25, 0x7F	; 127
     b6e:	50 40       	sbci	r21, 0x00	; 0
     b70:	9a f0       	brmi	.+38     	; 0xb98 <.L13^B1>
     b72:	f1 f0       	breq	.+60     	; 0xbb0 <.L15^B1>

00000b74 <.L10^B1>:
     b74:	88 23       	and	r24, r24
     b76:	4a f0       	brmi	.+18     	; 0xb8a <.L11^B1>
     b78:	ee 0f       	add	r30, r30
     b7a:	ff 1f       	adc	r31, r31
     b7c:	bb 1f       	adc	r27, r27
     b7e:	66 1f       	adc	r22, r22
     b80:	77 1f       	adc	r23, r23
     b82:	88 1f       	adc	r24, r24
     b84:	91 50       	subi	r25, 0x01	; 1
     b86:	50 40       	sbci	r21, 0x00	; 0
     b88:	a9 f7       	brne	.-22     	; 0xb74 <.L10^B1>

00000b8a <.L11^B1>:
     b8a:	9e 3f       	cpi	r25, 0xFE	; 254
     b8c:	51 05       	cpc	r21, r1
     b8e:	80 f0       	brcs	.+32     	; 0xbb0 <.L15^B1>
     b90:	0c 94 89 06 	jmp	0xd12	; 0xd12 <__fp_inf>

00000b94 <.L12^B1>:
     b94:	0c 94 09 07 	jmp	0xe12	; 0xe12 <__fp_szero>

00000b98 <.L13^B1>:
     b98:	5f 3f       	cpi	r21, 0xFF	; 255
     b9a:	e4 f3       	brlt	.-8      	; 0xb94 <.L12^B1>
     b9c:	98 3e       	cpi	r25, 0xE8	; 232
     b9e:	d4 f3       	brlt	.-12     	; 0xb94 <.L12^B1>

00000ba0 <.L14^B1>:
     ba0:	86 95       	lsr	r24
     ba2:	77 95       	ror	r23
     ba4:	67 95       	ror	r22
     ba6:	b7 95       	ror	r27
     ba8:	f7 95       	ror	r31
     baa:	e7 95       	ror	r30
     bac:	9f 5f       	subi	r25, 0xFF	; 255
     bae:	c1 f7       	brne	.-16     	; 0xba0 <.L14^B1>

00000bb0 <.L15^B1>:
     bb0:	fe 2b       	or	r31, r30
     bb2:	88 0f       	add	r24, r24
     bb4:	91 1d       	adc	r25, r1
     bb6:	96 95       	lsr	r25
     bb8:	87 95       	ror	r24
     bba:	97 f9       	bld	r25, 7
     bbc:	08 95       	ret

00000bbe <__subsf3>:
     bbe:	50 58       	subi	r21, 0x80	; 128

00000bc0 <__addsf3>:
     bc0:	bb 27       	eor	r27, r27
     bc2:	aa 27       	eor	r26, r26
     bc4:	0e 94 f7 05 	call	0xbee	; 0xbee <__addsf3x>
     bc8:	0c 94 d5 06 	jmp	0xdaa	; 0xdaa <__fp_round>

00000bcc <.L0^B1>:
     bcc:	0e 94 c7 06 	call	0xd8e	; 0xd8e <__fp_pscA>
     bd0:	38 f0       	brcs	.+14     	; 0xbe0 <.L_nan>
     bd2:	0e 94 ce 06 	call	0xd9c	; 0xd9c <__fp_pscB>
     bd6:	20 f0       	brcs	.+8      	; 0xbe0 <.L_nan>
     bd8:	39 f4       	brne	.+14     	; 0xbe8 <.L_inf>
     bda:	9f 3f       	cpi	r25, 0xFF	; 255
     bdc:	19 f4       	brne	.+6      	; 0xbe4 <.L_infB>
     bde:	26 f4       	brtc	.+8      	; 0xbe8 <.L_inf>

00000be0 <.L_nan>:
     be0:	0c 94 9d 06 	jmp	0xd3a	; 0xd3a <__fp_nan>

00000be4 <.L_infB>:
     be4:	0e f4       	brtc	.+2      	; 0xbe8 <.L_inf>
     be6:	e0 95       	com	r30

00000be8 <.L_inf>:
     be8:	e7 fb       	bst	r30, 7
     bea:	0c 94 89 06 	jmp	0xd12	; 0xd12 <__fp_inf>

00000bee <__addsf3x>:
     bee:	e9 2f       	mov	r30, r25
     bf0:	0e 94 e6 06 	call	0xdcc	; 0xdcc <__fp_split3>
     bf4:	58 f3       	brcs	.-42     	; 0xbcc <.L0^B1>
     bf6:	ba 17       	cp	r27, r26
     bf8:	62 07       	cpc	r22, r18
     bfa:	73 07       	cpc	r23, r19
     bfc:	84 07       	cpc	r24, r20
     bfe:	95 07       	cpc	r25, r21
     c00:	20 f0       	brcs	.+8      	; 0xc0a <.L2^B1>
     c02:	79 f4       	brne	.+30     	; 0xc22 <.L4^B1>
     c04:	a6 f5       	brtc	.+104    	; 0xc6e <.L_add>
     c06:	0c 94 08 07 	jmp	0xe10	; 0xe10 <__fp_zero>

00000c0a <.L2^B1>:
     c0a:	0e f4       	brtc	.+2      	; 0xc0e <.L3^B1>
     c0c:	e0 95       	com	r30

00000c0e <.L3^B1>:
     c0e:	0b 2e       	mov	r0, r27
     c10:	ba 2f       	mov	r27, r26
     c12:	a0 2d       	mov	r26, r0
     c14:	0b 01       	movw	r0, r22
     c16:	b9 01       	movw	r22, r18
     c18:	90 01       	movw	r18, r0
     c1a:	0c 01       	movw	r0, r24
     c1c:	ca 01       	movw	r24, r20
     c1e:	a0 01       	movw	r20, r0
     c20:	11 24       	eor	r1, r1

00000c22 <.L4^B1>:
     c22:	ff 27       	eor	r31, r31
     c24:	59 1b       	sub	r21, r25

00000c26 <.L5^B1>:
     c26:	99 f0       	breq	.+38     	; 0xc4e <.L7^B1>
     c28:	59 3f       	cpi	r21, 0xF9	; 249
     c2a:	50 f4       	brcc	.+20     	; 0xc40 <.L6^B1>
     c2c:	50 3e       	cpi	r21, 0xE0	; 224
     c2e:	68 f1       	brcs	.+90     	; 0xc8a <.L_ret>
     c30:	1a 16       	cp	r1, r26
     c32:	f0 40       	sbci	r31, 0x00	; 0
     c34:	a2 2f       	mov	r26, r18
     c36:	23 2f       	mov	r18, r19
     c38:	34 2f       	mov	r19, r20
     c3a:	44 27       	eor	r20, r20
     c3c:	58 5f       	subi	r21, 0xF8	; 248
     c3e:	f3 cf       	rjmp	.-26     	; 0xc26 <.L5^B1>

00000c40 <.L6^B1>:
     c40:	46 95       	lsr	r20
     c42:	37 95       	ror	r19
     c44:	27 95       	ror	r18
     c46:	a7 95       	ror	r26
     c48:	f0 40       	sbci	r31, 0x00	; 0
     c4a:	53 95       	inc	r21
     c4c:	c9 f7       	brne	.-14     	; 0xc40 <.L6^B1>

00000c4e <.L7^B1>:
     c4e:	7e f4       	brtc	.+30     	; 0xc6e <.L_add>
     c50:	1f 16       	cp	r1, r31
     c52:	ba 0b       	sbc	r27, r26
     c54:	62 0b       	sbc	r22, r18
     c56:	73 0b       	sbc	r23, r19
     c58:	84 0b       	sbc	r24, r20
     c5a:	ba f0       	brmi	.+46     	; 0xc8a <.L_ret>

00000c5c <.L8^B1>:
     c5c:	91 50       	subi	r25, 0x01	; 1
     c5e:	a1 f0       	breq	.+40     	; 0xc88 <.L9^B1>
     c60:	ff 0f       	add	r31, r31
     c62:	bb 1f       	adc	r27, r27
     c64:	66 1f       	adc	r22, r22
     c66:	77 1f       	adc	r23, r23
     c68:	88 1f       	adc	r24, r24
     c6a:	c2 f7       	brpl	.-16     	; 0xc5c <.L8^B1>
     c6c:	0e c0       	rjmp	.+28     	; 0xc8a <.L_ret>

00000c6e <.L_add>:
     c6e:	ba 0f       	add	r27, r26
     c70:	62 1f       	adc	r22, r18
     c72:	73 1f       	adc	r23, r19
     c74:	84 1f       	adc	r24, r20
     c76:	48 f4       	brcc	.+18     	; 0xc8a <.L_ret>
     c78:	87 95       	ror	r24
     c7a:	77 95       	ror	r23
     c7c:	67 95       	ror	r22
     c7e:	b7 95       	ror	r27
     c80:	f7 95       	ror	r31
     c82:	9e 3f       	cpi	r25, 0xFE	; 254
     c84:	08 f0       	brcs	.+2      	; 0xc88 <.L9^B1>
     c86:	b0 cf       	rjmp	.-160    	; 0xbe8 <.L_inf>

00000c88 <.L9^B1>:
     c88:	93 95       	inc	r25

00000c8a <.L_ret>:
     c8a:	88 0f       	add	r24, r24
     c8c:	08 f0       	brcs	.+2      	; 0xc90 <.L1^B1>
     c8e:	99 27       	eor	r25, r25

00000c90 <.L1^B1>:
     c90:	ee 0f       	add	r30, r30
     c92:	97 95       	ror	r25
     c94:	87 95       	ror	r24
     c96:	08 95       	ret

00000c98 <__floatunsisf>:
     c98:	e8 94       	clt
     c9a:	09 c0       	rjmp	.+18     	; 0xcae <.L1^B1>

00000c9c <__floatsisf>:
     c9c:	97 fb       	bst	r25, 7
     c9e:	3e f4       	brtc	.+14     	; 0xcae <.L1^B1>
     ca0:	90 95       	com	r25
     ca2:	80 95       	com	r24
     ca4:	70 95       	com	r23
     ca6:	61 95       	neg	r22
     ca8:	7f 4f       	sbci	r23, 0xFF	; 255
     caa:	8f 4f       	sbci	r24, 0xFF	; 255
     cac:	9f 4f       	sbci	r25, 0xFF	; 255

00000cae <.L1^B1>:
     cae:	99 23       	and	r25, r25
     cb0:	a9 f0       	breq	.+42     	; 0xcdc <.L4^B1>
     cb2:	f9 2f       	mov	r31, r25
     cb4:	96 e9       	ldi	r25, 0x96	; 150
     cb6:	bb 27       	eor	r27, r27

00000cb8 <.L2^B1>:
     cb8:	93 95       	inc	r25
     cba:	f6 95       	lsr	r31
     cbc:	87 95       	ror	r24
     cbe:	77 95       	ror	r23
     cc0:	67 95       	ror	r22
     cc2:	b7 95       	ror	r27
     cc4:	f1 11       	cpse	r31, r1
     cc6:	f8 cf       	rjmp	.-16     	; 0xcb8 <.L2^B1>
     cc8:	fa f4       	brpl	.+62     	; 0xd08 <.L_pack>
     cca:	bb 0f       	add	r27, r27
     ccc:	11 f4       	brne	.+4      	; 0xcd2 <.L3^B1>
     cce:	60 ff       	sbrs	r22, 0
     cd0:	1b c0       	rjmp	.+54     	; 0xd08 <.L_pack>

00000cd2 <.L3^B1>:
     cd2:	6f 5f       	subi	r22, 0xFF	; 255
     cd4:	7f 4f       	sbci	r23, 0xFF	; 255
     cd6:	8f 4f       	sbci	r24, 0xFF	; 255
     cd8:	9f 4f       	sbci	r25, 0xFF	; 255
     cda:	16 c0       	rjmp	.+44     	; 0xd08 <.L_pack>

00000cdc <.L4^B1>:
     cdc:	88 23       	and	r24, r24
     cde:	11 f0       	breq	.+4      	; 0xce4 <.L5^B1>
     ce0:	96 e9       	ldi	r25, 0x96	; 150
     ce2:	11 c0       	rjmp	.+34     	; 0xd06 <.L8^B1>

00000ce4 <.L5^B1>:
     ce4:	77 23       	and	r23, r23
     ce6:	21 f0       	breq	.+8      	; 0xcf0 <.L6^B1>
     ce8:	9e e8       	ldi	r25, 0x8E	; 142
     cea:	87 2f       	mov	r24, r23
     cec:	76 2f       	mov	r23, r22
     cee:	05 c0       	rjmp	.+10     	; 0xcfa <.L7^B1>

00000cf0 <.L6^B1>:
     cf0:	66 23       	and	r22, r22
     cf2:	71 f0       	breq	.+28     	; 0xd10 <.L9^B1>
     cf4:	96 e8       	ldi	r25, 0x86	; 134
     cf6:	86 2f       	mov	r24, r22
     cf8:	70 e0       	ldi	r23, 0x00	; 0

00000cfa <.L7^B1>:
     cfa:	60 e0       	ldi	r22, 0x00	; 0
     cfc:	2a f0       	brmi	.+10     	; 0xd08 <.L_pack>

00000cfe <.L10^B1>:
     cfe:	9a 95       	dec	r25
     d00:	66 0f       	add	r22, r22
     d02:	77 1f       	adc	r23, r23
     d04:	88 1f       	adc	r24, r24

00000d06 <.L8^B1>:
     d06:	da f7       	brpl	.-10     	; 0xcfe <.L10^B1>

00000d08 <.L_pack>:
     d08:	88 0f       	add	r24, r24
     d0a:	96 95       	lsr	r25
     d0c:	87 95       	ror	r24
     d0e:	97 f9       	bld	r25, 7

00000d10 <.L9^B1>:
     d10:	08 95       	ret

00000d12 <__fp_inf>:
     d12:	97 f9       	bld	r25, 7
     d14:	9f 67       	ori	r25, 0x7F	; 127
     d16:	80 e8       	ldi	r24, 0x80	; 128
     d18:	70 e0       	ldi	r23, 0x00	; 0
     d1a:	60 e0       	ldi	r22, 0x00	; 0
     d1c:	08 95       	ret

00000d1e <__fp_mpack>:
     d1e:	9f 3f       	cpi	r25, 0xFF	; 255
     d20:	31 f0       	breq	.+12     	; 0xd2e <.L1^B1>

00000d22 <__fp_mpack_finite>:
     d22:	91 50       	subi	r25, 0x01	; 1
     d24:	20 f4       	brcc	.+8      	; 0xd2e <.L1^B1>
     d26:	87 95       	ror	r24
     d28:	77 95       	ror	r23
     d2a:	67 95       	ror	r22
     d2c:	b7 95       	ror	r27

00000d2e <.L1^B1>:
     d2e:	88 0f       	add	r24, r24
     d30:	91 1d       	adc	r25, r1
     d32:	96 95       	lsr	r25
     d34:	87 95       	ror	r24
     d36:	97 f9       	bld	r25, 7
     d38:	08 95       	ret

00000d3a <__fp_nan>:
     d3a:	9f ef       	ldi	r25, 0xFF	; 255
     d3c:	80 ec       	ldi	r24, 0xC0	; 192
     d3e:	08 95       	ret

00000d40 <__fp_powser>:
     d40:	df 93       	push	r29
     d42:	cf 93       	push	r28
     d44:	1f 93       	push	r17
     d46:	0f 93       	push	r16
     d48:	ff 92       	push	r15
     d4a:	ef 92       	push	r14
     d4c:	df 92       	push	r13
     d4e:	7b 01       	movw	r14, r22
     d50:	8c 01       	movw	r16, r24
     d52:	68 94       	set
     d54:	06 c0       	rjmp	.+12     	; 0xd62 <.Load5>

00000d56 <.L1^B1>:
     d56:	da 2e       	mov	r13, r26

00000d58 <.Loop>:
     d58:	ef 01       	movw	r28, r30
     d5a:	0e 94 85 05 	call	0xb0a	; 0xb0a <__mulsf3x>
     d5e:	fe 01       	movw	r30, r28
     d60:	e8 94       	clt

00000d62 <.Load5>:
     d62:	a5 91       	lpm	r26, Z+
     d64:	25 91       	lpm	r18, Z+
     d66:	35 91       	lpm	r19, Z+
     d68:	45 91       	lpm	r20, Z+
     d6a:	55 91       	lpm	r21, Z+
     d6c:	a6 f3       	brts	.-24     	; 0xd56 <.L1^B1>
     d6e:	ef 01       	movw	r28, r30
     d70:	0e 94 f7 05 	call	0xbee	; 0xbee <__addsf3x>
     d74:	fe 01       	movw	r30, r28
     d76:	97 01       	movw	r18, r14
     d78:	a8 01       	movw	r20, r16
     d7a:	da 94       	dec	r13
     d7c:	69 f7       	brne	.-38     	; 0xd58 <.Loop>
     d7e:	df 90       	pop	r13
     d80:	ef 90       	pop	r14
     d82:	ff 90       	pop	r15
     d84:	0f 91       	pop	r16
     d86:	1f 91       	pop	r17
     d88:	cf 91       	pop	r28
     d8a:	df 91       	pop	r29
     d8c:	08 95       	ret

00000d8e <__fp_pscA>:
     d8e:	00 24       	eor	r0, r0
     d90:	0a 94       	dec	r0
     d92:	16 16       	cp	r1, r22
     d94:	17 06       	cpc	r1, r23
     d96:	18 06       	cpc	r1, r24
     d98:	09 06       	cpc	r0, r25
     d9a:	08 95       	ret

00000d9c <__fp_pscB>:
     d9c:	00 24       	eor	r0, r0
     d9e:	0a 94       	dec	r0
     da0:	12 16       	cp	r1, r18
     da2:	13 06       	cpc	r1, r19
     da4:	14 06       	cpc	r1, r20
     da6:	05 06       	cpc	r0, r21
     da8:	08 95       	ret

00000daa <__fp_round>:
     daa:	09 2e       	mov	r0, r25
     dac:	03 94       	inc	r0
     dae:	00 0c       	add	r0, r0
     db0:	11 f4       	brne	.+4      	; 0xdb6 <.L1^B1>
     db2:	88 23       	and	r24, r24
     db4:	52 f0       	brmi	.+20     	; 0xdca <.L3^B1>

00000db6 <.L1^B1>:
     db6:	bb 0f       	add	r27, r27
     db8:	40 f4       	brcc	.+16     	; 0xdca <.L3^B1>
     dba:	bf 2b       	or	r27, r31
     dbc:	11 f4       	brne	.+4      	; 0xdc2 <.L2^B1>
     dbe:	60 ff       	sbrs	r22, 0
     dc0:	04 c0       	rjmp	.+8      	; 0xdca <.L3^B1>

00000dc2 <.L2^B1>:
     dc2:	6f 5f       	subi	r22, 0xFF	; 255
     dc4:	7f 4f       	sbci	r23, 0xFF	; 255
     dc6:	8f 4f       	sbci	r24, 0xFF	; 255
     dc8:	9f 4f       	sbci	r25, 0xFF	; 255

00000dca <.L3^B1>:
     dca:	08 95       	ret

00000dcc <__fp_split3>:
     dcc:	57 fd       	sbrc	r21, 7
     dce:	90 58       	subi	r25, 0x80	; 128
     dd0:	44 0f       	add	r20, r20
     dd2:	55 1f       	adc	r21, r21
     dd4:	59 f0       	breq	.+22     	; 0xdec <.L4^B1>
     dd6:	5f 3f       	cpi	r21, 0xFF	; 255
     dd8:	71 f0       	breq	.+28     	; 0xdf6 <.L5^B1>

00000dda <.L1^B1>:
     dda:	47 95       	ror	r20

00000ddc <__fp_splitA>:
     ddc:	88 0f       	add	r24, r24
     dde:	97 fb       	bst	r25, 7
     de0:	99 1f       	adc	r25, r25
     de2:	61 f0       	breq	.+24     	; 0xdfc <.L6^B1>
     de4:	9f 3f       	cpi	r25, 0xFF	; 255
     de6:	79 f0       	breq	.+30     	; 0xe06 <.L7^B1>

00000de8 <.L3^B1>:
     de8:	87 95       	ror	r24
     dea:	08 95       	ret

00000dec <.L4^B1>:
     dec:	12 16       	cp	r1, r18
     dee:	13 06       	cpc	r1, r19
     df0:	14 06       	cpc	r1, r20
     df2:	55 1f       	adc	r21, r21
     df4:	f2 cf       	rjmp	.-28     	; 0xdda <.L1^B1>

00000df6 <.L5^B1>:
     df6:	46 95       	lsr	r20
     df8:	f1 df       	rcall	.-30     	; 0xddc <__fp_splitA>
     dfa:	08 c0       	rjmp	.+16     	; 0xe0c <.L8^B1>

00000dfc <.L6^B1>:
     dfc:	16 16       	cp	r1, r22
     dfe:	17 06       	cpc	r1, r23
     e00:	18 06       	cpc	r1, r24
     e02:	99 1f       	adc	r25, r25
     e04:	f1 cf       	rjmp	.-30     	; 0xde8 <.L3^B1>

00000e06 <.L7^B1>:
     e06:	86 95       	lsr	r24
     e08:	71 05       	cpc	r23, r1
     e0a:	61 05       	cpc	r22, r1

00000e0c <.L8^B1>:
     e0c:	08 94       	sec
     e0e:	08 95       	ret

00000e10 <__fp_zero>:
     e10:	e8 94       	clt

00000e12 <__fp_szero>:
     e12:	bb 27       	eor	r27, r27
     e14:	66 27       	eor	r22, r22
     e16:	77 27       	eor	r23, r23
     e18:	cb 01       	movw	r24, r22
     e1a:	97 f9       	bld	r25, 7
     e1c:	08 95       	ret

00000e1e <__divsf3>:
     e1e:	0e 94 23 07 	call	0xe46	; 0xe46 <__divsf3x>
     e22:	0c 94 d5 06 	jmp	0xdaa	; 0xdaa <__fp_round>

00000e26 <.L0^B1>:
     e26:	0e 94 ce 06 	call	0xd9c	; 0xd9c <__fp_pscB>
     e2a:	58 f0       	brcs	.+22     	; 0xe42 <.L_nan>
     e2c:	0e 94 c7 06 	call	0xd8e	; 0xd8e <__fp_pscA>
     e30:	40 f0       	brcs	.+16     	; 0xe42 <.L_nan>
     e32:	29 f4       	brne	.+10     	; 0xe3e <.L_zr>
     e34:	5f 3f       	cpi	r21, 0xFF	; 255
     e36:	29 f0       	breq	.+10     	; 0xe42 <.L_nan>

00000e38 <.L_inf>:
     e38:	0c 94 89 06 	jmp	0xd12	; 0xd12 <__fp_inf>

00000e3c <.L1^B1>:
     e3c:	51 11       	cpse	r21, r1

00000e3e <.L_zr>:
     e3e:	0c 94 09 07 	jmp	0xe12	; 0xe12 <__fp_szero>

00000e42 <.L_nan>:
     e42:	0c 94 9d 06 	jmp	0xd3a	; 0xd3a <__fp_nan>

00000e46 <__divsf3x>:
     e46:	0e 94 e6 06 	call	0xdcc	; 0xdcc <__fp_split3>
     e4a:	68 f3       	brcs	.-38     	; 0xe26 <.L0^B1>

00000e4c <__divsf3_pse>:
     e4c:	99 23       	and	r25, r25
     e4e:	b1 f3       	breq	.-20     	; 0xe3c <.L1^B1>
     e50:	55 23       	and	r21, r21
     e52:	91 f3       	breq	.-28     	; 0xe38 <.L_inf>
     e54:	95 1b       	sub	r25, r21
     e56:	55 0b       	sbc	r21, r21
     e58:	bb 27       	eor	r27, r27
     e5a:	aa 27       	eor	r26, r26

00000e5c <.L2^B1>:
     e5c:	62 17       	cp	r22, r18
     e5e:	73 07       	cpc	r23, r19
     e60:	84 07       	cpc	r24, r20
     e62:	38 f0       	brcs	.+14     	; 0xe72 <.L3^B1>
     e64:	9f 5f       	subi	r25, 0xFF	; 255
     e66:	5f 4f       	sbci	r21, 0xFF	; 255
     e68:	22 0f       	add	r18, r18
     e6a:	33 1f       	adc	r19, r19
     e6c:	44 1f       	adc	r20, r20
     e6e:	aa 1f       	adc	r26, r26
     e70:	a9 f3       	breq	.-22     	; 0xe5c <.L2^B1>

00000e72 <.L3^B1>:
     e72:	35 d0       	rcall	.+106    	; 0xede <.L_div>
     e74:	0e 2e       	mov	r0, r30
     e76:	3a f0       	brmi	.+14     	; 0xe86 <.L5^B1>

00000e78 <.L4^B1>:
     e78:	e0 e8       	ldi	r30, 0x80	; 128
     e7a:	32 d0       	rcall	.+100    	; 0xee0 <.L_div1>
     e7c:	91 50       	subi	r25, 0x01	; 1
     e7e:	50 40       	sbci	r21, 0x00	; 0
     e80:	e6 95       	lsr	r30
     e82:	00 1c       	adc	r0, r0
     e84:	ca f7       	brpl	.-14     	; 0xe78 <.L4^B1>

00000e86 <.L5^B1>:
     e86:	2b d0       	rcall	.+86     	; 0xede <.L_div>
     e88:	fe 2f       	mov	r31, r30
     e8a:	29 d0       	rcall	.+82     	; 0xede <.L_div>
     e8c:	66 0f       	add	r22, r22
     e8e:	77 1f       	adc	r23, r23
     e90:	88 1f       	adc	r24, r24
     e92:	bb 1f       	adc	r27, r27
     e94:	26 17       	cp	r18, r22
     e96:	37 07       	cpc	r19, r23
     e98:	48 07       	cpc	r20, r24
     e9a:	ab 07       	cpc	r26, r27
     e9c:	b0 e8       	ldi	r27, 0x80	; 128
     e9e:	09 f0       	breq	.+2      	; 0xea2 <.L4^B2>
     ea0:	bb 0b       	sbc	r27, r27

00000ea2 <.L4^B2>:
     ea2:	80 2d       	mov	r24, r0
     ea4:	bf 01       	movw	r22, r30
     ea6:	ff 27       	eor	r31, r31
     ea8:	93 58       	subi	r25, 0x83	; 131
     eaa:	5f 4f       	sbci	r21, 0xFF	; 255
     eac:	3a f0       	brmi	.+14     	; 0xebc <.L13^B1>
     eae:	9e 3f       	cpi	r25, 0xFE	; 254
     eb0:	51 05       	cpc	r21, r1
     eb2:	78 f0       	brcs	.+30     	; 0xed2 <.L15^B1>
     eb4:	0c 94 89 06 	jmp	0xd12	; 0xd12 <__fp_inf>

00000eb8 <.L12^B1>:
     eb8:	0c 94 09 07 	jmp	0xe12	; 0xe12 <__fp_szero>

00000ebc <.L13^B1>:
     ebc:	5f 3f       	cpi	r21, 0xFF	; 255
     ebe:	e4 f3       	brlt	.-8      	; 0xeb8 <.L12^B1>
     ec0:	98 3e       	cpi	r25, 0xE8	; 232
     ec2:	d4 f3       	brlt	.-12     	; 0xeb8 <.L12^B1>

00000ec4 <.L14^B1>:
     ec4:	86 95       	lsr	r24
     ec6:	77 95       	ror	r23
     ec8:	67 95       	ror	r22
     eca:	b7 95       	ror	r27
     ecc:	f7 95       	ror	r31
     ece:	9f 5f       	subi	r25, 0xFF	; 255
     ed0:	c9 f7       	brne	.-14     	; 0xec4 <.L14^B1>

00000ed2 <.L15^B1>:
     ed2:	88 0f       	add	r24, r24
     ed4:	91 1d       	adc	r25, r1
     ed6:	96 95       	lsr	r25
     ed8:	87 95       	ror	r24
     eda:	97 f9       	bld	r25, 7
     edc:	08 95       	ret

00000ede <.L_div>:
     ede:	e1 e0       	ldi	r30, 0x01	; 1

00000ee0 <.L_div1>:
     ee0:	66 0f       	add	r22, r22
     ee2:	77 1f       	adc	r23, r23
     ee4:	88 1f       	adc	r24, r24
     ee6:	bb 1f       	adc	r27, r27
     ee8:	62 17       	cp	r22, r18
     eea:	73 07       	cpc	r23, r19
     eec:	84 07       	cpc	r24, r20
     eee:	ba 07       	cpc	r27, r26
     ef0:	20 f0       	brcs	.+8      	; 0xefa <.L2^B2>
     ef2:	62 1b       	sub	r22, r18
     ef4:	73 0b       	sbc	r23, r19
     ef6:	84 0b       	sbc	r24, r20
     ef8:	ba 0b       	sbc	r27, r26

00000efa <.L2^B2>:
     efa:	ee 1f       	adc	r30, r30
     efc:	88 f7       	brcc	.-30     	; 0xee0 <.L_div1>
     efe:	e0 95       	com	r30
     f00:	08 95       	ret

00000f02 <__fixsfsi>:
     f02:	0e 94 88 07 	call	0xf10	; 0xf10 <__fixunssfsi>
     f06:	68 94       	set
     f08:	b1 11       	cpse	r27, r1
     f0a:	0c 94 09 07 	jmp	0xe12	; 0xe12 <__fp_szero>
     f0e:	08 95       	ret

00000f10 <__fixunssfsi>:
     f10:	0e 94 ee 06 	call	0xddc	; 0xddc <__fp_splitA>
     f14:	88 f0       	brcs	.+34     	; 0xf38 <.L_err>
     f16:	9f 57       	subi	r25, 0x7F	; 127
     f18:	98 f0       	brcs	.+38     	; 0xf40 <.L_zr>
     f1a:	b9 2f       	mov	r27, r25
     f1c:	99 27       	eor	r25, r25
     f1e:	b7 51       	subi	r27, 0x17	; 23
     f20:	b0 f0       	brcs	.+44     	; 0xf4e <.L4^B1>
     f22:	e1 f0       	breq	.+56     	; 0xf5c <.L_sign>

00000f24 <.L1^B1>:
     f24:	66 0f       	add	r22, r22
     f26:	77 1f       	adc	r23, r23
     f28:	88 1f       	adc	r24, r24
     f2a:	99 1f       	adc	r25, r25
     f2c:	1a f0       	brmi	.+6      	; 0xf34 <.L2^B1>
     f2e:	ba 95       	dec	r27
     f30:	c9 f7       	brne	.-14     	; 0xf24 <.L1^B1>
     f32:	14 c0       	rjmp	.+40     	; 0xf5c <.L_sign>

00000f34 <.L2^B1>:
     f34:	b1 30       	cpi	r27, 0x01	; 1
     f36:	91 f0       	breq	.+36     	; 0xf5c <.L_sign>

00000f38 <.L_err>:
     f38:	0e 94 08 07 	call	0xe10	; 0xe10 <__fp_zero>
     f3c:	b1 e0       	ldi	r27, 0x01	; 1
     f3e:	08 95       	ret

00000f40 <.L_zr>:
     f40:	0c 94 08 07 	jmp	0xe10	; 0xe10 <__fp_zero>

00000f44 <.L3^B1>:
     f44:	67 2f       	mov	r22, r23
     f46:	78 2f       	mov	r23, r24
     f48:	88 27       	eor	r24, r24
     f4a:	b8 5f       	subi	r27, 0xF8	; 248
     f4c:	39 f0       	breq	.+14     	; 0xf5c <.L_sign>

00000f4e <.L4^B1>:
     f4e:	b9 3f       	cpi	r27, 0xF9	; 249
     f50:	cc f3       	brlt	.-14     	; 0xf44 <.L3^B1>

00000f52 <.L5^B1>:
     f52:	86 95       	lsr	r24
     f54:	77 95       	ror	r23
     f56:	67 95       	ror	r22
     f58:	b3 95       	inc	r27
     f5a:	d9 f7       	brne	.-10     	; 0xf52 <.L5^B1>

00000f5c <.L_sign>:
     f5c:	3e f4       	brtc	.+14     	; 0xf6c <.L6^B1>
     f5e:	90 95       	com	r25
     f60:	80 95       	com	r24
     f62:	70 95       	com	r23
     f64:	61 95       	neg	r22
     f66:	7f 4f       	sbci	r23, 0xFF	; 255
     f68:	8f 4f       	sbci	r24, 0xFF	; 255
     f6a:	9f 4f       	sbci	r25, 0xFF	; 255

00000f6c <.L6^B1>:
     f6c:	08 95       	ret

00000f6e <__gesf2>:
     f6e:	0e 94 c0 07 	call	0xf80	; 0xf80 <__fp_cmp>
     f72:	08 f4       	brcc	.+2      	; 0xf76 <.L1^B1>
     f74:	8f ef       	ldi	r24, 0xFF	; 255

00000f76 <.L1^B1>:
     f76:	08 95       	ret

00000f78 <__mulsf3>:
     f78:	0e 94 85 05 	call	0xb0a	; 0xb0a <__mulsf3x>
     f7c:	0c 94 d5 06 	jmp	0xdaa	; 0xdaa <__fp_round>

00000f80 <__fp_cmp>:
     f80:	99 0f       	add	r25, r25
     f82:	00 08       	sbc	r0, r0
     f84:	55 0f       	add	r21, r21
     f86:	aa 0b       	sbc	r26, r26
     f88:	e0 e8       	ldi	r30, 0x80	; 128
     f8a:	fe ef       	ldi	r31, 0xFE	; 254
     f8c:	16 16       	cp	r1, r22
     f8e:	17 06       	cpc	r1, r23
     f90:	e8 07       	cpc	r30, r24
     f92:	f9 07       	cpc	r31, r25
     f94:	c0 f0       	brcs	.+48     	; 0xfc6 <.L9^B1>
     f96:	12 16       	cp	r1, r18
     f98:	13 06       	cpc	r1, r19
     f9a:	e4 07       	cpc	r30, r20
     f9c:	f5 07       	cpc	r31, r21
     f9e:	98 f0       	brcs	.+38     	; 0xfc6 <.L9^B1>
     fa0:	62 1b       	sub	r22, r18
     fa2:	73 0b       	sbc	r23, r19
     fa4:	84 0b       	sbc	r24, r20
     fa6:	95 0b       	sbc	r25, r21
     fa8:	39 f4       	brne	.+14     	; 0xfb8 <.L1^B1>
     faa:	0a 26       	eor	r0, r26
     fac:	61 f0       	breq	.+24     	; 0xfc6 <.L9^B1>
     fae:	23 2b       	or	r18, r19
     fb0:	24 2b       	or	r18, r20
     fb2:	25 2b       	or	r18, r21
     fb4:	21 f4       	brne	.+8      	; 0xfbe <.L2^B1>
     fb6:	08 95       	ret

00000fb8 <.L1^B1>:
     fb8:	0a 26       	eor	r0, r26
     fba:	09 f4       	brne	.+2      	; 0xfbe <.L2^B1>
     fbc:	a1 40       	sbci	r26, 0x01	; 1

00000fbe <.L2^B1>:
     fbe:	a6 95       	lsr	r26
     fc0:	8f ef       	ldi	r24, 0xFF	; 255
     fc2:	81 1d       	adc	r24, r1
     fc4:	81 1d       	adc	r24, r1

00000fc6 <.L9^B1>:
     fc6:	08 95       	ret

00000fc8 <_exit>:
     fc8:	f8 94       	cli

00000fca <__stop_program>:
     fca:	ff cf       	rjmp	.-2      	; 0xfca <__stop_program>

00000fcc <L0^A>:
     fcc:	08 00       	.word	0x0008	; ????
     fce:	00 00       	nop
     fd0:	be 92       	st	-X, r11
     fd2:	24 49       	sbci	r18, 0x94	; 148
     fd4:	12 3e       	cpi	r17, 0xE2	; 226
     fd6:	ab aa       	std	Y+51, r10	; 0x33
     fd8:	aa 2a       	or	r10, r26
     fda:	be cd       	rjmp	.-1156   	; 0xb58 <.Lname377>
     fdc:	cc cc       	rjmp	.-1640   	; 0x976 <__prologue_saves__>
     fde:	4c 3e       	cpi	r20, 0xEC	; 236
     fe0:	00 00       	nop
     fe2:	00 80       	ld	r0, Z
     fe4:	be ab       	std	Y+54, r27	; 0x36
     fe6:	aa aa       	std	Y+50, r10	; 0x32
     fe8:	aa 3e       	cpi	r26, 0xEA	; 234
     fea:	00 00       	nop
     fec:	00 00       	nop
     fee:	bf 00       	.word	0x00bf	; ????
     ff0:	00 00       	nop
     ff2:	80 3f       	cpi	r24, 0xF0	; 240
     ff4:	00 00       	nop
     ff6:	00 00       	nop
	...

00000ff9 <.L_thigh>:
     ff9:	08 41       	sbci	r16, 0x18	; 24
     ffb:	78 d3       	rcall	.+1776   	; 0x16ed <__data_load_end+0x661>
     ffd:	bb 43       	sbci	r27, 0x3B	; 59
     fff:	87 d1       	rcall	.+782    	; 0x130f <__data_load_end+0x283>
    1001:	13 3d       	cpi	r17, 0xD3	; 211
    1003:	19 0e       	add	r1, r25
    1005:	3c c3       	rjmp	.+1656   	; 0x167f <__data_load_end+0x5f3>
    1007:	bd 42       	sbci	r27, 0x2D	; 45
    1009:	82 ad       	ldd	r24, Z+58	; 0x3a
    100b:	2b 3e       	cpi	r18, 0xEB	; 235
    100d:	68 ec       	ldi	r22, 0xC8	; 200
    100f:	82 76       	andi	r24, 0x62	; 98
    1011:	be d9       	rcall	.-3204   	; 0x38f <.Lname113+0x7>
    1013:	8f e1       	ldi	r24, 0x1F	; 31
    1015:	a9 3e       	cpi	r26, 0xE9	; 233
    1017:	4c 80       	ldd	r4, Y+4	; 0x04
    1019:	ef ff       	.word	0xffef	; ????
    101b:	be 01       	movw	r22, r28
    101d:	c4 ff       	sbrs	r28, 4
    101f:	7f 3f       	cpi	r23, 0xFF	; 255
    1021:	00 00       	nop
    1023:	00 00       	nop
	...
